0id	1id_user	2username	3text	4lang	5likes	6reply	7retweet	8retweet_from	9time	10followings	11followers	12link_cover	13vid_src	14vid_cover	15imgs
1247616214769086465	12	jack	I’m moving $1B of my Square equity (~28% of my wealth) to #startsmall LLC to fund global COVID-19 relief. After we disarm this pandemic, the focus will shift to girl’s health and education, and UBI. It will operate transparently, all flows tracked here: 	en	314769	15485	87760		2020-04-07T20:04:19.000Z	4,508	4,769,963				
1291437439630708736	12	jack	Introducing Talking Squarely, candid conversations with business owners about the issues impacting their lives, from navigating the pandemic to the changing rules of commerce. Listen wherever you get your podcasts. 	en	376	48	110	Square	2020-08-06T18:14:14.000Z	4,508	4,769,963				
1291405157838684160	12	jack	When it comes to conversations with government and state-affiliated media accounts on Twitter, we’re helping to make the experience more transparent. We'll now use two distinct profile labels for these types of accounts, so you can easily identify them and their Tweets. (1/2) 	en	6941	617	2827	TwitterSupport	2020-08-06T16:05:57.000Z	4,508	4,769,963				https://pbs.twimg.com/media/Eev8wWmU0AATN1q?format=jpg&amp;name=240x240 https://pbs.twimg.com/media/Eev9CIFVAAEXPJY?format=jpg&amp;name=240x240
1291055240658198533	12	jack	BREAKING: Iowa Governor Kim Reynolds just restored voting rights to tens of thousands of Iowans with former convictions by executive order. This comes with no requirements to pay off fees and fines. 	en	85969	506	16808	BrennanCenter	2020-08-05T16:55:30.000Z	4,508	4,769,963				
1291024141273923586	12	jack	Design all the things 	en	1030	176	131		2020-08-05T14:51:56.000Z	4,508	4,769,963				
1290697810589839363	12	jack	Glow ((🌕)) 	en	2049	244	249		2020-08-04T17:15:12.000Z	4,508	4,769,963				
1290268789553025025	12	jack	. @HumanityForward is now teaming up with @1kprojectorg to distribute cash relief to individuals! This way we can increase the impact and help donors see the people they are helping ((🙏)) 	en	1803	69	445	AndrewYang	2020-08-03T12:50:26.000Z	4,508	4,769,963				
1290324130844352523	12	jack	Back in stock. Update your Cash App to order the HBA Cash Card. All proceeds will be donated to support BIPOC, LGBTQIA+, police reform, and community arts charities. To order, tap the Cash Card tab on your home screen now. 	en	1366	623	290	CashApp	2020-08-03T16:30:20.000Z	4,508	4,769,963				https://pbs.twimg.com/media/EegmEFuWsAQ3pSY?format=png&amp;name=360x360
1288860277807566848	12	jack	Finally, we aren’t just advocating for an open internet, we’re doing our part to make it more open. Putting our resources behind an open and decentralized standard for social media, @bluesky : 	en	631	182	115		2020-07-30T15:33:30.000Z	4,508	4,769,963				
1288860276641509378	12	jack	Ensuring competition on a level playing field for all on the internet, and truly understanding the fundamental dynamics that underlie internet speech, will strengthen what the internet can be for everyone around the world. 	en	538	96	104		2020-07-30T15:33:30.000Z	4,508	4,769,963				
1288860275005771777	12	jack	The second is for the outcomes of content moderation to be a reductive and binary “leave up” or “take down.” This distracts from a more important focus on amplification, reach, and connecting disparate information to provide richer context. 	en	321	23	50		2020-07-30T15:33:30.000Z	4,508	4,769,963				
1288860273487446016	12	jack	The first is a number of large organizations effectively building walled-garden alternative internets, sustained by favorable regulation, and thus killing competing ideas and organizations that could be better for society. 	en	362	16	58		2020-07-30T15:33:29.000Z	4,508	4,769,963				
1288860272250126340	12	jack	The power of the internet is only as good as the power it gives to individual people. The more we do to advance that, the stronger it becomes. This underlies all else. But there are two emergent and growing threats. 	en	494	30	61		2020-07-30T15:33:29.000Z	4,508	4,769,963				
1288860270635311106	12	jack	The most incredible aspect of the internet is that no one person or organization controls it: the people make it what it is every day. That ideal is constantly under threat, especially today. We commit as a company to fighting for an #OpenInternet . 	en	7724	1284	1547		2020-07-30T15:33:29.000Z	4,508	4,769,963				
1288641347914694657	12	jack	We invite you to hear from Lauren Stovall, marketing director and legacy preserver as she speaks with @Square about how we have been weathering the storm and surviving the storm that we are all still in. Click and share the link below: https://youtu.be/o7hTsz0arss 	en	166	21	40	hotsamsdetroit	2020-07-30T01:03:33.000Z	4,508	4,769,963				https://pbs.twimg.com/media/EeIsedPXoAI1T-N?format=jpg&amp;name=360x360
1288167477705203712	12	jack	Following up on the commitment I made last year to give away the majority of my wealth in my lifetime: https://bit.ly/3f8xSVO . (Note my Medium account is under my new last name -- changed back to middle name I grew up with, after my grandfather Scott.) 	en	12938	2219	3448	mackenziebezos	2020-07-28T17:40:34.000Z	4,508	4,769,963				
1288229597746733056	12	jack	No better time to explore another planet. Join astronauts @maejemison and @AstroJaws for the launch of the @NASAPersevere Mars rover at 7AM ET on Thursday, July 30th. 	en	9559	568	2041	TwitterLive	2020-07-28T21:47:24.000Z	4,508	4,769,963				
1286794822955626496	12	jack	Thank you Aaron for your incredible sense of humor and playfulness, your constant willingness to raise the bar on yourself and us, your clear and direct principles, and always teaching us everything you learned along the way. “No comment” on your always predictable attire. ((👕)) 	en	551	104	41		2020-07-24T22:46:07.000Z	4,508	4,769,963				
1286794821785366528	12	jack	Thank you Sam for always being principled and philosophical, for your quiet strength and humility, and your steady calm in the face of a very complicated role and set of challenges. And thanks for always throwing cold water on whatever I was most excited about ((😉)) 	en	567	57	50		2020-07-24T22:46:07.000Z	4,508	4,769,963				
1286794820556480512	12	jack	End of a chapter at Square as @emerose and @zamosta move on. Both were foundational in making us the company we are today. I feel sad to see them go, but I know both will continue to make everyone, and everything around them, strong, healthy, and happy. 	en	1722	288	137		2020-07-24T22:46:07.000Z	4,508	4,769,963				
1284511080715362304	12	jack	This changes everything. ((🤯)) With GPT-3, I built a Figma plugin to design for you. I call it "Designer" 	en	13019	393	4494	jsngr	2020-07-18T15:31:21.000Z	4,508	4,769,963		blob:https://twitter.com/30948ac0-18b4-4ff2-afa8-30416d156fa2	https://pbs.twimg.com/ext_tw_video_thumb/1284507868155322370/pu/img/FbZhsfHh9atgvVC0.jpg	
1284499243747684352	12	jack	As extremely powerful people publish statements praising John Lewis, important to remember that the Voting Rights Act remains gutted and it has been years since the last significant chance of its restoration and that the bridge on which Lewis bled remains named for a Klansman 	en	43984	197	13615	WesleyLowery	2020-07-18T14:44:19.000Z	4,508	4,769,963				
1284349602049687552	12	jack	Elders, now ancestors. Hallelujah. 	en	145723	320	27033	BerniceKing	2020-07-18T04:49:41.000Z	4,508	4,769,963				https://pbs.twimg.com/media/EdLtJ0_XYAAycFp?format=jpg&amp;name=240x240 https://pbs.twimg.com/media/EdLtJ1AX0AAPCOp?format=jpg&amp;name=240x240
1284344118420750337	12	jack	“Even though I was under arrest, I smiled because I believed we were on the right side of history. You too must find a way to get in the way.” -John Lewis ((❤️)) 	en	32640	51	6726	niccolethurman	2020-07-18T04:27:54.000Z	4,508	4,769,963				https://pbs.twimg.com/media/EdLoKsCVAAE1u4e?format=jpg&amp;name=360x360
618113562809077760	12	jack	You are never too young or too old to get in good trouble, necessary trouble. #goodtrouble 	en	18942	134	10769	repjohnlewis	2015-07-06T17:45:32.000Z	4,508	4,769,963				https://pbs.twimg.com/media/CJP7AiuWEAAAg0t?format=jpg&amp;name=240x240 https://pbs.twimg.com/media/CJP7AlwWsAEuqSq?format=jpg&amp;name=240x240
1284342322805772288	12	jack	Hero is too small a word for a man who served as the conscience of our nation. They beat him up on that bridge in Selma but they could not beat him down. He stayed humble. Stayed optimistic. Stayed ready. Stayed in the struggle. And we will stay forever grateful. Goodbye, Sir 	en	3481	33	737	michele_norris	2020-07-18T04:20:46.000Z	4,508	4,769,963				https://pbs.twimg.com/media/EdLmiPqXYAE-zTI?format=jpg&amp;name=360x360
1284340800441049088	12	jack	“Young man, you have to get in the way, make change, make good trouble!” Are the words John Lewis spoke to me as a 21 year old college senior running for city council. They have stuck with me ever since. His life and leadership are examples to emulate. RIP to the ((🐐)) . ((✊🏿)) ((🖤)) ((🙏🏾)) 	en	3245	36	514	MichaelDTubbs	2020-07-18T04:14:43.000Z	4,508	4,769,963				https://pbs.twimg.com/media/EdLlI7sUwAMa12o?format=jpg&amp;name=360x360
1284339740183912448	12	jack	#goodtrouble ((💔)) 	und	8790	456	973		2020-07-18T04:10:30.000Z	4,508	4,769,963				
1284239510113521667	12	jack	So so so so SORRY Breonna! #JusticeforBreonnaTalyor ((🙏🏾)) ((❤️)) 	en	149290	941	37706	KingJames	2020-07-17T21:32:13.000Z	4,508	4,769,963				https://pbs.twimg.com/media/EdKJBr3WkAgDfgt?format=jpg&amp;name=360x360
1283957910708662273	12	jack	We want to share some more specific updates coming out of the second day of our investigations. 	en	1094	96	296	TwitterSupport	2020-07-17T02:53:15.000Z	4,508	4,769,963				
1283843497900904448	12	jack	If your account was locked, this does not necessarily mean we have evidence that the account was compromised or accessed. So far, we believe only a small subset of these locked accounts were compromised, but are still investigating and will inform those who were affected. 	en	1232	94	332	TwitterSupport	2020-07-16T19:18:37.000Z	4,508	4,769,963				
1283843494461624320	12	jack	Here’s an update addressing questions we’ve heard around passwords and account access specifically: 	en	1148	35	416	TwitterSupport	2020-07-16T19:18:36.000Z	4,508	4,769,963				
1283856207036309504	12	jack	Another update on our security incident 	en	1070	154	166		2020-07-16T20:09:07.000Z	4,508	4,769,963				
1283608961816465410	12	jack	For those asking, we've always been clear that not all Tweets or accounts can appear in Trends or search. More here: https://help.twitter.com/en/using-twitter/twitter-trending-faqs Key parts in the screenshots. 	en	468	168	221	bborrman	2020-07-16T03:46:39.000Z	4,508	4,769,963				https://pbs.twimg.com/media/EdBLe6kUYAAXO4-?format=jpg&amp;name=small https://pbs.twimg.com/media/EdBLgjEU0AE7bZV?format=jpg&amp;name=small
1283594553618911232	12	jack	An update 	en	5386	539	1324		2020-07-16T02:49:24.000Z	4,508	4,769,963				
1283571658339397632	12	jack	Tough day for us at Twitter. We all feel terrible this happened. We’re diagnosing and will share everything we can when we have a more complete understanding of exactly what happened. ((💙)) to our teammates working hard to make this right. 	en	105766	9192	18437		2020-07-16T01:18:25.000Z	4,508	4,769,963				
1283246535958908928	12	jack			1256	154	149		2020-07-15T03:46:30.000Z	4,508	4,769,963				https://pbs.twimg.com/media/Ec8B7BWU0AU576q?format=jpg&amp;name=360x360
1283189292819341312	12	jack	“The opportunity to administer the Bitcoin was given on one condition- he would not cash it out. Beneficiaries of the digital currency had to learn how to use the BTC itself, creating a Bitcoin economy. This was the birth of the @Bitcoinbeach initiative” 	en	565	25	157	milessuter	2020-07-14T23:59:02.000Z	4,508	4,769,963				
1283169859233214465	12	jack	@BubbaWallace 	und	7453	488	1335		2020-07-14T22:41:49.000Z	4,508	4,769,963				https://pbs.twimg.com/media/Ec68LyTUEAUO6CH?format=jpg&amp;name=small https://pbs.twimg.com/media/Ec68LySUEAAb3eL?format=jpg&amp;name=240x240 https://pbs.twimg.com/media/Ec68LyVU0AE2ctz?format=jpg&amp;name=240x240
1283093832322576385	12	jack	there isn’t a day A Seat at the Table isn’t perfect for. thank you @solangeknowles ((Crown)) 	en	7836	52	1220	Kehlani	2020-07-14T17:39:43.000Z	4,508	4,769,963				
1283134685229355009	12	jack	((Money with wings)) ((Green heart)) ((Chequered flag)) 	und	2430	239	256		2020-07-14T20:22:03.000Z	4,508	4,769,963				
1283116637856530432	12	jack			413	84	78		2020-07-14T19:10:20.000Z	4,508	4,769,963				https://pbs.twimg.com/media/Ec6Lx66UMAAFjwf?format=jpg&amp;name=360x360
1283115933083373568	12	jack	((Eyes)) @hoodbyair 	und	585	75	123		2020-07-14T19:07:32.000Z	4,508	4,769,963				
1282777407091605506	12	jack	Today, we signed on to an amicus brief in support of @Harvard and @MIT 's challenge to the US government's recent guidance stating that international students whose courses have gone online must leave the country. 	en	1190	73	340	Policy	2020-07-13T20:42:21.000Z	4,508	4,769,963				
1282573007060217857	12	jack			1007	252	153		2020-07-13T07:10:08.000Z	4,508	4,769,963				
1282302531784208389	12	jack	Another example of why a guaranteed income is needed now @mayorsforagi 	en	314	33	79	MichaelDTubbs	2020-07-12T13:15:22.000Z	4,508	4,769,963				
1281702376894722048	12	jack	A guaranteed income is a strong step to address the racial wealth gap and provide stability to families living in poverty all across America. I will continue to work with @MayorsforaGI to lead the charge on this. 	en	511	124	161	MayorOfLA	2020-07-10T21:30:34.000Z	4,508	4,769,963				
1281335738827710466	12	jack	To vote click below https://www.vote.org/register-to-vote/ #2020VISION 	en	73855	3043	14118	kanyewest	2020-07-09T21:13:40.000Z	4,508	4,769,963		blob:https://twitter.com/8f72ecfb-dd23-4de4-af70-b19ca7167d8e	https://pbs.twimg.com/ext_tw_video_thumb/1281335578466881542/pu/img/JVX19mVbI2uq61vY.jpg	
1281265937161699329	12	jack	Yes, we’re launching a universal basic income pilot thanks to @jack and @mayorsforagi . We are one of the 15 pilot cities and I couldn’t be more excited. A big step forward. UBI is coming to Long Beach. 	en	1822	100	436	RobertGarciaLB	2020-07-09T16:36:18.000Z	4,508	4,769,963				
1281316489304268800	12	jack	What a honor to have a conversation about justice and the legacy of Dr. King with civil rights leader @BerniceKing . We have such much work to do, and a guaranteed income is a great start. @mayorsforagi 	en	197	14	47	MichaelDTubbs	2020-07-09T19:57:11.000Z	4,508	4,769,963				
1281282107956813825	12	jack	$3M to @MichaelDTubbs and @mayorsforagi for #guaranteedincome programs in cities across the country. This is one tool to close the wealth and income gap, level systemic race and gender inequalities, and create economic security for families. #UBI 	en	2926	356	800		2020-07-09T17:40:34.000Z	4,508	4,769,963				
1280626828122578945	12	jack	((Flag of Barbados)) ((Mobile phone with rightwards arrow at left)) 	und	1100	161	187		2020-07-07T22:16:43.000Z	4,508	4,769,963				
1279575273365594112	12	jack	We must now realize the promise of America by trusting God, unifying our vision and building our future. I am running for president of the United States ((Flag of United States)) ! #2020VISION 	en	1212785	113690	514985	kanyewest	2020-07-05T00:38:13.000Z	4,508	4,769,963				
1278489950456086528	12	jack	Maya Moore gave up her 2019 WNBA season to help Jonathan Irons overturn his conviction on charges of burglary and assault. Today, he was freed from prison. (via @mooremaya ) 	en	49258	495	13205	espn	2020-07-02T00:45:32.000Z	4,508	4,769,963		blob:https://twitter.com/e07f5774-43bb-4574-b141-2448cb602286	https://pbs.twimg.com/media/Eb4b1OIXQAAjNly.png	
1278496202376560640	12	jack	What time is it? Showtime! Join the original Broadway cast of as we host a Twitter watch party this Friday, July 3rd at 7 PM ET / 4 PM PT. Who's in? ((👇🏾)) Tweet along using . 	en	29920	639	5386	HamiltonMusical	2020-07-02T01:10:22.000Z	4,508	4,769,963				https://pbs.twimg.com/media/Eb4hK4GWsAIRDQQ?format=jpg&amp;name=360x360
1278090355561443330	12	jack	Kentucky, I am so proud of you. I truly hope I made you proud of me too. It is my honor to stand on the front line for you. We didn’t win at the ballot box, but what we have done is undeniable. I am humbled. I am grateful. From the hood to the holler, I love you. My statement. 	en	133136	3700	13312	Booker4KY	2020-06-30T22:17:41.000Z	4,508	4,769,963				https://pbs.twimg.com/media/EbywZoTXYAA8P6A?format=jpg&amp;name=240x240 https://pbs.twimg.com/media/EbywZoUX0AYjltQ?format=jpg&amp;name=240x240 https://pbs.twimg.com/media/EbywZoUXYAIVxZj?format=jpg&amp;name=240x240
1278048540883922944	12	jack	Positive cases are not increasing just because there is more testing, as the president has claimed, but because in many states the virus is simply spreading more. 	en	743	59	338	propublica	2020-06-30T19:31:31.000Z	4,508	4,769,963				
1277931677487116288	12	jack	Netflix will shift $100 million of cash into Black-owned banks, making it the largest company yet to pledge cash to historically underfunded financial institutions 	en	3327	109	1868	business	2020-06-30T11:47:09.000Z	4,508	4,769,963				
1277783532182671361	12	jack	As a US business (and tech) community, I think we should be significantly clearer about our horror at, and opposition to, the atrocities being committed by the Chinese government against its own people. 	en	11259	325	3083	patrickc	2020-06-30T01:58:28.000Z	4,508	4,769,963				
1277776537715118080	12	jack	Wow. A universal basic income (guaranteed annual income) was what my father recommended as a primary way to eradicate poverty. This is a powerful step forward. #MLK @MichaelDTubbs @AndrewYang 	en	17562	452	3943	BerniceKing	2020-06-30T01:30:41.000Z	4,508	4,769,963		blob:https://twitter.com/9b94b1bb-5006-4736-8a83-b9587e1e8b27	https://pbs.twimg.com/ext_tw_video_thumb/1277776499672854530/pu/img/O-YnS7NvuGYTppUM.jpg	
1277775335912701952	12	jack	This moment is calling us to be bold and people centered with policy solution. That’s why we launched Mayors for a guaranteed income today @mayorsforagi . Join at http://mayorsforagi.org 	en	561	31	177	MichaelDTubbs	2020-06-30T01:25:54.000Z	4,508	4,769,963				
1276661483561029632	12	jack	In the last few weeks, you may have seen Tweets with labels linking to additional info about COVID-19. Not all of those Tweets had potentially misleading content associating COVID-19 and 5G. We apologize for any confusion and we're working to improve our labeling process. (1/4) 	en	1529	784	420	TwitterSupport	2020-06-26T23:39:51.000Z	4,508	4,769,963				
1276590684720566272	12	jack	What starts with younger adults doesn't stay with younger adults. Parents, grandparents, other relatives, neighbors, coworkers, etc. Places with increasing positivity need to increase distancing &amp; work toward universal 3 W's: Wear a mask, Wash your hands, Watch your distance. 	en	804	37	273	DrTomFrieden	2020-06-26T18:58:31.000Z	4,508	4,769,963				
1276582187513663493	12	jack	This is news: Zuckerberg just announced Facebook will follow Twitter in putting warning labels on posts by public figures that violate its rules but are deemed "newsworthy" enough to remain on the platform. 	en	1214	110	546	WillOremus	2020-06-26T18:24:45.000Z	4,508	4,769,963				
1276499885450297344	12	jack	Maybe because every protester I saw was wearing a mask, and masks work 	en	9924	243	2752	CharlotteAlter	2020-06-26T12:57:43.000Z	4,508	4,769,963				
1275877403743662082	12	jack	We founded Square Crypto with plans to hire a unicorn designer who could help us foster a bitcoin design community. Only 15 months later, we had a better idea: What if we helped foster a bitcoin design community that is itself a kind of super unicorn? 	en	745	50	219	sqcrypto	2020-06-24T19:44:12.000Z	4,508	4,769,963				
1276211592422666248	12	jack	#Inequality in #America was not born of the market’s invisible hand. It was not some unavoidable destiny. It was created by the hands &amp; sustained effort of people who engineered benefits for themselves, to the detriment of everyone else. 	en	618	43	269	darrenwalker	2020-06-25T17:52:09.000Z	4,508	4,769,963				
1275540165922963457	12	jack	WAYS YOU CAN HELP #BREONNATAYLOR !!!!! ((👉🏾)) ((👇🏾)) 	en	5789	30	5649	sza	2020-06-23T21:24:08.000Z	4,508	4,769,963				https://pbs.twimg.com/media/EbOhA-tUMAANRIv?format=jpg&amp;name=240x240 https://pbs.twimg.com/media/EbOhA-sUYAABrPB?format=jpg&amp;name=240x240
1275834551219167234	12	jack	Music has the power to change the world. We’re partnering with @CashApp over the next 25 days to give away a total of $100K. We’re choosing 25 artists who are using their music to fight against injustice. Submit your track via the UnitedMasters app here: https://untd.io/t/uaexij 	en	294	48	117	unitedmasters	2020-06-24T16:53:55.000Z	4,508	4,769,963		blob:https://twitter.com/72237a45-5f20-426b-8b83-9c84a0aa3ac6	https://pbs.twimg.com/ext_tw_video_thumb/1275834015518470144/pu/img/En-HucfdAOEMiBV0.jpg	
1275572178470072322	12	jack	Incredible work happening right now in Kentucky. Dem candidate Charles Booker filed an injunction to extend the voting time in Jefferson County. The judge granted the extension and doors are now open. #AllEyesOnKentucky @BlackVotersMtr 	en	52898	381	11549	ava	2020-06-23T23:31:20.000Z	4,508	4,769,963				
1275508864801218560	12	jack	Thanks to a generous donation from @ShawnCarterSF and #startsmall , every household at Marcy, Sumner, and Tompkins Houses received a supermarket gift card to assist in purchasing the food they need. Thanks for helping @NYCHA families during these uncertain times. 	en	739	35	360	NYCHA	2020-06-23T19:19:45.000Z	4,508	4,769,963				https://pbs.twimg.com/media/EbOEjIuXkAAG4H0?format=jpg&amp;name=240x240 https://pbs.twimg.com/media/EbOEjLnXQAEB1n9?format=jpg&amp;name=240x240 https://pbs.twimg.com/media/EbOEjMyWsAow2Qg?format=jpg&amp;name=240x240
1275510451430883339	12	jack	Today, we’re rolling out this new feature in the US to assist victims of domestic and gender-based violence, particularly important during #COVID19 . 	en	353	78	105	moniqueMeche	2020-06-23T19:26:04.000Z	4,508	4,769,963				
1292169351684976640	13	biz	Many pro investors have likely lost more money selling winners too early than backing failures. 	en	151	15	33		2020-08-08T18:42:35.000Z	1,588	2,743,304				
1292167011322101760	13	biz	The interactive recordings are a new kind of digital artifact—super innovative. And, YouTuber’s, have you used @mmhmmapp and tried co-pilot feature? 	en	22	3	8		2020-08-08T18:33:17.000Z	1,588	2,743,304				
1291824470257094656	13	biz	Awesome new stuff from @mmhmmapp ! 	en	38	3	9		2020-08-07T19:52:09.000Z	1,588	2,743,304				
1290674114068267013	13	biz	I love this startup. VC’s, you should take a look! 	en	116	8	28		2020-08-04T15:41:03.000Z	1,588	2,743,304				
1289591310249123841	13	biz	“Universal Pictures has agreed to invest $200 million in the 1st scripted movie to be shot in space. The studio made the commitment after a Zoom meeting with actor Tom Cruise.” Is this a good idea? 	en	328	93	75		2020-08-01T15:58:22.000Z	1,588	2,743,304				
1288991867854417920	13	biz	AI Foundation | Why do 7 Billion People Need Their Own AI? 	en	44	11	23		2020-07-31T00:16:24.000Z	1,588	2,743,304				
1288959111997030403	13	biz	"Other major tech firms have extended their home-working plans... but Twitter has gone the furthest in embracing remote working." Twitter CHRO @jenchristiehr shares how managers are key to remote working and how companies can support them. 	en	37	5	12	TwitterComms	2020-07-30T22:06:14.000Z	1,588	2,743,304				
1288143544335491073	13	biz	Proud EP of this film. 	en	50	4	23		2020-07-28T16:05:28.000Z	1,588	2,743,304				
1287806783147274240	13	biz	Hello Mr. @Benioff . My name is Vivienne. I’m 16. I’m the CEO of @laudatotree , a youth movement to plant 7 million trees along the @GreenWallAfrica in one year. Pope Francis endorsed our initiative and we are now part of the Jubillee Year of Laudato Si’. Can we join forces? ((🌳)) ((♥️)) 	en	57	6	21	vivienneharr	2020-07-27T17:47:18.000Z	1,588	2,743,304				https://pbs.twimg.com/media/Ed81cVLVAAAssFq?format=jpg&amp;name=360x360
1287478323417878528	13	biz	((📽️)) Check out the #Trailer for #TheGreatGreenWall : http://youtu.be/I8Vp1DXzVGw ((📽️)) North American theatrical release *JULY 30* @HotDocsCinema w/ @BlueIceDocs Streaming TIX ((🍿)) : http://tinyurl.com/yxm22kx2 to support indie-film theaters ((🌳)) @Innamodja @GreenWallAfrica @fmei7777 @biz @VIMOOZ ((🌳)) 	en	17	3	10	jaredpscott	2020-07-26T20:02:07.000Z	1,588	2,743,304				
1285692287528439809	13	biz	My AI talking about humor. Get ready to be weirded out! 	en	102	29	35		2020-07-21T21:45:03.000Z	1,588	2,743,304				
1285513324159840257	13	biz	Hope everyone can please watch our very important film In The Cold Dark Night -- it's getting incredible feedback! #TimothyCoggins #GoneButNotForgotten Thank you: @TerriLichstein @mepeltz @WesleyLowery @biz @GregYaitanes @danielpeltz and many others! https://abc.com/shows/2020/episode-guide/2020-07/17-in-the-cold-dark-night 	en	8	4	4	morsels	2020-07-21T09:53:54.000Z	1,588	2,743,304				
1285248320407916544	13	biz	Try it out! 	en	19	10	9		2020-07-20T16:20:53.000Z	1,588	2,743,304				
1284947994748391424	13	biz	Thanks to everyone who watched. It’s tough but needs to be seen. 	en	44	5	10		2020-07-19T20:27:29.000Z	1,588	2,743,304				
1283107347749941248	13	biz	OMG the controller! I love this app. Thanks @plibin . 	en	31	6	10		2020-07-14T18:33:25.000Z	1,588	2,743,304				
1282026321217040386	13	biz	It’s tough to watch but worth it. 	en	48	6	13		2020-07-11T18:57:48.000Z	1,588	2,743,304				
1281670250149404678	13	biz	Supreme Court Rules That About Half Of Oklahoma Is Native American Land! 	en	64	8	23		2020-07-10T19:22:54.000Z	1,588	2,743,304				
1281614660215734279	13	biz	Congratulations, Joyeeta! Founder Feature: Joyeeta Das, CEO And Co-founder of Gyana 	en	28	6	12		2020-07-10T15:42:00.000Z	1,588	2,743,304				
1281088957141389313	13	biz	This is powerful and important. https://www.instagram.com/tv/B_CZZRDA-ZX/ 	en	62	13	19		2020-07-09T04:53:03.000Z	1,588	2,743,304				
1280590900498960385	13	biz	No longer a secret—Phil’s new project was revealed today! 	en	192	15	40		2020-07-07T19:53:57.000Z	1,588	2,743,304				
1278394192796868610	13	biz	I love this photo from a few years back. It was my birthday and I was teaching Jake how to draw. (Now he’s way more into coding.) 	en	359	31	19		2020-07-01T18:25:01.000Z	1,588	2,743,304				https://pbs.twimg.com/media/Eb3EvYWVcAAa4X6?format=jpg&amp;name=360x360
1278349460595081217	13	biz	This is a horrifying sentence. 	en	119	22	27		2020-07-01T15:27:16.000Z	1,588	2,743,304				https://pbs.twimg.com/media/Eb2cDu0UYAAVpHl?format=jpg&amp;name=360x360
1277993307688144896	13	biz	Congratulations to this year's #Lead2030 Challenge Winners! We applaud you for the impact you're having and will continue to have on the #SDGs . 	en	30	8	14		2020-06-30T15:52:03.000Z	1,588	2,743,304				
1277984295802429449	13	biz	RIP #CarlReiner I always loved your work. 	en	97	6	18		2020-06-30T15:16:14.000Z	1,588	2,743,304				https://pbs.twimg.com/media/EbxP8YWUcAAie1U?format=jpg&amp;name=360x360
1277326611184939009	13	biz	When I worked at Google in 2003, search results were sacrosanct. Now, they just barely make it above the fold because of all the ads. (And yes, I’m researching solar roofs!) 	en	628	72	123		2020-06-28T19:42:50.000Z	1,588	2,743,304				https://pbs.twimg.com/media/Ebn5x_kUMAASBd1?format=jpg&amp;name=360x360
1277315113058369536	13	biz	Congratulations @KroganLab for your success so far and this new study. Keep up the good work! 	en	24	4	7		2020-06-28T18:57:08.000Z	1,588	2,743,304				
1276607125167337472	13	biz	Congratulations Don and team! 	en	36	5	8		2020-06-26T20:03:51.000Z	1,588	2,743,304				
1275441969682984960	13	biz	. @bsw5020 was told he had a few years to live. In just 2 yrs he built a foundation, helped increase ALS research by $35m &amp; helped pass 2 bills fighting for a cure in Congress. This is his story. Let's get him the support he needs to help others with ALS. 	en	250	12	60	RonConway	2020-06-23T14:53:56.000Z	1,588	2,743,304				
1274852507550748672	13	biz	Happy Fathers Day! 	en	45	5	8		2020-06-21T23:51:38.000Z	1,588	2,743,304				
1274407777801138176	13	biz	Congratulations @Malala ! 	en	156	6	12		2020-06-20T18:24:26.000Z	1,588	2,743,304				
1274373220817186816	13	biz	The change conveys “an essential and shared sense of history, identity and community among people who identify as Black, including those in the African diaspora and within Africa,” ... “The lowercase black is a color, not a person.” 	en	28	5	8		2020-06-20T16:07:07.000Z	1,588	2,743,304				
1274135021821911041	13	biz	Beautifully articulated and written by my friend @b_anandana . 	en	31	2	16		2020-06-20T00:20:36.000Z	1,588	2,743,304				
1273693411845869568	13	biz	Congratulations, @eoghan on your new role. I'm proud to have been an angel ten years ago when this empire you built was just a pitch. (A good one!) 	en	43	3	4		2020-06-18T19:05:48.000Z	1,588	2,743,304				
1273640280319614976	13	biz	What the Supreme Court did today was support the best of American values: fairness, justice, and hope. The Dreamers belong in this country, the only home they've ever known. We can be inspired by their stories and build an immigration system that reflects our highest ideals. 	en	11817	185	1790	laurenepowell	2020-06-18T15:34:40.000Z	1,588	2,743,304				
1273650817468231680	13	biz	Welcome to Medium, ⁦ @Kaepernick7 ⁩. Looking forward to working with you. 	en	552	17	55		2020-06-18T16:16:32.000Z	1,588	2,743,304				
1273311638070767616	13	biz	((🗣)) ((🗣)) ((🗣)) 	und	7275	977	1936	jack	2020-06-17T17:48:46.000Z	1,588	2,743,304				
1273408471229018112	13	biz	Just dropped in on the @TwitterAU Tea Time. An upside of the virtual work is doing stuff like that. 	en	75	9	8		2020-06-18T00:13:32.000Z	1,588	2,743,304				
1272652168567242752	13	biz	Wow, this HEY email looks amazing. I've been dreaming of a recipient-driven email for years! Great work Basecamp. 	en	93	9	10		2020-06-15T22:08:16.000Z	1,588	2,743,304				
1271973770828214272	13	biz	Are outside classes being considered for California schools in September? The two day a week thing doesn’t seem great. 	en	102	14	11		2020-06-14T01:12:33.000Z	1,588	2,743,304				
1271971361888456704	13	biz	Bob Marley, Live at the Rainbow 	en	2206	215	434	jack	2020-06-14T01:02:59.000Z	1,588	2,743,304				
1271968242228015104	13	biz	I wonder if @espn considered airing live “Madden” gamers while the NFL is shutdown (and other sports video games) with real commentators and pro gamers? I’ll bet folks would watch. 	en	71	21	13		2020-06-14T00:50:35.000Z	1,588	2,743,304				
1271464912405979138	13	biz	This stuff really is from the future. I hadn’t realized how far along we were until I met @Lars_Buttler . 	en	71	8	18		2020-06-12T15:30:32.000Z	1,588	2,743,304				
1269077097294688256	13	biz	Not true and not illegal. This was pulled because we got a DMCA complaint from copyright holder. 	en	334380	9096	74362	jack	2020-06-06T01:22:12.000Z	1,588	2,743,304				
1269075983165878273	13	biz	This is awesome ⁦ @MayorBowser ⁩! 	en	1576	33	503		2020-06-06T01:17:47.000Z	1,588	2,743,304				https://pbs.twimg.com/media/EZyp3HfUYAErqvN?format=jpg&amp;name=240x240 https://pbs.twimg.com/media/EZyp38zUEAAFuWh?format=jpg&amp;name=360x360
1268966770582249473	13	biz	Dropping in Twitter Toronoto Tea Time 	en	101	15	7		2020-06-05T18:03:49.000Z	1,588	2,743,304				
1268571623084310528	13	biz	Congratulations to the winners and keep up the great work. 	en	41	5	14		2020-06-04T15:53:38.000Z	1,588	2,743,304				
1268279294121238528	13	biz	If you can, please join me in donating to Color of Change. They design campaigns powerful enough to end practices that unfairly hold Black people back, and champion solutions that move us all forward. https://colorofchange.org 	en	47	9	23		2020-06-03T20:32:01.000Z	1,588	2,743,304				
1268278320329711617	13	biz	My friends at Krogan Labs and Zoic Studios have made great strides in helping the scientific community work faster on COVID-19. 	en	31	7	15		2020-06-03T20:28:09.000Z	1,588	2,743,304				
1266816751553015809	13	biz	Congratulations @SpaceX and @NASA for an historic success. 	en	876	20	111		2020-05-30T19:40:24.000Z	1,588	2,743,304				
1264944599384174596	13	biz	It's Memorial Day in the U.S., and in honor of those who have fallen, with service, sacrifice, and bravery—we remember you. Share how you remember and respect those who have fallen. #MemorialDay 	en	78	4	29	TwitterStripes	2020-05-25T15:41:08.000Z	1,588	2,743,304				
1264340789032697856	13	biz	I support @turtletweets for #WorldTurtleDay in the fight to protect wild land, wildlife, and our climate—and to conserve some of the world’s most endangered and spectacular species: turtles! ((🐢)) 	en	303	24	47		2020-05-23T23:41:49.000Z	1,588	2,743,304				https://pbs.twimg.com/media/EYvXJbnUwAAJcc4?format=jpg&amp;name=360x360
1264222311177060353	13	biz	Never would have thought this would happen. 	en	93	9	15		2020-05-23T15:51:01.000Z	1,588	2,743,304				
1264206154294390785	13	biz	Well done ⁦ @RoyaMahboob ⁩ and the Afghan Dreamers! 	en	45	4	13		2020-05-23T14:46:49.000Z	1,588	2,743,304				
1264005252216311808	13	biz	A great profile of a great man. 	en	55	4	10		2020-05-23T01:28:30.000Z	1,588	2,743,304				
1263967263847149569	13	biz	Medium is hiring. Are you a product person or a data scientist? We want you! Director of Product https://jobs.lever.co/medium/b4730b32-85fd-4ea8-8026-53e43680e145 Head of Data Science 	en	109	13	36		2020-05-22T22:57:33.000Z	1,588	2,743,304				
1263124405363683328	13	biz	Thank you, journalists! Your work is important. 	en	127	18	32		2020-05-20T15:08:20.000Z	1,588	2,743,304				
1258168682041143296	13	biz	There is a shortage of perfect quotes in this world... 	en	7203	25	2240	PrincessB_PBL	2020-05-06T22:56:04.000Z	1,588	2,743,304				https://pbs.twimg.com/media/EXXpjt0U4AAFKmR?format=jpg&amp;name=360x360
1258878069621719040	13	biz	This is how we do volunteer work now. 	en	81	10	16		2020-05-08T21:54:55.000Z	1,588	2,743,304				
1258873699614121985	13	biz			47	3	22		2020-05-08T21:37:33.000Z	1,588	2,743,304				
1258547061605036032	13	biz	Tomorrow is one of my favorite times of the year—Twitter for Good Day. Last time we had 4,500 volunteers. This time we’re going for 100% participation and 100% remote. 	en	260	20	56		2020-05-07T23:59:36.000Z	1,588	2,743,304				https://pbs.twimg.com/media/EXdByoJUMAAD_Ss?format=jpg&amp;name=360x360
1258137792091049984	13	biz	My friend @reidhoffman 's podcast @mastersofscale is up for a Webby. I love it—here’s where you can vote for it. Best Business Podcast: http://wbby.co/pod09 	en	22	4	4		2020-05-06T20:53:19.000Z	1,588	2,743,304				
1258061685220274179	13	biz	via @NYTimes 	und	75	5	16		2020-05-06T15:50:54.000Z	1,588	2,743,304				
1257429090317021186	13	biz	Congratulations to the Oxwash team on closing their round. They're doing great work right now. 	en	53	10	12		2020-05-04T21:57:11.000Z	1,588	2,743,304				
1257073814317330433	13	biz	I'm so proud of Nevan and his team for this groundbreaking work! 	en	61	8	11		2020-05-03T22:25:27.000Z	1,588	2,743,304				
1256987372232650753	13	biz	A day in the life of the incomparable Ethan Brown. 	en	30	3	7		2020-05-03T16:41:57.000Z	1,588	2,743,304				
1256282371587928069	13	biz	Nature just published QCRG’s groundbreaking study led by Nevan Krogan, Director of UCSF’s Quantitative Biosciences Institute. https://www.nature.com/articles/s41586-020-2286-9 	en	28	3	5		2020-05-01T18:00:32.000Z	1,588	2,743,304				
1255242607325859843	13	biz	“The US already has the technology to test millions of people a day” 	en	58	12	30		2020-04-28T21:08:53.000Z	1,588	2,743,304				
1254181182830338048	13	biz	A great example of how empathy builds trust. 	en	342	9	114		2020-04-25T22:51:10.000Z	1,588	2,743,304				
1254028908351102976	13	biz	Foundry Advisor and Co-founder of @twitter and @jelly , @biz , will be a judge for 'Inclusive Social Engagement and Mobility', in our Rapid Solutions Builder. Apply now! Four solutions will receive £10k each, plus support from our expert mentors and judges. https://www.oxfordfoundry.ox.ac.uk/oxfo-covid-19-action-plan 	en	30	4	15	oxfoundry	2020-04-25T12:46:05.000Z	1,588	2,743,304				https://pbs.twimg.com/media/EWc0pLnXYAAzl4h?format=jpg&amp;name=360x360
1253829463466405888	13	biz	“We can't help eveyone, but everyone can help someone.” #withjack 	en	151	19	45		2020-04-24T23:33:33.000Z	1,588	2,743,304				
1253116724087410689	13	biz	A great way to celebrate is to highlight @LittleMissFlint . 	en	153	2	42		2020-04-23T00:21:23.000Z	1,588	2,743,304				
1252996907602862082	13	biz	Hey, @taylordelo this is what I'd be doing if we were in the office. These are for you! Thanks for all you do. 	en	57	6	6		2020-04-22T16:25:16.000Z	1,588	2,743,304				https://pbs.twimg.com/media/EWOJxi_U4AM4d51?format=png&amp;name=360x360
1252328679067140097	13	biz	This week the OXFO COVID-19 Action Plan officially kicks off. Special thanks to @b_anandana , Director of @Oxfoundry . 	en	43	3	18		2020-04-20T20:09:58.000Z	1,588	2,743,304				
1252255190515888128	13	biz	It’s an Aerogarden. 	en	31	4	2		2020-04-20T15:17:57.000Z	1,588	2,743,304				
1252042986403139584	13	biz	These indoor hydroponic lettuce growing machines are providing us with prodigious amounts of fresh greens every day. 	en	453	26	45		2020-04-20T01:14:44.000Z	1,588	2,743,304				https://pbs.twimg.com/media/EWAmdQ5UcAEJp4s?format=jpg&amp;name=360x360
1251655556080623616	13	biz	Airbnb is going to emerge even stronger in what will be a different travel landscape because of @bchesky 's leadership. 	en	70	6	17	RonConway	2020-04-18T23:35:13.000Z	1,588	2,743,304				
1251243304458416128	13	biz	Is your kid 6-12 and learning English? While we’re stuck at home, Little Bridge is a fun, interactive, and safe way for kids to learn English. 	en	55	2	29		2020-04-17T20:17:05.000Z	1,588	2,743,304				
1251238260006768640	13	biz	So happy to be part of this important project to #KeepKidsLearning . @DonorsChoose is the best! 	en	60	7	18		2020-04-17T19:57:02.000Z	1,588	2,743,304				
1250912392575238144	13	biz	We can all—individually and collectively—respond to the challenges that society is facing at this moment. I’m proud to be involved with OXFO’s two-part action plan to accelerate entrepreneurial solutions to the problems caused by the COVID-19 pandemic. 	en	65	9	14		2020-04-16T22:22:09.000Z	1,588	2,743,304				
1250197676827668480	13	biz	Here's a fun app—activate both video cameras in your iPhone at the same time. You can video yourself talking about whatever you are taking a video of with the front facing camera. 	en	81	14	26		2020-04-14T23:02:08.000Z	1,588	2,743,304				
378675940261261312	14	noah	I wish the twitter team the best of luck and trust that they will be successful in continuing to develop this important communication tool. 	en	1795	296	830		2013-09-14T00:25:54.000Z	131	42,358				
322174032365629441	14	noah	Today at 4 days old Océane touched the wind for the first time. Held her tiny fingers up and touched it. 	en	288	29	59		2013-04-11T02:27:29.000Z	131	42,358				
320657033986727936	14	noah	afternoon @ 12:58pm. 	en	135	11	34		2013-04-06T21:59:29.000Z	131	42,358				
320657025539375106	14	noah	Cheeks stained with glorious tears of joy and absolute humility I celebrate the birth of my daughter Oceane Donnie Marie-Louise Poncin G ... 	en	233	23	32		2013-04-06T21:59:27.000Z	131	42,358				
58686168044281856	14	noah	Delphine read the article aloud as I drove up hwy 1. Quite a welcome home! 	en	85	48	46		2011-04-15T00:20:47.000Z	131	42,358				
49981552117030912	14	noah	putting life into cardboard. moving back to San Francisco. back to life. 	en	96	5	37		2011-03-21T23:51:45.000Z	131	42,358				
16736853763	14	noah	In alaska for the longest day of the year with Delphine and eWee. Seaplanes. Sunshine. 	en	50	4	15		2010-06-22T01:36:56.000Z	131	42,358				
12838363638	14	noah	Under a cool shaded arched overpass in downtown LA meets a rebel core of urban beekeepers 	en	43	0	12		2010-04-25T19:27:54.000Z	131	42,358				
10997806565	14	noah	Tickets to Coachella 2010: Bought! So ready to wander the Polo Fields. Warm summer nights and Date Palms... 	en	37	0	11		2010-03-24T20:55:40.000Z	131	42,358				
10644968257	14	noah	Reading a patent from 1928. lots of math and diagrams for something that never existed... 	en	59	2	22		2010-03-17T23:47:04.000Z	131	42,358				
10584139182	14	noah	time measured by hair growth and daylight savings seems to result in too much hair, a bit too late... 	en	39	2	14		2010-03-16T19:35:40.000Z	131	42,358				
9168537671	14	noah	back in the lab with room to move. excited to see if it will work... 	en	27	3	5		2010-02-16T03:25:48.000Z	131	42,358				
7237316271	14	noah	Snowboarding the French alps. Jagged albino teeth thick with Italians 	en	28	1	9		2009-12-31T15:36:58.000Z	131	42,358				
6814223722	14	noah	Even wasted days deserve one of these dusty Malibu Barbie sunsets. A happy walk with dog and I. 	en	26	0	4		2009-12-19T00:51:50.000Z	131	42,358				
5922706695	14	noah	Early light on the Malibu bluffs makes me forget the peloton ahead. Maybe I never gave this place a chance. 	en	20	0	5		2009-11-21T17:00:17.000Z	131	42,358				
4928913394	14	noah	I've got a vice...just cant seem to find it among the piles of expanding detritus. collector of potential. flooded with someday maybe 	en	32	0	6		2009-10-16T23:13:38.000Z	131	42,358				
4732400481	14	noah	Is anyone else seeing that giant froglike alien head on the moons surface in the NASA feed? But where were the fireworks and laser beams ... 	en	22	1	1		2009-10-09T11:45:48.000Z	131	42,358				
4729227161	14	noah	Curious and excited about the explosion on the moon just 4 hours away. Speaking SiFy, bombing the moon only happens to save earth from s ... 	en	22	1	2		2009-10-09T07:11:43.000Z	131	42,358				
4640122439	14	noah	#eQuator cafe, the first So-Cal #Bluebottle location. Decaf Mocha, extra hot. Double walled Mubod glass...and life is tilted toward bliss. 	en	19	1	1		2009-10-05T22:57:03.000Z	131	42,358				
4617329440	14	noah	a fierce, crazy wind blows chaos into beach camp and all who call it home. salt stings squinty eyes. bits and pieces are strewn about. 	en	22	0	4		2009-10-05T01:36:24.000Z	131	42,358				
4119972524	14	noah	Against the hollywood hills in silhouette the Gipsy Kings fill the open air above the Greek. I recognize every song I've never heard b4 ... 	en	16	1	1		2009-09-20T07:21:31.000Z	131	42,358				
4119972522	14	noah	ound like French summer. 	en	12	1	2		2009-09-20T07:21:31.000Z	131	42,358				
3881145051	14	noah	fireworks blast over Santa Monica scattering sparks into blackness. Wishing u were here for a kiss. 	en	15	0	1		2009-09-10T04:44:42.000Z	131	42,358				
3599227170	14	noah	today my prototype danced for me. perfect pirouettes. beautiful? no. encouraging? so very much. 	en	22	0	2		2009-08-28T08:52:22.000Z	131	42,358				
3324787395	14	noah	If Kafka gave birth atop the trade center towers on 911 and raised the child in an alien prision camp: District 9. Kinda, but not. 	en	13	1	2		2009-08-15T07:09:23.000Z	131	42,358				
2565181889	14	noah	Resting in half light below the grand pyramid at the Louvre. Coffee, ink, voices in echo 	en	18	0	0		2009-07-10T08:06:35.000Z	131	42,358				
2536826258	14	noah	Turns out you can renew your passport and pick it up the same day. Good thing. Going to France tonight. 	en	13	0	0		2009-07-08T18:48:25.000Z	131	42,358				
2428058891	14	noah	It's all gun show in my freshly modded wetsuit for the 80 deg waters. leaving "Beach Camp" to test my rubber tailoring. 	en	10	0	0		2009-07-01T23:23:04.000Z	131	42,358				
2234016471	14	noah	Out past the crumbling sidewalk of Electric avenue, past the beautiful people and traffic, I swam a perfect mile in bumpy seas. Salty joy. 	en	16	1	0		2009-06-19T05:16:56.000Z	131	42,358				
2012695999	14	noah	Apparently subject to the inversion layer. Today on the better end, yet still a non-believer in zero-sum 	en	13	1	0		2009-06-03T04:07:00.000Z	131	42,358				
1878318885	14	noah	A broken lock is no match the 6000 lbs of magnetic force at my command. Locked out of the cloud. Stranded on Sutter. 	en	10	0	0		2009-05-22T02:53:39.000Z	131	42,358				
1863393724	14	noah	In my brief away, the starchy wet breath of SF has turned to sunshine kisses. Make love to my face u evil beotch, our time is short 	en	16	1	0		2009-05-20T20:50:23.000Z	131	42,358				
1845927018	14	noah	1 mile from Dawn road. Everything I left behind is in front of me now and all I've moved towards is scattered about 	en	13	0	1		2009-05-19T10:27:04.000Z	131	42,358				
1697537205	14	noah	With the tent billowing on the rooftop deck of our place on Rose, "Beach Camp" settles as a perfect name. 	en	7	0	0		2009-05-04T17:25:44.000Z	131	42,358				
1568005809	14	noah	..open arms await just 174 miles away... 	en	10	1	1		2009-04-20T19:12:52.000Z	131	42,358				
1567978127	14	noah	The flock of bees splatter the windshield like fat raindrops...only way gross-er. Sparkling field. Car on fire. 	en	10	0	2		2009-04-20T19:09:20.000Z	131	42,358				
1551907112	14	noah	Watching him on TV, I wondered how I became so invisible, so absent mise-en-scene. No fingerprints at all. 	en	31	4	6		2009-04-18T17:16:56.000Z	131	42,358				
1539281043	14	noah	My inner dirthead child limps a smile at the black grease jammed under my fingernails. I'll testify to the joys of hydraulics 	en	11	0	2		2009-04-17T03:30:57.000Z	131	42,358				
1513711531	14	noah	Riding this blue steel dog Down thru the atmosphere. Smoke and soot of twilight overcome by smell of orange blossoms in full action. 	en	13	0	2		2009-04-14T02:14:58.000Z	131	42,358				
1455281562	14	noah	Driving this blue steel dog, pregnant and lumbering. Bumping Justice. Burning biodiesel. My style is drunken whale. 	en	17	0	3		2009-04-05T03:48:26.000Z	131	42,358				
1443903018	14	noah	heavyness like extra gravity slows my agile moves.shadow boxing toward escape velocity in a city of gum. 	en	15	0	1		2009-04-03T07:00:27.000Z	131	42,358				
1422661056	14	noah	wondering just how far this moment is from dreams I've had. it all feels vaguely familiar yet completely foreign. resisting tears. so tired 	en	16	0	2		2009-03-31T05:13:39.000Z	131	42,358				
1404444381	14	noah	Ha! I just bought a giant semi truck. Tring to figure out how to drive the fucker. Got a place in Venice beach. Moving this weekend:-) 	en	20	1	2		2009-03-28T00:25:01.000Z	131	42,358				
1403968082	14	noah	After spitting the saddest story in the world,"an uphill struggle", scowled the sagging cabbie,"now run boy". And I did. 	en	14	0	1		2009-03-27T22:46:32.000Z	131	42,358				
1260842595	14	noah	Speeding past at 80mph, half smile and wonder if the roadsign actually blinked, "subject to decay" 	en	18	0	2		2009-02-28T02:59:44.000Z	131	42,358				
1255944215	14	noah	The long cool chiaroscuro of market St. makes me miss it before I've even left. of the un-gone am I 	en	12	0	0		2009-02-26T23:51:47.000Z	131	42,358				
1235975698	14	noah	Strolling the wide glossy corridor of the international terminal. So elegant rough secret spy. 	en	17	0	0		2009-02-22T02:05:49.000Z	131	42,358				
1221091204	14	noah	Buoys dot the bay's mercury sheen like godsized braille. I know there is a pattern... Just can't see it yet. 	en	14	0	1		2009-02-18T00:56:33.000Z	131	42,358				
1211217476	14	noah	A heart shaped vapor trail drifts like angel hair across the sky high above venice beach, the sunshine and my lover. 	en	12	0	0		2009-02-15T01:33:38.000Z	131	42,358				
1137537749	14	noah	Daylime on the perimeter is endless and without horizon. In any direction I could walk straight into nothingness. But on this train I'm ... 	en	9	0	0		2009-01-21T22:48:25.000Z	131	42,358				
1123145502	14	noah	In the cold darkened shadow of Mt. Shasta I saw a roadside exxon with a 30ft cross lit by Xmas light. Cult of gasoline. 	en	11	0	0		2009-01-16T06:54:52.000Z	131	42,358				
1121832618	14	noah	Waiting at a recon point in sacto for the RV rambling up I-5. Family headed to Portland for a funeral. Overland. 	en	16	0	0		2009-01-15T19:59:04.000Z	131	42,358				
1076101649	14	noah	Squinting hard against the pale Parisian sun. Sleep still a pounding illusion 	en	18	0	1		2008-12-24T11:19:06.000Z	131	42,358				
1075135357	14	noah	At the international terminal getting ready for a joyeux Noel. Next stop Lyon. 	en	6	0	0		2008-12-23T22:08:00.000Z	131	42,358				
1037119782	14	noah	The puppy face in macys window made my heart ache 	en	10	0	1		2008-12-03T23:18:33.000Z	131	42,358				
1034896789	14	noah	Situation bad, not meaning good 	en	7	1	1		2008-12-02T21:02:17.000Z	131	42,358				
1012097745	14	noah	A perfectly timed gust. A flicked switch. And all the snow flakes light up on market street. 	en	13	0	1		2008-11-19T01:01:39.000Z	131	42,358				
1004190858	14	noah	Giving 60 dictionaries to 60 highly energetic 2nd graders 	en	9	0	4		2008-11-13T17:55:58.000Z	131	42,358				
999821020	14	noah	Smoke filled Indian buffet. Brown babies babble with tablas. Too many chai refills 	en	12	0	1		2008-11-11T02:56:50.000Z	131	42,358				
983631700	14	noah	Wondering... Am I in costume? Cuz it might be the way I am all the time... 	en	10	0	3		2008-10-31T12:06:53.000Z	131	42,358				
979673344	14	noah	Obamas face as a kite lifts in light wind at civic center in front of San francisco city hall 	en	8	0	1		2008-10-28T22:56:15.000Z	131	42,358				
971300039	14	noah	Union square feels like somewhere else. Which is good cuz I wish I was somewhere else. 	en	8	0	0		2008-10-23T00:22:40.000Z	131	42,358				
957257780	14	noah	Angel island glowing Like a volcano spews smoke into still blackness above the bay 	en	4	0	1		2008-10-13T05:15:21.000Z	131	42,358				
957254381	14	noah	Alcataz or angel island is completely on fire looks like the end of world 	en	5	0	1		2008-10-13T05:09:43.000Z	131	42,358				
927915940	14	noah	Faded orange hair. Hand built gas powered machine. Introducing Bill Kennedy 	en	3	0	1		2008-09-20T00:19:47.000Z	131	42,358				
914119377	14	noah	U were in my dreams last night. Posing in dark glasses. All rockstar. 	en	11	1	1		2008-09-08T18:09:17.000Z	131	42,358				
912410505	14	noah	Chinatown alley. 7 spin and tangle with an invisible dragon. Practice makes the imaginary real. 	en	6	0	2		2008-09-07T02:32:23.000Z	131	42,358				
901170523	14	noah	Like transparent silk the first jellyfish I've ever seen in the bay undulates against the tide 	en	3	0	0		2008-08-28T01:39:58.000Z	131	42,358				
900019690	14	noah	After months away. Out at the end of this concete pier a sweet dusty peach sunset falls over my home city 	en	4	0	0		2008-08-27T02:19:02.000Z	131	42,358				
897039130	14	noah	A creepy green glow casts a cold light across the polo field sprawling in front of radiohead 	en	4	0	0		2008-08-24T03:49:00.000Z	131	42,358				
890527351	14	noah	Daydreaming on level 1 of the cloud. 	en	3	0	2		2008-08-17T22:56:10.000Z	131	42,358				
889688448	14	noah	Atop river rd over looking the delta recalling hijinks with the infamous pirates jack and rabble. 	en	3	0	0		2008-08-16T21:02:42.000Z	131	42,358				
889152160	14	noah	I've entered the land of dead dairy queens,tobacco smoke and enlpq 	en	3	0	0		2008-08-16T04:15:09.000Z	131	42,358				
889015952	14	noah	Just jumped in the steaming red zipcar. Off to the mysterious town of halt. 	en	3	0	1		2008-08-16T00:48:45.000Z	131	42,358				
887844061	14	noah	So much sunlight flooding union square. My atoms expand to absord it all. 	en	6	0	0		2008-08-14T21:48:17.000Z	131	42,358				
861197325	14	noah	Back and only slightly bruised from a catamaran incident in the south of france. Moments of clarity bathed in salty waters... 	en	3	0	0		2008-07-17T19:13:57.000Z	131	42,358				
844527094	14	noah	leaving for Paris in just a few short hours. 	en	4	0	1		2008-06-26T23:21:54.000Z	131	42,358				
827028151	14	noah	Overheard in the Tenderloin: "ever smoke a rock with an alien?...its weird dude." 	en	9	0	5		2008-06-04T18:14:23.000Z	131	42,358				
818891578	14	noah	has now paid his debt to Hypnos and feels like he's been smacked between the eyes by a brick. So much for afternoon naps. 	en	3	0	0		2008-05-24T09:37:43.000Z	131	42,358				
815344943	14	noah	visible music against the insect buzz and highway humm alongside the american river bubbling 'neath 100 degree heat. These sandals walk 	en	3	0	0		2008-05-20T00:03:15.000Z	131	42,358				
800996609	14	noah	Should i assume that your lack of contact means that u dont want to talk about things? 	en	6	1	1		2008-05-01T06:55:43.000Z	131	42,358				
797218333	14	noah	And them be chills felt by this crowd member under the sahara tent as mia walked onto stage with diplo. Arms and fists raised w/ devil h ... 	en	3	0	0		2008-04-26T03:00:40.000Z	131	42,358				
796402082	14	noah	The coachella air is soft cottony warm as the sun sinks behind the red rocky ridge behind me. 	en	6	0	0		2008-04-25T02:02:46.000Z	131	42,358				
786851131	14	noah	the first low end wave from my new ultimate ears crested goose bumps over wobbly ocean legs and up my spine. happiness resonates bass 	en	3	0	0		2008-04-11T01:17:25.000Z	131	42,358				
778977718	14	noah	One with zombie stare..The other holding a wet camel.. clearly amazed by the refection of lights off the rain soaked steets of the 'loin. 	en	5	0	0		2008-03-29T03:10:17.000Z	131	42,358				
774620624	14	noah	An electric fountain drips light in rockefeller plaza. Bright puff clouds hurry past in the cold March keyhole sky. Thinking about patte ... 	en	3	0	0		2008-03-20T20:42:19.000Z	131	42,358				
773101411	14	noah	Sprawlled in the backseat of a race car. The geometry of NYC negative space skyline spins overhead. Theres a madman at the wheel. 	en	6	0	1		2008-03-18T01:10:31.000Z	131	42,358				
772971322	14	noah	Taking a cab to queens to visit the grave of an honored man with a strange rabbi i met on the plane. 	en	6	0	0		2008-03-17T19:33:39.000Z	131	42,358				
772120304	14	noah	A game. Guess the city. I'm on the blue line to a river dyed green. Where am i? 	en	4	0	1		2008-03-15T22:40:37.000Z	131	42,358				
770495978	14	noah	Rumbling along in a super loose yellow cab. Cabbie blasting the NPR. 	en	4	0	0		2008-03-12T17:58:19.000Z	131	42,358				
767889456	14	noah	5 angry officers. bicycle handlebars akimbo. Biting tongue. Dim headlight. A moving violation. I didnt say thank you. 	en	5	0	0		2008-03-07T05:35:21.000Z	131	42,358				
767354910	14	noah	New migration pattern. New discovery. Into the urban wild... 	en	4	0	0		2008-03-06T03:19:32.000Z	131	42,358				
750025572	14	noah	Sinuous, slightly sinister dragons slither the soaked streets downtown. Rat year parade punctuated by cracking black cats and lady fingers 	en	4	0	0		2008-02-24T02:39:54.000Z	131	42,358				
740790472	14	noah	Wet sidewalk. Old Asian charlie chaplin. Cracked face paint. Mexican girl. Yellow umbrella. Walking. Powel &amp; Ofarrell. 	en	5	0	0		2008-02-21T20:27:01.000Z	131	42,358				
731735732	14	noah	Reading 'the diving bell and the butterfly'. Astounded at the end of each tiny chapter. 	en	6	0	0		2008-02-19T18:57:31.000Z	131	42,358				
709592282	14	noah	watching shapes migrate across a vast empty moonscape into the abyss of nothingness at the edge of my screen. I think..therefore they am? 	en	5	0	1		2008-02-14T01:04:31.000Z	131	42,358				
682629362	14	noah	No hi-fi. No HD can ever reproduce these melodies. These frequencies. Ricky lee jones straight to the ear drums. Me &amp; the 100 @ cafe du ... 	en	6	0	0		2008-02-06T05:54:38.000Z	131	42,358				
667292802	14	noah	note to self: if I already have a thing thats perfect, quit looking for a better one... 	en	22	2	11		2008-02-01T18:56:00.000Z	131	42,358				
607517672	14	noah	Suffering a slight case of post paradise depression. 	en	13	0	4		2008-01-17T01:18:23.000Z	131	42,358				
581567222	14	noah	From 1 world 2 another. Catching giant snowflakes on my tongue. Now Surrounded by white frozen water. Sans soleil. I am an exhausted ext ... 	en	6	0	0		2008-01-10T00:05:50.000Z	131	42,358				
1261767441496993792	15	crystal	Many things about quarantine aren’t great. Two positives: weekly Group FaceTime with my childhood BFFs, and being with my husband, guiding our baby into toddlerhood. Silver linings. 	en	14	4	3		2020-05-16T21:16:15.000Z	244	36,688				
1257876921192341504	15	crystal	Best of luck to @haleykoryn on her journey to the Air Force! Miss you, love you, rooting for you all the way! 	en	4	2	0		2020-05-06T03:36:42.000Z	244	36,688				
1183235244146810880	15	crystal	watching the original dark crystal with the fam while bro dyes haley's hair and dad snugs on phoebe. so nice. 	en	4	4	2		2019-10-13T04:17:20.000Z	244	36,688				
1091392231523696646	15	crystal	Under The Pink turns 25 today! To celebrate her, we thought it would be fun to share some behind the scenes shots from the album photo shoot. #toriamos #underthepink 	en	3084	167	741	toriamos	2019-02-01T17:45:59.000Z	244	36,688				https://pbs.twimg.com/media/DyVnPmBVAAALlQv?format=jpg&amp;name=240x240 https://pbs.twimg.com/media/DyVnS64UYAATPca?format=jpg&amp;name=240x240 https://pbs.twimg.com/media/DyVnRR5VAAAGb2w?format=jpg&amp;name=240x240 https://pbs.twimg.com/media/DyVnUt0U0AARCoQ?format=jpg&amp;name=240x240
1092971558048415745	15	crystal	((🐷)) Happy Lunar New Year! ((🐷)) 	en	2	1	0		2019-02-06T02:21:40.000Z	244	36,688				
1060194792166969345	15	crystal	Happiest birthday to BFF @krissy ! 	en	1	1	2		2018-11-07T15:38:30.000Z	244	36,688				
1058566191952945157	15	crystal	Coke, PepsiCo and other big beverage companies are the unseen forces (and funders) behind ballot initiatives that would ban taxes on food sales 	en	258	31	143	nytimes	2018-11-03T03:47:02.000Z	244	36,688				
1054861494175875072	15	crystal	force, and fleet week while they stayed at one ((😬)) OUCH 	en	2	1	0		2018-10-23T22:25:53.000Z	244	36,688				
1054859615333240832	15	crystal	Canceled hotels at SF Marriott affiliated hotels for our large family group. Hope the strikers get what they need! 	en	7	1	1		2018-10-23T22:18:25.000Z	244	36,688				
1054761362763726848	15	crystal	Thx for the bday wishes everyone! Another wonderful year come and gone! 	en	2	0	0		2018-10-23T15:48:00.000Z	244	36,688				
1044266876258344960	15	crystal	Driving around sunny cool SF listening to Dr.Horrible's Sing Along Blog with husband feeling generally pretty happy :) 	en	10	0	0		2018-09-24T16:46:39.000Z	244	36,688				
1044229323773947905	15	crystal	He's a great husband and already a great father too. A very happy birthday to @goldman ! I love you so much! 	en	9	0	0		2018-09-24T14:17:26.000Z	244	36,688				
1043087301016924189	15	crystal	Bloom That was acquired by FTD... last deliveries 9/28 so get your on demand florals while you can :-/ 	en	4	0	0		2018-09-21T10:39:26.000Z	244	36,688				
1041007272795635712	15	crystal	Back in London. Yay! Love London ((😊)) 	en	3	0	0		2018-09-15T16:54:09.000Z	244	36,688				
1038437143880683520	15	crystal	Went snorkeling on our last real day of summer. Me kicking, baby kicking! Now that's a weird (and awesome!) feeling! 	en	13	0	0		2018-09-08T14:41:22.000Z	244	36,688				
1028673427861696513	15	crystal	Big congrats to newlyweds @iano and @sarachipps ! Beautiful wedding, beautiful weekend, beautiful couple! Wishing you happiest ever after... 	en	1	0	0		2018-08-12T16:03:51.000Z	244	36,688				
1025107752799137793	15	crystal	Move into the country, gonna eat alotta peaches 	en	13	4	0		2018-08-02T19:55:08.000Z	244	36,688				
1021458187176873985	15	crystal	McDonalds has an app where you can pre-order, pull up into designated parking stall, check in on app to pick up. WHAT. 	en	2	1	0		2018-07-23T18:13:04.000Z	244	36,688				
1016820177797775361	15	crystal	San Francisco has some quality cherries in the grocery right now, YUM. 	en	3	0	0		2018-07-10T23:03:16.000Z	244	36,688				
1014228826660823040	15	crystal	Eeeek this England v Columbia game is a brawl and a half 	en	1	0	0		2018-07-03T19:26:10.000Z	244	36,688				
1013798592870518784	15	crystal	Safely made it to watch country. Also chocolate country. Ready for action! 	en	0	1	0		2018-07-02T14:56:34.000Z	244	36,688				
1012978854552653824	15	crystal	But whether or not you believe in a global economy, the news in Europe shows that we are each facing our unique version of the same issues. 	en	2	0	0		2018-06-30T08:39:13.000Z	244	36,688				
1012978396492525568	15	crystal	I can't decide if reading home news while abroad is more, or less, depressing. 	en	2	1	0		2018-06-30T08:37:24.000Z	244	36,688				
1010226997929431040	15	crystal	Happy Second Anniversary @goldman :) The best is yet to come :) 	en	75	21	3		2018-06-22T18:24:20.000Z	244	36,688				https://pbs.twimg.com/media/DgUL7aCWsAAFWot?format=jpg&amp;name=240x240 https://pbs.twimg.com/media/DgUL8gTX4Ac5dvB?format=jpg&amp;name=240x240 https://pbs.twimg.com/media/DgUL-L6WsAAG5dL?format=jpg&amp;name=240x240
1009922593128771584	15	crystal	Happy Solstice! 	en	3	0	0		2018-06-21T22:14:44.000Z	244	36,688				
1003511383642771456	15	crystal	Introducing @goldman to some classics, like 	en	1	0	0		2018-06-04T05:38:52.000Z	244	36,688				
1002410838681010176	15	crystal	What a game!!! Stressful!!! Amazing!!! #warriors 	en	4	0	0		2018-06-01T04:45:42.000Z	244	36,688				
1002371541588307969	15	crystal	GO WARRIORS! ^_^ 	en	0	0	0		2018-06-01T02:09:33.000Z	244	36,688				
1001890662978146304	15	crystal	Guy flossing teeth in the elevator-- that is gross. Just super gross. 	en	4	1	0		2018-05-30T18:18:42.000Z	244	36,688				
1001647918263230465	15	crystal	Solo was fun! Loved Lando! Skinny tie and a cuff type ;) 	en	5	0	0		2018-05-30T02:14:08.000Z	244	36,688				
1000129912781529088	15	crystal	Yay! Finally clear for rebuilding at my mom's after the environmental clean up and toxic debris removal inspections passed! So relieved t... 	en	5	0	0		2018-05-25T21:42:07.000Z	244	36,688				
996856107690811393	15	crystal	Mom is out here weed whacking 1.3 acres of weeds 	en	3	0	0		2018-05-16T20:53:11.000Z	244	36,688				
996636138600259584	15	crystal	"Clandestine trysts with radical elves. You've really lowered your standards." 	en	2	0	0		2018-05-16T06:19:06.000Z	244	36,688				
992877487913746432	15	crystal	Happy birthday to the very lovely and endlessly delightful @SaraJChipps ! 	en	3	1	0		2018-05-05T21:23:34.000Z	244	36,688				
992876323423928320	15	crystal	Good news for Fins! Saunas May Reduce Stroke Risk 	en	1	0	0		2018-05-05T21:18:56.000Z	244	36,688				
992705714052370432	15	crystal	As master predators of the sea, wolf eels may look vicious, but they also have a soft side 	en	3144	47	1026	NatGeo	2018-05-05T10:01:00.000Z	244	36,688				
990693896098267137	15	crystal	"REMEMBER, EXTINCTION IS FOREVER!" Disturbing. 	en	1	0	0		2018-04-29T20:46:45.000Z	244	36,688				
988172936665219072	15	crystal	Happy birthday to you (@iano) Happy birthday toooo you (@iano) Happy Birthday dear Iiiiaaaaaaaan Happy birthday to you 	en	3	0	0		2018-04-22T21:49:22.000Z	244	36,688				
986350123293659136	15	crystal	Nothin on top but a bucket and a mop and an illustrated book about birds 	en	4	1	0		2018-04-17T21:06:09.000Z	244	36,688				
981396457558368257	15	crystal	Florida is off the Zika map. Yay! 	en	7	0	0		2018-04-04T05:02:03.000Z	244	36,688				
974465927268900864	15	crystal	Watching first episode of Fargo with my Dad. Best show. 	en	3	0	0		2018-03-16T02:02:36.000Z	244	36,688				
967464800396521472	15	crystal	It's a gorgeous California day in the Bay Area. Cool, crisp, and sunny- my favorite! 	en	5	0	0		2018-02-24T18:22:37.000Z	244	36,688				
967226999629479936	15	crystal	Looking forward to visiting my favorite Visalians next week! @jenni ^_^ 	en	3	0	1		2018-02-24T02:37:41.000Z	244	36,688				
964925873617948672	15	crystal	For the rest of the year maybe I should just insta caption strictly in tori Amos lyrics. 	en	4	0	0		2018-02-17T18:13:50.000Z	244	36,688				
964432101159288832	15	crystal	I'm glad it's not yesterday anymore 	en	3	1	0		2018-02-16T09:31:45.000Z	244	36,688				
957356293479477248	15	crystal	My mom now communicates strictly in Animoji 	en	6	1	0		2018-01-27T20:55:01.000Z	244	36,688				
955577483985764353	15	crystal	Now this is news. 	en	5	0	1		2018-01-22T23:06:40.000Z	244	36,688				
938165768385998848	15	crystal	Home again, Home again! Jiggetty Jig! 	en	5	3	0		2017-12-05T21:58:44.000Z	244	36,688				
937517530423455745	15	crystal	So excited for grand finale @toriamos concert tonight. Her music has been the soundtrack of my life for lo these many years. 	en	6	0	0		2017-12-04T03:02:52.000Z	244	36,688				
917323891306930176	15	crystal	So scary-- http://www.pressdemocrat.com/news/7506978-181/fires-break-out-across-sonoma?artslide=0 Everyone get out of there and get safe. 	en	2	0	1		2017-10-09T09:40:33.000Z	244	36,688				
917322874871934981	15	crystal	Sonoma county fire advisory updates: https://local.nixle.com/county/ca/sonoma/ 	en	1	0	1		2017-10-09T09:36:31.000Z	244	36,688				
917322770643427328	15	crystal	Napa county advisory updates: https://local.nixle.com/county/ca/napa/ 	en	1	0	0		2017-10-09T09:36:06.000Z	244	36,688				
917315911610130433	15	crystal	Live broadcasts and police dispatches here if you have loved ones in fire zones: https://www.broadcastify.com/listen/ctid/231 	en	1	0	0		2017-10-09T09:08:50.000Z	244	36,688				
917315216404185089	15	crystal	Mandatory evacuations in Napa, Sonoma, Santa Rosa, Calistoga; rapidly spreading fires in the high winds. SF hazy, smells like bonfire. 	en	3	1	4		2017-10-09T09:06:05.000Z	244	36,688				
917299657633619968	15	crystal	Updated #GOES16 satellite imagery around 12:45 AM Monday shows wildfires continue to spread in N Bay, including #AtlasPeak Fire in Napa Co. Fires being fanned by strong/dry northeast winds. Colors in image represent heat with oranges/reds signifying hottest parts of fires. #cawx 	en	85	15	218	NWSBayArea	2017-10-09T08:04:15.000Z	244	36,688		https://video.twimg.com/tweet_video/DLrl8LeVYAAixhb.mp4	https://pbs.twimg.com/tweet_video_thumb/DLrl8LeVYAAixhb.jpg	
917289535356141568	15	crystal	#GOES16 satellite now detecting 4 wildfires in the North Bay. 3 fires are near the Sonoma/Napa County line while the forth fire (called the "Atlas Fire") burns to the NE of the City of Napa. Red Flag Warning remains in effect for strong and dry north winds. #cawx #atlasfire 	en	303	31	592	NWSBayArea	2017-10-09T07:24:02.000Z	244	36,688		https://video.twimg.com/tweet_video/DLrdbIMV4AAFxM6.mp4	https://pbs.twimg.com/tweet_video_thumb/DLrdbIMV4AAFxM6.jpg	
910914486042791937	15	crystal	Now that my tweets are working, WTF: Salvador Dalí Was Not Woman’s Father, DNA Test Shows via @NYTimes 	en	2	1	1		2017-09-21T17:11:52.000Z	244	36,688				
910913705763856384	15	crystal	Almost none of my tweets posted from this earlier summer. *Shrug* But: Ciao Roma! A few more lovely days... 	en	4	0	0		2017-09-21T17:08:46.000Z	244	36,688				
910798271622369280	15	crystal	Peace doesn’t come from prayer alone, it requires us to take action. Our goal should be a demilitarized world. #PeaceDayChallenge 	en	51761	800	20633	DalaiLama	2017-09-21T09:30:04.000Z	244	36,688				
910828461647912960	15	crystal	I appeal for peace and disarmament: in this world wounded by violence, we need fraternity among peoples. 	en	53425	872	15034	Pontifex	2017-09-21T11:30:02.000Z	244	36,688				
904338031305482240	15	crystal	The alpine life is the life for me 	en	17	0	0		2017-09-03T13:39:23.000Z	244	36,688				https://pbs.twimg.com/media/DIzalVuWsAAdoqI?format=jpg&amp;name=360x360
889839530152513536	15	crystal	Just trying to get a sandwich out here in the woods. 	en	5	2	0		2017-07-25T13:27:31.000Z	244	36,688				https://pbs.twimg.com/media/DFlYUC4WsAALYjA?format=jpg&amp;name=360x360
889581992647458816	15	crystal	Of course I left the Fitbit at home on the 28k step day. 	en	3	2	0		2017-07-24T20:24:09.000Z	244	36,688				
884470696985874432	15	crystal	Accidents happen! ((😉)) ((🍦)) ((🍒)) @draperjames 	en	2440	117	222	ReeseW	2017-07-10T17:53:41.000Z	244	36,688		blob:https://twitter.com/076a389a-45ae-41a0-ba0d-7d92dfc551ee	https://pbs.twimg.com/ext_tw_video_thumb/884470657219678208/pu/img/fAm961Bb4Iclhcqo.jpg	
888827000688979968	15	crystal	Does he even understand the definition of a "leak?" 	en	2	1	0		2017-07-22T18:24:05.000Z	244	36,688				
888523682330660865	15	crystal	Reading Joseph Anton and had no idea what he truly went through. 	en	0	0	0		2017-07-21T22:18:48.000Z	244	36,688				
887058347219931136	15	crystal	Details of The Smiths’ The Queen Is Dead super deluxe edition revealed http://bit.ly/2vvAV44 	en	100	6	49	stereogum	2017-07-17T21:16:05.000Z	244	36,688				https://pbs.twimg.com/media/DE922VHWsAQqNPG?format=jpg&amp;name=360x360
888519972108087296	15	crystal	Awesome post offices ((✅)) Healthy food ((✅)) Happy people ((✅)) Great airport ((✅)) Crazy fitness ((✅)) Astounding nature ((✅)) It's official: I love you, Norway. 	en	22	0	3		2017-07-21T22:04:03.000Z	244	36,688				
885971430898376706	15	crystal	Next stop: https://www.visitnorway.com/places-to-go/svalbard-islands/ Here goes nothin! 	en	2	1	0		2017-07-14T21:17:04.000Z	244	36,688				
885225893366566912	15	crystal	New places, new friends, good times. Great times. 	en	3	0	1		2017-07-12T19:54:34.000Z	244	36,688				
882156709137047553	15	crystal	Big congrats to DOB and GOB and #vivalosnovios ! 	en	1	0	0		2017-07-04T08:38:43.000Z	244	36,688				
882156458338639872	15	crystal	Tried to go old school but, mobile Shortcode, international, meh. 	en	3	0	0		2017-07-04T08:37:43.000Z	244	36,688				
882155773609918464	15	crystal	ouple! Congrats to DOB and GOB! ((😊)) 	en	1	1	1		2017-07-04T08:35:00.000Z	244	36,688				
882155770346950656	15	crystal	A truly beautiful weekend celebrating the marriage of a beautiful c 	en	2	0	0		2017-07-04T08:34:59.000Z	244	36,688				
880497094720602112	15	crystal	passive reflection of the unpredictable 	en	26	1	10	ObsoleteWorld	2017-06-29T18:44:00.000Z	244	36,688				https://pbs.twimg.com/media/DDgnV6dVYAAMbgS?format=jpg&amp;name=360x360
874821445838307328	15	crystal	Just visited a tech co office w/ several types of free beer on tap and 25¢ tampons &amp; pads in the bathroom. 	en	2210	65	1033	jackie_cs_	2017-06-14T02:51:00.000Z	244	36,688				
880110219795156992	15	crystal	What! Crazy. Exhumation of Salvador Dalí’s Body Ordered in Paternity Case 	en	1	0	0		2017-06-28T17:06:42.000Z	244	36,688				
879819098770653184	15	crystal	Absence makes the heart grow fonder. SEE YA WOULDNT WANNA BE YA SAN FRANCISCO! 	en	3	0	0		2017-06-27T21:49:54.000Z	244	36,688				
878655828680622081	15	crystal	((🌈)) Love who you love. Celebrate that freedom. Support it for others. So Simple. So important. ((🌈)) 	en	6	0	0		2017-06-24T16:47:28.000Z	244	36,688				
878655061705900033	15	crystal	((Red heart)) HAPPY PRIDE EVERYONE!! ((Red heart)) 	en	4	0	0		2017-06-24T16:44:25.000Z	244	36,688				
878654895259213825	15	crystal	Thanks @victor for the lovely bottle of anniversary wine! So thoughtful! ((Smiling face with smiling eyes)) Miss you!! 	en	0	0	0		2017-06-24T16:43:46.000Z	244	36,688				
878062569768054786	15	crystal	This expedition to Antarctica is unlike any other—and the conditions are beyond harsh 	en	1047	16	401	NatGeo	2017-06-23T01:30:04.000Z	244	36,688				
877983105843249152	15	crystal	A very happy one year anniversary @goldman I love you forever ((Red heart)) 	en	27	4	3		2017-06-22T20:14:19.000Z	244	36,688				https://pbs.twimg.com/media/DC84-X9XoAAopLG?format=jpg&amp;name=240x240 https://pbs.twimg.com/media/DC84-XzWsAQAcux?format=jpg&amp;name=240x240
877982902654386178	15	crystal	Last year today we were all... 	en	9	0	0		2017-06-22T20:13:30.000Z	244	36,688				https://pbs.twimg.com/media/DC84wsqXkAMfrh5?format=jpg&amp;name=240x240 https://pbs.twimg.com/media/DC84wsqXkAIwX_0?format=jpg&amp;name=240x240 https://pbs.twimg.com/media/DC84wsuXUAYo_e6?format=jpg&amp;name=240x240
874734568103829504	15	crystal	Facebook: penises approved, breasts and vulvas, denied. https://medium.com/clued-in/why-is-facebook-blocking-our-educational-content-c8e71858a627 	en	5	1	10		2017-06-13T21:05:47.000Z	244	36,688				
873992043151753216	15	crystal	Since I've returned from Ireland, all other butter is inferior. 	en	6	2	1		2017-06-11T19:55:15.000Z	244	36,688				
871922232800419840	15	crystal	Does anyone know if TLC has relaxed its policy on scrubs? 	en	13272	156	4317	PFTompkins	2017-06-06T02:50:34.000Z	244	36,688				
872178335912140800	15	crystal	RENEGADE ROWS 	ca	0	0	0		2017-06-06T19:48:14.000Z	244	36,688				
872154675545493504	15	crystal	Going to a graduation week. All grown up! Sniff! 	en	4	0	0		2017-06-06T18:14:13.000Z	244	36,688				https://pbs.twimg.com/media/DBqEDNWVoAAxGiA?format=jpg&amp;name=360x360
871878391460384769	15	crystal	Does the new Arcade Fire remind anyone else of Abba. 	en	2	1	0		2017-06-05T23:56:21.000Z	244	36,688				
871569666346332160	15	crystal	My really cute husband with his geometric pink socks ((Egg)) ((Red heart)) 	en	1	0	0		2017-06-05T03:29:36.000Z	244	36,688				
871260642962923520	15	crystal	Very much enjoying thus far! 	en	4	0	0		2017-06-04T07:01:39.000Z	244	36,688				https://pbs.twimg.com/media/DBdW7yTUAAI5CBc?format=jpg&amp;name=360x360
869442556995682304	15	crystal	I finally got to finish Big Little Lies. So great. SO GREAT. 	en	1	1	0		2017-05-30T06:37:13.000Z	244	36,688				
868740797818064897	15	crystal	Love this old pic of my little brother ((Red heart)) 	en	7	1	1		2017-05-28T08:08:41.000Z	244	36,688				https://pbs.twimg.com/media/DA5jJeTVYAEvFeE?format=jpg&amp;name=360x360
868142504327077888	15	crystal	Look at this tiny little Haley! SO CUTE! @LewellenHaley ((Smiling face with heart-shaped eyes)) 	en	3	1	0		2017-05-26T16:31:16.000Z	244	36,688				https://pbs.twimg.com/media/DAxDALbU0AAWt1P?format=jpg&amp;name=360x360
868139923617992704	15	crystal	Happy birthday to my beloved little @LewellenHaley ... ... 17!!! ((Face screaming in fear)) 	en	2	2	1		2017-05-26T16:21:01.000Z	244	36,688				
867437888576692225	15	crystal	It doesn't have to be like this KILLER WHALE 	en	1	0	0		2017-05-24T17:51:23.000Z	244	36,688				
867123284990541824	15	crystal	Home again home again jiggety jig 	en	5	1	1		2017-05-23T21:01:16.000Z	244	36,688				
865930370306285572	15	crystal	Why honeybees are good at grooming (it’s all in the hair) http://nyti.ms/2qol5Hg 	en	15	1	12	nytvideo	2017-05-20T14:01:03.000Z	244	36,688		blob:https://twitter.com/7739bd65-394b-4e7b-ae0e-ce6cd838a907	https://pbs.twimg.com/media/C_4hYbMVwAEzoS3.jpg	
865933892259328000	15	crystal	Saw King Arthur and really liked it! 	en	1	0	1		2017-05-20T14:15:02.000Z	244	36,688				
1292148277257830401	16	jeremy	How did George Bush get a million people killed in Iraq then just rebrand as Bob Ross 	en	109156	791	16139	kenklippenstein	2020-08-08T17:18:50.000Z	494	12,297				
1289936543247790080	16	jeremy	“Now this is the evidence. You want me to make an act of faith, risking myself, my wife, my woman, my sister, my children on some idealism which you assure me exists in America, which I have never seen.” Happy Birthday, James Baldwin. ((🙏🏿)) 	en	7643	115	3263	uche_blackstock	2020-08-02T14:50:12.000Z	494	12,297		blob:https://twitter.com/51ef697a-6488-45a9-a3a6-87bbe25bafae	https://pbs.twimg.com/ext_tw_video_thumb/1272304667377176576/pu/img/zRX_tMSUBN9Djalx.jpg	
1289080016798511104	16	jeremy	I cannot believe that there are people who don’t understand this message anywhere 	en	10	0	0		2020-07-31T06:06:40.000Z	494	12,297				
1288703100690161664	16	jeremy	I turn the lights off on mine for maximum confusion. 	en	2	1	0		2020-07-30T05:08:56.000Z	494	12,297				
1288702851338797056	16	jeremy	Same 	en	0	0	0		2020-07-30T05:07:57.000Z	494	12,297				
1286580659381665798	16	jeremy	Today's Day to Day piece is an essay by Otherside Picnic author Iori Miyazawa (tr. @TNieda ) 	en	8	0	8	tiger	2020-07-24T08:35:07.000Z	494	12,297				
1286584004582375425	16	jeremy	Wow, looks like Soul Lanterns is up for preorder! This is author and second-generation A-bomb survivor Shaw Kuzki's first work translated in English. Really happy to be helping share this story. https://www.amazon.com/dp/0593174348/ref=cm_sw_r_tw_dp_x_Q7PgFbJ29R1GK #CoverReveal #Hiroshima #peace #kidlit #MG 	en	8	0	4	tiger	2020-07-24T08:48:24.000Z	494	12,297				
1285959309973749763	16	jeremy	I'm far from the person who's gonna be defending Kim Kardashian on a regular basis. But before assuming that Kanye doesn't have people around who care about him, read this. And remember that it applies to other people with loved ones who have mental illnesses, too. 	en	23622	375	3646	WEKetchum	2020-07-22T15:26:06.000Z	494	12,297				
1285984499558383616	16	jeremy	Spherical bearings in action! Buttery smooth ((😎)) 	en	16	0	4	PushIndustries	2020-07-22T17:06:11.000Z	494	12,297		blob:https://twitter.com/767e3042-d9b9-4052-9850-332d1da7c0bf	https://pbs.twimg.com/ext_tw_video_thumb/1285984470928162816/pu/img/WEVoWMEdP8M1p5WB.jpg	
1285171343307276288	16	jeremy	Today is the anniversary of Apollo 11 moon landing on July 20, 1969. I love this exchange, where Neil Armstrong teach us how to deal with truthers + idiots. 	en	427	17	169	ritholtz	2020-07-20T11:15:00.000Z	494	12,297				
1284965894817345537	16	jeremy	I dig Bill Nye. First trip I ever took w President Obama was an Earth Day visit to the Everglades and we brought Bill Nye. And there were some school kids the President was going to meet and they went WILD when they knew Bill was there. Takes a lot to upstage Obama. 	en	35	2	5	goldman	2020-07-19T21:38:37.000Z	494	12,297				
1283926501721808896	16	jeremy	((🎤)) Shout out to Danny Walker at @SupercampDanny one of the best courses I’ve taken. http://AmericaSupercamp.com just go, you won’t regret it!! @ Pacific Beach https://www.instagram.com/p/CCuUCYQHmiM/?igshid=1cjuqkp3neoir 	en	1	0	2	MotoJitsu	2020-07-17T00:48:26.000Z	494	12,297				
1284335583662190592	16	jeremy	Good trouble. From here to November and beyond, good trouble. Link arms, y'all. 	en	31062	100	3670	MrGeorgeWallace	2020-07-18T03:53:59.000Z	494	12,297				https://pbs.twimg.com/media/EdLgaDPU4AAAuf_?format=jpg&amp;name=360x360
1283816166142533632	16	jeremy	Now through August 3rd, orders ship for free! Our online shop has everything you need to make the perfect summertime cup.⁠ ⁠ Offer valid through 8.3.2020 @ 11:59pm PST. Excludes subscriptions.⁠ Shop Now: 	en	5	0	1	Sightglass	2020-07-16T17:30:00.000Z	494	12,297				
1283441721154711552	16	jeremy	for context: 	en	14	1	2	curiousliz	2020-07-15T16:42:06.000Z	494	12,297				
1283441622835965952	16	jeremy	if you’ve been following the scandal involving @johnortberg and @menlochurch and you’d like to do something about it, here's an open letter to menlo leadership you can sign: https://menloscandal.weebly.com 	en	131	6	72	curiousliz	2020-07-15T16:41:42.000Z	494	12,297				
1283442946780672006	16	jeremy	if you are connected to anyone on fuller’s faculty ( https://www.fuller.edu/faculty/ ), staff, or board ( https://www.fuller.edu/offices/trustees/ ), please contact them as well 	en	32	1	6	curiousliz	2020-07-15T16:46:58.000Z	494	12,297				
1283442848139026432	16	jeremy	3. ortberg is sits on the board of trustees of fuller theological seminary. if you are a student, faculty, staff, or alumnus of fuller, email mark labberton (marklabberton@fuller.edu), the seminary’s president, with your concerns about his position on the board 	en	46	1	14	curiousliz	2020-07-15T16:46:34.000Z	494	12,297				
1283442731122143232	16	jeremy	2. email luke barnes (bluewatermod@ecopresbytery.org), moderator of the bluewater presbytery (to which menlo belongs), calling on him and the presbytery to fulfill their responsibility to hold their pastors accountable 	en	38	1	6	curiousliz	2020-07-15T16:46:06.000Z	494	12,297				
1283442391685398536	16	jeremy	more action steps: 1. if you know anyone on menlo’s staff, contact them directly with your concerns and encourage them to take *collective action* 	en	29	1	5	curiousliz	2020-07-15T16:44:46.000Z	494	12,297				
1283442162059878408	16	jeremy	my take: 	en	31	2	6	curiousliz	2020-07-15T16:43:51.000Z	494	12,297				
1283441841413685248	16	jeremy	more context: 	en	12	1	1	curiousliz	2020-07-15T16:42:34.000Z	494	12,297				
1283097235702464513	16	jeremy	Reading the California mandatory reporter law. Turns out CLERGY is on the list. @johnortberg @menlochurch 	en	2	1	2		2020-07-14T17:53:14.000Z	494	12,297				
1282844759770279937	16	jeremy	Today, mom had her service and final closing of her casket. We said goodbye in the ways we can with the virus, and hope we honored her beautifully anyway. I spoke again with @GlassIsland more my experience of losing someone to Covid. Please listen and RT 	en	21	4	8	lisaphillips	2020-07-14T01:09:59.000Z	494	12,297				
1282814125068791808	16	jeremy	Oh and @menlochurch your church, along with these other people are responsible along with @johnortberg and his son Johnny for covering up and enabling, granting access to my child and others. Your consciences will bear this weight forever. 	en	20	1	5		2020-07-13T23:08:15.000Z	494	12,297				
1282811236992708608	16	jeremy	What about pedophilia and child abuse John? should we call that to account? What about those who cover it up? 	en	11	0	0		2020-07-13T22:56:47.000Z	494	12,297				
1282810520580456448	16	jeremy	My child was invited to overnight trips with @johnortberg 's son Johnny on numerous occasions while playing ultimate with the @reddawnultimate team while 13-16 years old. The team would stay at Johnny's friends' houses in and around Santa Cruz. I was complacent and trusting. 	en	44	6	7		2020-07-13T22:53:56.000Z	494	12,297				
1282779702860505088	16	jeremy	I’m following this really closely now. Shame ⁦ @johnortberg ⁩ Your sin of silence endangered my child and many others for years. There is no hiding behind your hypocrisy. 	en	18	2	3		2020-07-13T20:51:28.000Z	494	12,297				
1281018961560309761	16	jeremy	This is so sweet. ((😊)) 	en	2060	9	249	Nnedi	2020-07-09T00:14:55.000Z	494	12,297				
1280978957324566528	16	jeremy	Jitsi's pretty dope. 	en	87	7	6	bradfitz	2020-07-08T21:35:57.000Z	494	12,297				
1280496852673142785	16	jeremy	Before my mom passed of Covid, I recorded a podcast with my lovely friend Dominick Black. It’s personal, but folks need to know what it’s like to deal with someone critically ill from the virus. Please listen and RT to honor my mom. https://socialdistance.fireside.fm/27 #covidfallen 	en	950	86	581	lisaphillips	2020-07-07T13:40:14.000Z	494	12,297				
1280646935603548161	16	jeremy	Rarely get to see any of my paintings after there leave my studio. #4’x6’ #peonies #spraypaint https://www.instagram.com/p/CCXAqaRgknX/?igshid=1l7go29yz67v8 	en	1	0	1	VogueTDK	2020-07-07T23:36:37.000Z	494	12,297				
1280231505843884033	16	jeremy	When asked why he accepted government assistance, Atlas shrugged. 	en	16620	300	3867	DavidKusnet	2020-07-06T20:05:51.000Z	494	12,297				
1280192285892907008	16	jeremy	Our cafes are open daily for take-away coffee, pastries, and more. And now, you can even order ahead for⁠ pick up! ⁠ Order Now: https://sightglasscoffee.com/pages/to-go SF, 7th Street is coming soon! Keep a lookout this week.⁠ 	en	3	0	1	Sightglass	2020-07-06T17:30:00.000Z	494	12,297				
1279848299894173702	16	jeremy	I went to majority white schools all my life and was constantly berated for speaking AAVE. It never occurred to me that it was a skill and not a character flaw until years later. So much trauma to unlearn. 	en	374	7	60	MinaMarkham	2020-07-05T18:43:07.000Z	494	12,297				
1279544427619315712	16	jeremy	Wow. Monsoon and full moon for the 4th. 	en	1	0	0		2020-07-04T22:35:38.000Z	494	12,297				
484814977736261632	16	jeremy	You can have my fireworks when you pry them from my cold dead fingers, which are right over there by the sidewalk. 	en	2989	19	1687	badbanana	2014-07-03T21:44:32.000Z	494	12,297				
1279154660293529600	16	jeremy	Fearless in ignorance? or Fearful in ignorance? 	en	2	0	0		2020-07-03T20:46:51.000Z	494	12,297				
1278432955908657153	16	jeremy	I have two female Black engineers straight out of bootcamp who I am on a personal mission to get hired. Who has dev support/early career opportunities at your company? THESE WOMEN ARE MAGIC. 	en	345	20	249	jilljubs	2020-07-01T20:59:03.000Z	494	12,297				
1278382121082650627	16	jeremy	How to Say No: Actual Phrases for Better Boundaries https://ift.tt/3ggeDuv #coaching 	en	3	0	4	coachdotme	2020-07-01T17:37:03.000Z	494	12,297				https://pbs.twimg.com/media/Eb25w8uXQAEYdHF?format=jpg&amp;name=360x360
1275889615946178560	16	jeremy	Also I’m thinking they should also pay taxes! 	en	3	0	1	uabball97	2020-06-24T20:32:43.000Z	494	12,297		https://video.twimg.com/tweet_video/EbTe1wxVcAIxO_a.mp4	https://pbs.twimg.com/tweet_video_thumb/EbTe1wxVcAIxO_a.jpg	
1266671260492197888	16	jeremy	Oh dumb. 	en	5	3	0		2020-05-30T10:02:16.000Z	494	12,297				
1266670977041068033	16	jeremy	And if they are not please let me know! 	en	1	0	0		2020-05-30T10:01:09.000Z	494	12,297				
1266670741031759874	16	jeremy	Oh did y’all know about @nngNational they are watching on your behalf. 	en	0	3	0		2020-05-30T10:00:12.000Z	494	12,297				
1266635394738556928	16	jeremy	Who and where are the “leaders” of the city,county, state? Who’s in control of the police? Why won’t they stop KILLING BLACK PEOPLE? Who the fuck are these “leaders”? 	en	2	0	0		2020-05-30T07:39:45.000Z	494	12,297				
1266603249336905728	16	jeremy	Hey @jack can I please add a signature to every message I’ve ever sent or ever will send, which simply says: STOP KILLING BLACK PEOPLE ??? 	en	16	2	2		2020-05-30T05:32:01.000Z	494	12,297				
1266602842648801281	16	jeremy	here in taos you call on Wednesday by 9:01 to get one of the 100 slots they have to do testing Friday morning. If only we had some sort of center for disease control in this whole giant country... As always, I think we should stop killing black folks. 	en	7	1	0		2020-05-30T05:30:24.000Z	494	12,297				
1266593883783217152	16	jeremy	Thanks! 	en	0	0	0		2020-05-30T04:54:48.000Z	494	12,297				
1266587545187414016	16	jeremy	Who’s making odds and taking bets that #spackaren makes a manned vehicle launch Saturday and all the talking heads try to draw focus toward glorious non-earth futures? Asking for a compulsive gambler (society). 	en	3	0	0		2020-05-30T04:29:37.000Z	494	12,297				
1266558342903803907	16	jeremy	I just donated to the Minnesota Freedom Fund. Here’s the link if you’d like to donate as well 	en	310	5	36	Yousuckatcookin	2020-05-30T02:33:35.000Z	494	12,297				
1266558938490605568	16	jeremy	What I say is: where the fuck is “leadership” when you have these sherriff of Nottingham’s goons out there shooting anything at anyone? Who is leading the empathy toward these civilians? (Not so much the press...) 	en	6	0	0		2020-05-30T02:35:57.000Z	494	12,297				
1266425213429800960	16	jeremy	gosh I wonder what that consortium of NY billionaires who solved COVID are going to do to fix racism 	en	3	2	0		2020-05-29T17:44:34.000Z	494	12,297				
1266219331811069955	16	jeremy	Microsoft employees, if you go to https://microsoft.benevity.org/cause/840-821214607 you can donate and have it matched 100% by Microsoft 	en	346	15	191	Duncanma	2020-05-29T04:06:28.000Z	494	12,297				
1266415390281752577	16	jeremy	Albuquerque Police Chief Mike Geier on George Floyd’s death. “The law enforcement profession must do better,” he said during a briefing about last night’s protest. “We will not tolerate these actions and we denounce this type of police brutality.” 	en	40	1	11	shaun505	2020-05-29T17:05:32.000Z	494	12,297				
1266136223078219776	16	jeremy	You laugh, but quoting someone is a form of censorship. Also, electricity is a form butter. 	en	43	2	1	iheartdogfarts	2020-05-28T22:36:13.000Z	494	12,297				
1266130019161538560	16	jeremy	The rule of law party holds to their argument that the law is whatever they think it is. That's not how law or the legal system work? Oh. 	en	6	2	0		2020-05-28T22:11:34.000Z	494	12,297				
1266080036752429063	16	jeremy	Narrator: It was not a fact. 	en	6	0	3	fbihop	2020-05-28T18:52:58.000Z	494	12,297				
1266083184145502213	16	jeremy	Protestors Criticized For Looting Businesses Without Forming Private Equity Firm First https://bit.ly/2AeY0zK 	en	112127	588	38656	TheOnion	2020-05-28T19:05:28.000Z	494	12,297				https://pbs.twimg.com/media/EZIH8TkWkAI29Iv?format=jpg&amp;name=360x360
1266008254984982529	16	jeremy	“In the final analysis, a riot is the language of the unheard. And what is it that America has failed to hear?” 	en	66274	477	35998	TheKingCenter	2020-05-28T14:07:43.000Z	494	12,297		blob:https://twitter.com/8eadf49c-7528-4b93-aa13-932c1d4f563e	https://pbs.twimg.com/ext_tw_video_thumb/1266008222877528065/pu/img/fq9it1YHa9682hAw.jpg	
1051823313952145408	17	tonystubblebine	I started writing this article focused on a humble idea, what is the most Optimal iPhone Setup? Two years later, I'm done. I know there aren't even any claps on it yet, but I think it might be the greatest productivity article ever written. ((🤷‍♂️)) 	en	164	31	73		2018-10-15T13:13:14.000Z	5,987	25,248				
1293187244711268353	17	tonystubblebine	Day two of my meditation series. Introduces mental pushups as a positive reframe on your mind wandering. Pulling a wandering mind back to a point of focus is a powerful mindfulness muscle. 	en	2	0	0		2020-08-11T14:07:20.000Z	5,987	25,248				
1292886813267427328	17	tonystubblebine	Enjoying the current program @tonystubblebine Kendra is a star 	en	2	0	1	TimesWorth	2020-08-10T18:13:31.000Z	5,987	25,248				
1292884908071948288	17	tonystubblebine	Twitter has a long standing bug where the tweet ID in a RT gets cut off and the result is someone linking to an old tweet from 2006, often one of mine. I've taken to responding to these. 	en	1	0	0		2020-08-10T18:05:57.000Z	5,987	25,248				
1292883955415384064	17	tonystubblebine	This turned out very cool. We did a commencement celebration for new Habit Coach Certification and Leo from @zenhabits came to give the keynote. 	en	4	0	3		2020-08-10T18:02:10.000Z	5,987	25,248				
1292832152418123784	17	tonystubblebine	I'm going to be posting my guided meditations this month, one per day. There are 19. All focused on building mindfulness as a strength throughout your day. None are professionally recorded, some are quite strange, this first one introduces mental pushups. 	en	1	0	0		2020-08-10T14:36:19.000Z	5,987	25,248				
1292456981861629952	17	tonystubblebine	A story about how I started meditating because I thought it would help me find an investor to give me a million dollars. 	en	3	0	0		2020-08-09T13:45:31.000Z	5,987	25,248				
1292155082621026305	17	tonystubblebine	The NYPD sent 2 dozen police cars and a helicopter to arrest activist #DerrickIngram — without a warrant https://www.nytimes.com/2020/08/07/nyregion/nypd-derrick-ingram-protester.html You think it’s revolutionary defunding police!? #AbolishThePolice 	en	458	26	327	AWKWORDrap	2020-08-08T17:45:53.000Z	5,987	25,248				
1292177513662357504	17	tonystubblebine	This is disgusting. The NYPD went to the home of an organizer with @WarriorsITG without a warrant and tried to intimidate him for nearly six hours. And the police ‘benevolent’ association releases a statement calling being ordered to leave “literal surrender to criminals” 	en	204	15	120	JoshuaPotash	2020-08-08T19:15:01.000Z	5,987	25,248				
1292105041675984896	17	tonystubblebine	A short case study in converting negative self-talk to positive. 	en	1	0	1		2020-08-08T14:27:02.000Z	5,987	25,248				
1291791905764843527	17	tonystubblebine	Big change over @bttrHumans . @terrie is writing more. She is the main source of wisdom in my life. Without her advice I would be constantly climbing local maxima. Why Your Laughably Tiny Carrots Matter by @terrie in @coachdotme 	en	4	0	0		2020-08-07T17:42:45.000Z	5,987	25,248				
1291789856725782528	17	tonystubblebine	“Once men turned their thinking over to machines in the hope that this would set them free. But that only permitted other men with machines to enslave them.” I think about that quote from Dune a lot lately. 	en	4	1	0		2020-08-07T17:34:36.000Z	5,987	25,248				
1291768453452488705	17	tonystubblebine	"More work than you want, less than you fear." 	en	0	0	0		2020-08-07T16:09:33.000Z	5,987	25,248				
1291763927156695040	17	tonystubblebine	I like that photo so much because it exposes the "guru on the mountaintop" as just a trick of camera angles. 	en	4	0	1		2020-08-07T15:51:34.000Z	5,987	25,248				
1291751348812357632	17	tonystubblebine	* Success guaranteed for mountains four feet tall or shorter. 	en	4	2	1		2020-08-07T15:01:35.000Z	5,987	25,248				
1291531730139176966	17	tonystubblebine	Agree or disagree? 	en	1	1	0		2020-08-07T00:28:54.000Z	5,987	25,248				
1291475568094044162	17	tonystubblebine	I took http://evhead.com 's lead and treated it more like a Tumblr. It's an immediate relief not to have to write a full length article. 	en	3	1	0		2020-08-06T20:45:44.000Z	5,987	25,248				
1291462665655726082	17	tonystubblebine	I'm in the new Medium beta and started a personal blog. I chose pink. Follow me! 	en	6	0	1		2020-08-06T19:54:28.000Z	5,987	25,248				
1291358450925142016	17	tonystubblebine	Are you treadmill-desk curious? I talk here about how I've: * Set one up cheaply * Done it expensively * Done it in an apt where I don't have room for a desk at all 	en	9	0	4	SarahM	2020-08-06T13:00:21.000Z	5,987	25,248				
1291412256417349634	17	tonystubblebine	Good advice about maintaining a marketing mindset. 	en	1	0	1		2020-08-06T16:34:09.000Z	5,987	25,248				
1291377912843776007	17	tonystubblebine	Here's the story of the cat circus, which is a metaphor that was handed to me when I first started managing. The point: getting people to do what you want is futile. You need to encourage people to do what they want. 	en	1	0	0		2020-08-06T14:17:41.000Z	5,987	25,248				
1291213793796567040	17	tonystubblebine	I have written two books on mine (well, I've had to replace it twice in the 9 years I've used it) but I still feel 10 mile days! 	en	4	1	1	lauraklein	2020-08-06T03:25:32.000Z	5,987	25,248				
1291219026258071553	17	tonystubblebine	I am so glad you wrote this up - ever since our call I’ve been thinking about it / pricing these out / wondering about speed, noise, features, etc. I’m inspired! 	en	4	1	1	ginatrapani	2020-08-06T03:46:20.000Z	5,987	25,248				
1291211798708981760	17	tonystubblebine	I walked 10.68 miles today without noticing. Here's a quick rundown of how a treadmill work station in my small apartment makes that possible: 	en	83	5	17	SarahM	2020-08-06T03:17:37.000Z	5,987	25,248				
1291207504752336901	17	tonystubblebine	From Schein's "Helping": "Process-Oriented Inquiry: An option that is always on the table is to shift the focus from the client's process or content to a focus on the here and now interaction occurring between client and helper..." 3/ 	en	4	1	1	edbatista	2020-08-06T03:00:33.000Z	5,987	25,248				
1291215637935558656	17	tonystubblebine	I do want one. I’ve already been to the treadmill website ((😁)) 	en	1	0	1	zoefinkel	2020-08-06T03:32:52.000Z	5,987	25,248				
1291201380040966144	17	tonystubblebine	My calendar says I start a backpacking trip in the Tetons on Friday. 	en	3	1	0		2020-08-06T02:36:13.000Z	5,987	25,248				
1291187153217650691	17	tonystubblebine	Real talk from @sarahm about her treadmill desk. You're going to want one even more than you already do. 	en	16	1	4		2020-08-06T01:39:41.000Z	5,987	25,248				
1291095782112866307	17	tonystubblebine	I planned out a personal editorial calendar to try to write a daily blog post. But some of the prompts are pretty cryptic. Tomorrow's prompt is simply "Cat Circus." 	en	4	2	0		2020-08-05T19:36:36.000Z	5,987	25,248				
1291092835085824000	17	tonystubblebine	"If we only got paid for the books that got opened, we'd be fucked." ~ real talk about any business. 	en	7	0	1		2020-08-05T19:24:53.000Z	5,987	25,248				
1291003075713474561	17	tonystubblebine	The one thing he was very correct about: 	en	97	3	15	ParkerMolloy	2020-08-05T13:28:13.000Z	5,987	25,248				
1291002514188509185	17	tonystubblebine	Every time people tell me that you can only run progressive candidates in the middle of super-blue NYC, I tell them they are wrong. A lot of people really would like universal healthcare, a higher minimum wage, real climate action, and big structural changes to policing. 	en	182	5	39	espiers	2020-08-05T13:25:59.000Z	5,987	25,248				
1290761030352678913	17	tonystubblebine	I don't know who needs to hear this right now but: nobody along my educational path, not one teacher, not one fellow student, ever turned to me and said: you are talented enough to be a professional writer. Don't wait for their encouragement or permission. Give it to yourself. 	en	5899	159	791	briankoppelman	2020-08-04T21:26:25.000Z	5,987	25,248				
1290695592679628800	17	tonystubblebine	It's hard to feel grateful if you believe your "Wants" are "Needs". Spending often goes beyond basic human needs. If you believe everything in your budget is essential...it's easy to feel deprived. #TuesdayThoughts #budget 	en	5	2	2	FinanceRox	2020-08-04T17:06:23.000Z	5,987	25,248				
1290719291797573634	17	tonystubblebine	Posted new blog posts on back to back day. I wrote up a little editorial calendar for myself. Inspired to write more by upcoming changes to @Medium --I think it'll allow more Tumblr-esque light weight writing. 	en	5	0	0		2020-08-04T18:40:34.000Z	5,987	25,248				
1290718632524369920	17	tonystubblebine	"If you start a company and can’t take a vacation, then you didn’t build a business, you built a job." Two hard lessons I, maybe, have figured out: 	en	6	0	1		2020-08-04T18:37:57.000Z	5,987	25,248				
1290347960681758721	17	tonystubblebine	Journaling is super powerful. I love when @terrie publishes a piece that builds on what we've learned through @coachdotme and @bttrHumans . 	en	7	0	2		2020-08-03T18:05:01.000Z	5,987	25,248				
1290340325177864194	17	tonystubblebine	Great $bynd meat first TV ad. What's amazing is that you basically could have made this ad in 2012 when I first heard their pitch. Very consistent vision. 	en	2	0	0		2020-08-03T17:34:41.000Z	5,987	25,248				
1290328398275977216	17	tonystubblebine	Habit Coach Certification, which had it's first commencement ceremony yesterday, was the fourth time I've been involved in launching something I was really, really proud of. 	en	7	0	0		2020-08-03T16:47:17.000Z	5,987	25,248				
1290328397462278148	17	tonystubblebine	I can only think of four times in my life where I delivered my best work. A lot of my career was doing things that didn't matter. And then most of the rest was on things where my best work wasn't called for. "The economics didn't align." 	en	8	1	0		2020-08-03T16:47:17.000Z	5,987	25,248				
1290318551383867400	17	tonystubblebine	Outstanding. Among many gems: “This CEO realized that, in their old face-to-face meetings, the team had strong but unstated norms against side conversations and passing notes. Yet no parallel norms had emerged in their Zoom calls.” 	en	5	0	1	edbatista	2020-08-03T16:08:10.000Z	5,987	25,248				
1290308381878575104	17	tonystubblebine	Trying to capture some of the experience of transitioning out of venture backed business and aiming for smaller hits, done quickly, regularly and with a higher success rate. 	en	6	1	1		2020-08-03T15:27:45.000Z	5,987	25,248				
1290277333069225984	17	tonystubblebine	I’m fascinated by meditation but have a prohibitively low bullshit threshold. This passes that...This Meditation Exercise Builds Mental Muscle and Cures Procrastination by @tonystubblebine in @coachdotme 	en	7	1	1	CEAshton	2020-08-03T13:24:23.000Z	5,987	25,248				
1288900956059578370	17	tonystubblebine	“Winners check their notifications on their own schedule.” —Ok, you got me with this @tonystubblebine 	en	2	0	1	DouglasBlanco	2020-07-30T18:15:09.000Z	5,987	25,248				
1289634267576676352	17	tonystubblebine	Just learned about @tonystubblebine interstitial journaling. I’m thinking this will be super beneficial for how my brain works— 	en	4	0	2	AlexRWing	2020-08-01T18:49:04.000Z	5,987	25,248				
1289850759157170177	17	tonystubblebine	“procrastination is often a short term mood repair initiated by your subconscious” — @tonystubblebine . I love that quote. 	en	4	0	2	dannililjekrans	2020-08-02T09:09:19.000Z	5,987	25,248				
1289967886295920640	17	tonystubblebine	Larry Bird trending because someone found a tomato that looks like him is a throwback to a simpler time on Twitter 	en	28177	228	2684	danpfeiffer	2020-08-02T16:54:45.000Z	5,987	25,248				
1288173942369325059	17	tonystubblebine	the scene that secured nicholas braun aka greg “cousin greg” hirsh the emmy nomination 	en	2035	8	595	jerremystrrong	2020-07-28T18:06:15.000Z	5,987	25,248		blob:https://twitter.com/cfc720e0-36db-4ba6-a6b6-e09af9eb29fa	https://pbs.twimg.com/ext_tw_video_thumb/1288173885683367937/pu/img/Osc6ZNoj7AJIXB3o.jpg	
1289251009760342018	17	tonystubblebine	Things I did right: I pushed for cutting burn asap. There was a fear of losing culture by ending office lease. My view: better to lose culture than lose the company. Layoffs were emotionally tough but they weren't doing anyone any favors by stringing people on for 3 more months. 	en	49	2	3	minal_hasan	2020-07-31T17:26:08.000Z	5,987	25,248				
1289245519340900353	17	tonystubblebine	Founders, it's possible to come back from the brink. Just went through it with a startup I'm on the Board of. I'm really proud of how far they've come. They went from $0 to $10M in revenues in 3 years, with a near shut down in 2018. Here's what happened: 	en	432	17	118	minal_hasan	2020-07-31T17:04:19.000Z	5,987	25,248				
1289201391769137152	17	tonystubblebine	Ceasefire, a strategy to drive down gun violence in a city with one of the country’s highest murder rates, was found to be directly associated with a 32 percent reduction in gun homicides since 2011. 	en	108	7	70	MotherJones	2020-07-31T14:08:58.000Z	5,987	25,248				
1288999357082226695	17	tonystubblebine	I’d like to put an intention out to the universe. I want to eat all fifty. Law of Attraction do your thing. 	en	3	0	0		2020-07-31T00:46:09.000Z	5,987	25,248				
1288956588821274625	17	tonystubblebine	By the end of the year, I think our authors will have made more than $1M. I never expected that. 	en	4	0	1		2020-07-30T21:56:13.000Z	5,987	25,248				
1288823493254164480	17	tonystubblebine	If anything, we should just move the election up. 	en	120249	2289	20165	ProjectLincoln	2020-07-30T13:07:20.000Z	5,987	25,248				
1288930220607705088	17	tonystubblebine	The last year has been a huge experiment in 50/50 partnerships. Early returns are that they make infinitely more money than trying to be the 100% owner. Infinite because these partnerships launched and things I've tried to build completely myself haven't. 	en	0	0	1		2020-07-30T20:11:26.000Z	5,987	25,248				
1288927606100897793	17	tonystubblebine	Is "mullet" common in other product designer's discussions? We used it today to describe two halves of a user experience. Front half is all business. Simple and to the point. The back half is all complexity. Where power users go to party. 	en	2	0	1		2020-07-30T20:01:03.000Z	5,987	25,248				
1288908115145089025	17	tonystubblebine	One of the best gifts you can gain through a great coaching experience is trusting yourself more. https://www.coach.me/testimonials/GvvOD 	en	1	0	0		2020-07-30T18:43:36.000Z	5,987	25,248				
1288863910200836102	17	tonystubblebine	What if YouTube had launched Netflix on top of itself? A huge UGC pool with a professional tier. There are many shows I watch on YouTube that are as important to me as what I watch on Netflix. 	en	0	0	0		2020-07-30T15:47:56.000Z	5,987	25,248				
1288852937003937799	17	tonystubblebine	I rarely do my best work. Often I do hard or insightful or productive work. But there's rarely time to do my absolute best. And so one of my theories on this iPhone post was, "What's the best writing that I am capable of?" It was an unreasonable amount of work, but now I know. 	en	1	0	1		2020-07-30T15:04:20.000Z	5,987	25,248				
1288569856690798593	17	tonystubblebine	Woooow! I can't wait to start the class this Saturday. 	en	1	0	1	kirisima	2020-07-29T20:19:28.000Z	5,987	25,248				
1288570925064093696	17	tonystubblebine	One of my favorite models: How are you feeling? You may want to: 1- Reduce the size of the challenge (chunk it to smaller bites) if you’re feeling anxious 2- Increase the size of the challenge if you’re feeling apathy/boredom 3- Work on developing your skills to get better 	en	12	0	1	haideralmosawi	2020-07-29T20:23:43.000Z	5,987	25,248				
1288568995155791874	17	tonystubblebine	Very psyched to have Leo from @zenhabits give our Commencement Keynote to our new class of Habit Coaches. Free to attend on Sunday: 	en	5	1	3		2020-07-29T20:16:03.000Z	5,987	25,248				
1288557337280684032	17	tonystubblebine	Just realized the value of getting almost to Flow just in terms of procrastination. The Anxiety, Worry, Apathy, Boredom, Relaxation states come with a lot of procrastination. If you can modulate skill/challenge to get out of them, you'll be more productive. 	en	13	0	3		2020-07-29T19:29:44.000Z	5,987	25,248				https://pbs.twimg.com/media/EeHfceDXkAEGt-i?format=png&amp;name=360x360
1288334165860024320	17	tonystubblebine	Nice 	en	2	0	0		2020-07-29T04:42:55.000Z	5,987	25,248				
1288251861691011072	17	tonystubblebine	Been thinking this more and more. It's become so easy to sell online today — and more and more people are producing content and things worth paying for... perhaps there's more of a golden era upon us than we realize! (Granted opportunity &amp; access isn't evenly distributed yet) 	en	29	7	3	chrismessina	2020-07-28T23:15:53.000Z	5,987	25,248				
1287560623035883520	17	tonystubblebine	Amazing Black Womxns' march in NYC tonight ((Movie camera)) : @EricDFeldman 	en	37750	129	14605	JoshuaPotash	2020-07-27T01:29:08.000Z	5,987	25,248		blob:https://twitter.com/1376722f-05fa-4660-80f3-2e8f05d7c33f	https://pbs.twimg.com/ext_tw_video_thumb/1287548632523317254/pu/img/Y3gBJwHZYq2bGo9v.jpg	
1287812096659468288	17	tonystubblebine	I'm psyched for the new grittier, artier NYC. Living in NYC to work in an office doesn't contribute anything to the culture. Living in NYC because you participate in an in-person art or you are so committed to arts/culture that you will pay a premium to live here... I like that. 	en	7	0	1		2020-07-27T18:08:24.000Z	5,987	25,248				
1287791034559352832	17	tonystubblebine	Even a lot of the "less athletic" greats were still physically dominant in some way. Magic was tall for a PG. Kareem was tall, period, which led to the unstoppable sky hook. Dirk's fadeaway was based on height. Curry is athletic enough. No more. Yet still all time great impact. 	en	3	2	0		2020-07-27T16:44:43.000Z	5,987	25,248				
1287791033401708544	17	tonystubblebine	It's deeply embedded into basketball fandom that the greats are physically dominant. Obv: Wilt, Jordan, Shaq, Lebron. Now Giannis and Zion. Steph breaks that. He's in the "changed the game" pantheon of greats, but 100% through skill dominance. 	en	3	1	1		2020-07-27T16:44:43.000Z	5,987	25,248				
1287761122897133570	17	tonystubblebine	That COVID work-from-home moment when you make a particularly corny joke to your SO over Slack and have to go visit her work space to make sure she "got it." 	en	6	2	0		2020-07-27T14:45:51.000Z	5,987	25,248				
1287502624577556480	17	tonystubblebine	I've renamed them all Thisday and Thatday 	en	1648	15	332	ekp	2020-07-26T21:38:40.000Z	5,987	25,248				
1287224256175251462	17	tonystubblebine	The justice ride that followed was massive as well. #nycprotests 	en	90	2	32	mikesandlernyc	2020-07-26T03:12:32.000Z	5,987	25,248		blob:https://twitter.com/2fffaebc-2872-4770-b2e4-ecbaa8072294	https://pbs.twimg.com/ext_tw_video_thumb/1287224001488654336/pu/img/bRDmuW5iz_jynRXq.jpg	
1287230561350819843	17	tonystubblebine	Stayed this strong until the very end... #nycprotests 	en	170	2	44	mikesandlernyc	2020-07-26T03:37:36.000Z	5,987	25,248		blob:https://twitter.com/c735a3ec-ad19-4038-8024-ee3f9ce8c236	https://pbs.twimg.com/ext_tw_video_thumb/1287230416475377665/pu/img/yr1ncxiD_sEC7roS.jpg	
1287145507991818240	17	tonystubblebine	Thousand of Protestors marching to Anti-Trump chants have shutdown traffic on the Brooklyn Bridge in Solidarity with Portland protesters! #nycprotests #PortlandProtest #politics 	en	12148	388	4584	IssaKhari	2020-07-25T21:59:37.000Z	5,987	25,248		blob:https://twitter.com/5326b4b2-22ee-4fb4-bfad-46da915d61b5	https://pbs.twimg.com/ext_tw_video_thumb/1287144224257908736/pu/img/jBL_N7_ByvJwgS18.jpg	
1287154812602273792	17	tonystubblebine	A huge crowd of anti-fascist protesters gathering in solidarity with Portland by the Stonewall Inn in NYC right now. 	en	8385	141	3263	JoshuaPotash	2020-07-25T22:36:36.000Z	5,987	25,248		blob:https://twitter.com/cdcf9169-aa9a-46ed-b2e5-7272492a17d2	https://pbs.twimg.com/ext_tw_video_thumb/1287154753059913729/pu/img/WZ9mYpMmzPyqVdgW.jpg	
1287107854755749889	17	tonystubblebine	ICYMI: Arise Sir Tom Moore: Queen Elizabeth knighted 100-year-old Captain Tom Moore who became a national hero during the UK's shutdown by raising millions of pounds for health service charities https://reut.rs/2CbZuMF 	en	1011	34	237	Reuters	2020-07-25T19:30:00.000Z	5,987	25,248		blob:https://twitter.com/735817a9-c55c-4def-854b-59cf9a0260f2	https://pbs.twimg.com/amplify_video_thumb/1284191002085875712/img/Xn7vGuUEqUmQyzkj.jpg	
1287024602514890753	17	tonystubblebine	Signs of an open mind: Listening to opinions that make you think hard, not just views that make you feel good Choosing friends based on the decency of their behavior, not the similarity of their beliefs Seeing disagreement as a chance to learn, not a threat to your ego 	en	9345	110	3216	AdamMGrant	2020-07-25T13:59:11.000Z	5,987	25,248				
1286702411197763584	17	tonystubblebine	Not a huge number to the unicorn crowd but one I’m honestly proud of because it has come through very slow growth over the last 10 years and not any one big break or gimmick. 	en	81	8	5	buster	2020-07-24T16:38:55.000Z	5,987	25,248				
1286616073874350082	17	tonystubblebine	Wow. Portland, last night. ((Blue heart)) 	en	67282	1476	20903	funder	2020-07-24T10:55:50.000Z	5,987	25,248		blob:https://twitter.com/304b2d6b-8fff-4739-9796-984ba3927237	https://pbs.twimg.com/ext_tw_video_thumb/1286524352633044992/pu/img/9RiMRuKRlbZN-qIw.jpg	
1286341653247201280	17	tonystubblebine	Here's a taste of all the incredibly written and reported journalism you can read on @Medium for $5/month 1/ https://marker.medium.com/austin-was-destined-to-replace-silicon-valley-then-the-pandemic-hit-6d5f5a332e04 	en	7	1	6	daniellesacks	2020-07-23T16:45:23.000Z	5,987	25,248				
1286356670306758658	17	tonystubblebine	Here we go. This excess death count is such an important way to look at the impact. 	en	4	0	1		2020-07-23T17:45:04.000Z	5,987	25,248				
1286307971832729602	17	tonystubblebine	This really was amazing. 	en	2	1	1		2020-07-23T14:31:33.000Z	5,987	25,248				
1286102875916165123	17	tonystubblebine	The majority of the editorial boards spoke up in 2016 and said don't vote for him. I think they learned that they don't drive public opinion like they used to. 	en	3	0	0		2020-07-23T00:56:34.000Z	5,987	25,248				
1286102611121315840	17	tonystubblebine	Excited for it! 	en	1	0	0		2020-07-23T00:55:31.000Z	5,987	25,248				
1286018121460064256	17	tonystubblebine	DHS rioting in Portland. The people want them out. Moms showed up to send them home. City government wants them out. State government wants them out. Hard no, this is not ok. 	en	4	1	0		2020-07-22T19:19:47.000Z	5,987	25,248				
1286011869296234501	17	tonystubblebine	What does it take to believe you are deserving? Deserving to live in a society where the police respect your wishes, where the politicians you elect work on your behalf? Whatever ego it takes, I have it in spades. 	en	4	1	0		2020-07-22T18:54:57.000Z	5,987	25,248				
1285908989428064256	17	tonystubblebine	I often hear that people are open to journaling but don’t know where to start. Here are some simple prompts I often use to get the wheels turning: •I need... •I am feeling... •I am grateful for... •I want to become... •Today will be great if... 	en	78	6	12	schlaf	2020-07-22T12:06:08.000Z	5,987	25,248				
1285789064948375554	17	tonystubblebine	I find it interesting that republicans and conservatives were very concerned about states rights and the need of the second amendment to protect against tyranny. All the way up until we fight against racism and all of a sudden they’re silent. #PortlandProtest 	en	22	1	8	rabble	2020-07-22T04:09:36.000Z	5,987	25,248				
1285737392662556672	17	tonystubblebine	The most important skill in being strategic is the ability to say no to whatever doesn't advance you towards your goal. 	en	21	1	2	brianmwang	2020-07-22T00:44:16.000Z	5,987	25,248				
1285675383673835521	17	tonystubblebine	I think this happened in fundraising. Some white male investors saw enough of themselves in me to take a chance. But no women invested, despite my efforts, and I think the reason is that the plan wasn't good enough. That should have been a sign. 	en	1	0	0		2020-07-21T20:37:52.000Z	5,987	25,248				
1285675382520393733	17	tonystubblebine	A lot of diversity work starts with you. You examine the bias in your own decision making and spend more time looking beyond your immediate network. That does a lot of good. But then I often end up finding that my offer isn't good enough. Do I improve it? Sometimes. 	en	2	1	0		2020-07-21T20:37:52.000Z	5,987	25,248				
1285649855927537669	17	tonystubblebine	Prioritizing Diversity Is Whose Job Again? by @hibaganta in @BttrProgramming 	en	3	0	0		2020-07-21T18:56:26.000Z	5,987	25,248				
1285644991898017794	17	tonystubblebine	"Calm is not just an app, it's going to be a brand you see everywhere in the world." That's what Alex told me in I think 2012. Now they just did a deal for a show with HBO. Important company that's also impressive in execution &amp; ambition. 	en	10	1	1		2020-07-21T18:37:06.000Z	5,987	25,248				
1285430926726635526	17	tonystubblebine	This account is run by high school journalists in #Portland . They’ve been doing great work and are worth following: 	en	980	14	350	leahmcelrath	2020-07-21T04:26:29.000Z	5,987	25,248				
1285427135746764800	17	tonystubblebine	Moms sing lullaby “hands up please don’t shoot me” 	en	37377	1014	18073	MrOlmos	2020-07-21T04:11:25.000Z	5,987	25,248		blob:https://twitter.com/ce88466f-1d72-484e-9da0-3429165bf819	https://pbs.twimg.com/ext_tw_video_thumb/1285427031371419649/pu/img/aYy8LrPb6RszkLsk.jpg	
1274527971513004033	18	Adam			482313	10876	119531	tompetty	2020-06-21T02:22:02.000Z	498	16,259				https://pbs.twimg.com/media/EbAIbp-U8AAfw0k?format=jpg&amp;name=360x360
1273325387875926016	18	Adam	Loving this U2 album that comes on every time I get in the car 	en	1	2	0		2020-06-17T18:43:24.000Z	498	16,259				https://pbs.twimg.com/media/EavCrv1VcAAyqu6?format=jpg&amp;name=small
1271476992760635392	18	Adam	. @jack - developer/artist. Wish there were more. 	en	1	0	0		2020-06-12T16:18:32.000Z	498	16,259				
1270442489002917888	18	Adam	We could use a guy like this as President of the United States. Or maybe Andy Kaufman. 	en	0	1	0		2020-06-09T19:47:47.000Z	498	16,259				
1268354739407687680	18	Adam	Definitely not a bot responding to my 2006 Tweet 	en	5	1	0		2020-06-04T01:31:49.000Z	498	16,259				https://pbs.twimg.com/media/EZoZ2klVcAEtEi1?format=jpg&amp;name=360x360
1268209206563225601	18	Adam	The Real Apprentice - Columbia Journalism Review 	en	0	0	0		2020-06-03T15:53:31.000Z	498	16,259				
1266729905489760256	18	Adam	What Kind of Country Do We Want? | by Marilynne Robinson | The New York Review of Books 	en	1	0	0		2020-05-30T13:55:18.000Z	498	16,259				
1263868204977291264	18	Adam	Donald Trump is so good at business and rich that he wrote everybody a personal check 	en	1	0	0		2020-05-22T16:23:56.000Z	498	16,259				https://pbs.twimg.com/media/EYopbiwVAAEXg3x?format=jpg&amp;name=360x360
1262874662188380162	18	Adam	Watch out Spotify, up and coming podcasting company 	en	2	0	0		2020-05-19T22:35:57.000Z	498	16,259				
1262247860071874561	18	Adam	Are they trying to say Jerry Sloan made the pizza? 	en	1	0	0		2020-05-18T05:05:15.000Z	498	16,259				
1261811019371786240	18	Adam	Cowboy 	en	1	0	0		2020-05-17T00:09:24.000Z	498	16,259		blob:https://twitter.com/cc4402fb-612e-498e-a4af-f691689fa76d	https://pbs.twimg.com/ext_tw_video_thumb/1261810976908644353/pu/img/oKDplzzi1812ZPZ5.jpg	
1261778077538897921	18	Adam	This is the first sincerely sweet thread I’ve read on Twitter since ‘07 	en	4	0	0		2020-05-16T21:58:31.000Z	498	16,259				
1260296526640721920	18	Adam	A mask would mess up his orange makeup. It's that simple. 	en	5	0	1		2020-05-12T19:51:21.000Z	498	16,259				
1259709094203518977	18	Adam	All of this might be true, but our ad tech is unbelievable 	en	5	0	0		2020-05-11T04:57:06.000Z	498	16,259				
1259671003539533825	18	Adam			0	0	0		2020-05-11T02:25:45.000Z	498	16,259				
1258594601805455362	18	Adam	Best Spike Lee movie of the 21st century may be this 3.5 minute-long tribute to the empty streets and landmarks of NYC in the time of COVID. Made with so much love for the city &amp; its people. Thank you, Spike: https://www.instagram.com/p/B_6DwoVnz0u/?fbclid=IwAR1F6HA1FPK0DpBmAjT0OjDm2seQqwHYXyXGexGnby-e3va0PODUpnQ8MUs 	en	481	10	208	thehighsign	2020-05-08T03:08:31.000Z	498	16,259				
1254640824203096064	18	Adam	Accidentally had a picnic w the kids 3 feet from this guy. Not sure when it showed up. 	en	8	3	0		2020-04-27T05:17:37.000Z	498	16,259				https://pbs.twimg.com/media/EWlhLCsUEAA2vk0?format=jpg&amp;name=360x360
1254127478555074560	18	Adam	Kenny G with Miles Davis 	en	4	1	0		2020-04-25T19:17:46.000Z	498	16,259				https://pbs.twimg.com/media/EWeOSySUEAAX6BQ?format=jpg&amp;name=360x360
1253468893084958720	18	Adam	This is my yoga mat and it’s okay 	en	11	1	0		2020-04-23T23:40:47.000Z	498	16,259				https://pbs.twimg.com/media/EWU3TuNUwAEjI3m?format=jpg&amp;name=360x360
1250485349328932864	18	Adam	Can’t say enough good things about the common naval orange 	en	3	2	0		2020-04-15T18:05:14.000Z	498	16,259				https://pbs.twimg.com/media/EVqdyzSUcAA_1QD?format=jpg&amp;name=small
1249818875174088704	18	Adam	My brother revived his 16 year-old podcast: Uncensored History of the Blues: Coronavirus Special - Disease Blues http://uncensoredhistoryoftheblues.purplebeech.com/2020/04/coronavirus-special-disease-blues.html 	en	1	0	0		2020-04-13T21:56:55.000Z	498	16,259				
1245205559839584256	18	Adam	Good news: I have never purchased any pencils, yet I have this many pencils 	en	3	2	0		2020-04-01T04:25:14.000Z	498	16,259				https://pbs.twimg.com/media/EUfblyNVAAAnpih?format=jpg&amp;name=360x360
1243393039315259392	18	Adam	Type the year you turned 10 into GIF search 	en	0	0	0		2020-03-27T04:22:56.000Z	498	16,259		https://video.twimg.com/tweet_video/EUFrYFCUEAQUKVL.mp4	https://pbs.twimg.com/tweet_video_thumb/EUFrYFCUEAQUKVL.jpg	
1242809779292196876	18	Adam	Uganda has the best Coronavirus PSA. 	es	19100	235	9831	ksieff	2020-03-25T13:45:16.000Z	498	16,259		blob:https://twitter.com/b5dbc1bf-bf5a-48b0-aefd-2645638c38b3	https://pbs.twimg.com/ext_tw_video_thumb/1242724712427520002/pu/img/eee1tK6ORzbzTt9-.jpg	
1241188257293053953	18	Adam	Underneath the bunker. We are going to get through it. 	en	31552	1021	8811	remhq	2020-03-21T02:21:55.000Z	498	16,259		blob:https://twitter.com/b4e98a96-9897-4f75-a1a6-eb479f9ac15f	https://pbs.twimg.com/ext_tw_video_thumb/1241188083753779200/pu/img/J2jZC3kv-NCNi53j.jpg	
1240850011283263488	18	Adam	Everything is terrible except Amazon Elasticsearch documentation starts with an Animal House reference https://docs.aws.amazon.com/elasticsearch-service/latest/developerguide/es-searching.html 	en	1	0	0		2020-03-20T03:57:51.000Z	498	16,259				
1240451032250863617	18	Adam	Where my libertarians at 	en	1	0	0		2020-03-19T01:32:27.000Z	498	16,259				
1240305969331974144	18	Adam	1 vote for this stand-in to take over the job of President of the United States #Briefing_COVID19 	en	2	0	0		2020-03-18T15:56:01.000Z	498	16,259				https://pbs.twimg.com/media/ETZzHqGUYAELBpN?format=jpg&amp;name=360x360
1240070781855391744	18	Adam	I fought the law and the law won 	en	1	0	0		2020-03-18T00:21:28.000Z	498	16,259				
1238914069567909889	18	Adam	But now Google is on the hook to build it. Stable orange genius. 	en	1	1	0		2020-03-14T19:45:06.000Z	498	16,259				
1237555003352469509	18	Adam	EXCLUSIVE: For weeks, thousands of flu samples sat in Seattle as researchers sought to test and flag them for coronavirus. The C.D.C. wouldn’t allow it. When testing did happen, it was too late. The virus was upon us. https://www.nytimes.com/2020/03/10/us/coronavirus-testing-delays.html w/ @sherifink 	en	34634	1426	27877	ByMikeBaker	2020-03-11T01:44:40.000Z	498	16,259				
1237191674956091392	18	Adam	Max and Ace say Devil Went Down to Georgia by The Charlie Daniels Band is their favorite song 	en	4	1	0		2020-03-10T01:40:55.000Z	498	16,259				https://pbs.twimg.com/media/EStiquPUEAAgzGg?format=png&amp;name=360x360 https://pbs.twimg.com/media/EStjCVyU0AAX-VD?format=jpg&amp;name=240x240
1236724467541241861	18	Adam	David Foster Wallace on cruise ships, pre-Corona https://harpers.org/wp-content/uploads/2008/09/HarpersMagazine-1996-01-0007859.pdf 	en	1	0	0		2020-03-08T18:44:24.000Z	498	16,259				
1235070495881441280	18	Adam	Excellent night for the Jews in American Samoa #ElectionDay 	en	4	0	2		2020-03-04T05:12:07.000Z	498	16,259				https://pbs.twimg.com/media/ESPZ7XyUcAAVw7w?format=jpg&amp;name=360x360
1224765882187927552	18	Adam	I remember hearing “let a thousand flowers bloom” with regard to early social media. Is it going well? 	en	1	2	0		2020-02-04T18:45:16.000Z	498	16,259				
1222024596573974528	18	Adam	Kobe jerseys everywhere on LA Metro 	en	5	1	0		2020-01-28T05:12:22.000Z	498	16,259				https://pbs.twimg.com/media/EPWA4pQUUAADePC?format=jpg&amp;name=360x360
1220543675253411840	18	Adam	I’d like to say some nice things about the salad from Wolfgang Puck at the Burbank Airport 	en	4	1	1		2020-01-24T03:07:43.000Z	498	16,259				https://pbs.twimg.com/media/EPA9_0nUcAAHaIo?format=jpg&amp;name=360x360
1217180406388101121	18	Adam	Derrick Henry high school highlights are a good reason to never play high school football https://www.maxpreps.com/video/watch/derrick-henry-high-school-highlights?v=bb34046f-ea05-422b-be5b-4595341bf9af 	en	0	0	0		2020-01-14T20:23:17.000Z	498	16,259				
1214739200219607041	18	Adam	I was alone in a hotel room with a very naked Julia Child, the famous chef. (One of the hazards of a hotel room-service job). 	en	8	0	1		2020-01-08T02:42:48.000Z	498	16,259				
1212148231284510720	18	Adam	I learn so much on Twitter but often wish there was more contrarian thought leadership here 	en	1	0	0		2019-12-31T23:07:13.000Z	498	16,259				
1204829406566338561	18	Adam	Time machine @blaine @al3x @rabble 	en	5	0	0		2019-12-11T18:24:49.000Z	498	16,259				
1204222571845054464	18	Adam	Seeking serious academic research on Pop Goes the Weasel by 3rd Bass, 1991 	en	1	0	0		2019-12-10T02:13:29.000Z	498	16,259				
1202080465907113985	18	Adam	Feeling emotional about a hootie and the blowfish song, send love 	en	6	0	0		2019-12-04T04:21:31.000Z	498	16,259				
1197396744876761088	18	Adam	. @pattonoswalt made a tweet that showed Trump’s handwritten notes and the caption was simply “Morrissey voice:”. Needless to say, I got inspired and put WAY to much effort into this. 	en	35454	1035	12447	BenJamminAsh	2019-11-21T06:10:05.000Z	498	16,259		blob:https://twitter.com/2b25825b-a2cc-4c1c-9997-1576d43eea5d	https://pbs.twimg.com/ext_tw_video_thumb/1197396667982602240/pu/img/Wfv4HKhpKik0WeJ6.jpg	
1185409618261860356	18	Adam	Much credit to the pear for supporting such juicy flesh with a very thin core 	en	1	0	0		2019-10-19T04:17:31.000Z	498	16,259				https://pbs.twimg.com/media/EHNrwzVU8AEu5Vd?format=jpg&amp;name=small
1184118912666914817	18	Adam	I’d like to get on a few dozen email lists where I can get exclusive access to webinars. Any ideas? 	en	3	0	0		2019-10-15T14:48:43.000Z	498	16,259				
1182808049930530816	18	Adam	If @JasonIsbell jumps into the thread then I will definitely boost the number to prevent any confusion. 	en	12	1	1	sacca	2019-10-11T23:59:49.000Z	498	16,259				
1182460957743730688	18	Adam	Twistin' 'round the fire Havin' fun Bakin' potatoes Bakin' in the sun 	en	0	0	0		2019-10-11T01:00:36.000Z	498	16,259				https://pbs.twimg.com/media/EGjx96cVAAE-quk?format=jpg&amp;name=small
1181984566086533120	18	Adam	Crawfish fights back 	en	0	0	0		2019-10-09T17:27:35.000Z	498	16,259		blob:https://twitter.com/f9aa6b0b-926c-4147-8af4-7b0ddc84d8a9	https://pbs.twimg.com/ext_tw_video_thumb/1181984489880244225/pu/img/4GYPaMRlJpVsy-ni.jpg	
1181429996239372288	18	Adam	@Adam Schiff not only needs to be censured, he needs to be brought up on Treason charges. This is a coup against a sitting President. He is a despicable human being!!!!!!!!!!!!!! Let’s not forget the Standard Hotel. 	en	1	0	2	CathyFr21015241	2019-10-08T04:43:55.000Z	498	16,259				
1181412394632806400	18	Adam	I’m getting a lot of angry tweets intended for @RepAdamSchiff . That’s some good reading 	en	11	4	3		2019-10-08T03:33:59.000Z	498	16,259				
1179862122919890944	18	Adam	She’s gonna win the whole thing 	en	2	0	0		2019-10-03T20:53:45.000Z	498	16,259				
1179590720941805569	18	Adam	I would feel better if I knew more about the management 	en	2	0	0		2019-10-03T02:55:18.000Z	498	16,259				https://pbs.twimg.com/media/EF6_gWqUcAAiKxc?format=jpg&amp;name=small
1179115243231776768	18	Adam	Every Keitt mango looks like a manatee 	en	1	0	0		2019-10-01T19:25:55.000Z	498	16,259				https://pbs.twimg.com/media/EF0PD7XU8AAAXSf?format=jpg&amp;name=360x360
1176704736059375618	18	Adam	Big Jeff and the gang 	en	3	1	0		2019-09-25T03:47:25.000Z	498	16,259				https://pbs.twimg.com/media/EFR-t4zXYAAGpDD?format=jpg&amp;name=360x360
1176152787224121344	18	Adam	Disillusioned tech workers are responding to their malaise by...applying the toxic myth of the 10x engineer to the concept of therapy! https://www.nytimes.com/2019/09/20/business/silicon-valley-therapy-anxiety.html 	en	48	8	13	buzz	2019-09-23T15:14:10.000Z	498	16,259				https://pbs.twimg.com/media/EFKIuV7UYAEn2fv?format=jpg&amp;name=360x360
1171504363128254464	18	Adam	Name, image and likeness rights for players is a civil rights issue. Literally every other person, including every other student, is allowed full economic rights. What’s the excuse for limiting athletes only? There isn’t one. 	en	1047	35	304	JayBilas	2019-09-10T19:23:00.000Z	498	16,259		blob:https://twitter.com/b7045ed6-df49-44c9-b41c-11412d8add37	https://pbs.twimg.com/ext_tw_video_thumb/1171504284342476801/pu/img/bG5-8fN7u8oZL2ak.jpg	
1169674440356970496	18	Adam	LA 	und	1	0	0		2019-09-05T18:11:32.000Z	498	16,259				https://pbs.twimg.com/media/EDuEs0bVUAAxkZz?format=jpg&amp;name=360x360
1168357170896723968	18	Adam	When you work with really really smart people 	en	4	0	0		2019-09-02T02:57:11.000Z	498	16,259				https://pbs.twimg.com/media/EDbWpc7UYAAV7Oi?format=jpg&amp;name=360x360
1163956174267408384	18	Adam			0	1	0		2019-08-20T23:29:11.000Z	498	16,259				https://pbs.twimg.com/media/ECcz9ykUYAArxUY?format=jpg&amp;name=360x360
1155145008774864902	18	Adam	Is there a case-study story of a passenger following along, and successfully deploying, airline safety info? 	en	0	1	0		2019-07-27T15:56:46.000Z	498	16,259				https://pbs.twimg.com/media/EAfmQiOXoAASjd1?format=jpg&amp;name=360x360
1149768619175190528	18	Adam	Whoever estimates Uber “MIN AWAY” must be an optimistic guy. Would love to meet him. 	en	3	0	0		2019-07-12T19:52:55.000Z	498	16,259				https://pbs.twimg.com/media/D_TMdjVUwAAR_GC?format=jpg&amp;name=360x360
1149163954498760709	18	Adam	Whole Foods jail if you trash the compostables 	en	3	2	0		2019-07-11T03:50:11.000Z	498	16,259				https://pbs.twimg.com/media/D_KmhfdVUAAK6LQ?format=jpg&amp;name=360x360
1291183813058420736	20	ev	“The Chemistry of the Beirut Tragedy” by Kevin Folta 	en	25	9	15		2020-08-06T01:26:24.000Z	1,094	1,770,084				
1288183368387973120	20	ev	Aiming to bring some personal pizzazz back to the web ((✨)) 	en	82	13	21		2020-07-28T18:43:42.000Z	1,094	1,770,084				
1287785569045553152	20	ev	“We Can Eliminate Covid-19 If We Want To” by @ASlavitt https://link.medium.com/O7yE7ihYs8 	en	100	13	33		2020-07-27T16:23:00.000Z	1,094	1,770,084				https://pbs.twimg.com/media/Ed8iJgTU8AE0dnG?format=jpg&amp;name=360x360
1280196042806276096	20	ev	Kaepernick, Disney announce partnership deal 	en	17034	1297	2949	RobertIger	2020-07-06T17:44:56.000Z	1,094	1,770,084				
1279053591731253249	20	ev	“The Future Alexander Hamilton Warned About Has Arrived” by David Litt 	en	65	18	26		2020-07-03T14:05:14.000Z	1,094	1,770,084				
1278478498533904384	20	ev	▓▓▓▓▓▓▓▓░░░░░░░ 50% 	und	93475	585	34591	year_progress	2020-07-02T00:00:01.000Z	1,094	1,770,084				
1274542477853122561	20	ev	The relative rotation periods of planets in 2-D 	en	17757	164	5952	physicsJ	2020-06-21T03:19:41.000Z	1,094	1,770,084		blob:https://twitter.com/c6fb20f1-5600-40bf-b96d-1ba774148cd4	https://pbs.twimg.com/amplify_video_thumb/1274540083538845696/img/hb4zKU0XlKEzZOCb.jpg	
1274007396449284096	20	ev	“What Every American Should Know About Juneteenth” by Cheryl Brown 	en	44	11	21		2020-06-19T15:53:27.000Z	1,094	1,770,084				
1273326281875046400	20	ev	Published this piece 3.5 years ago on unconscious bias training + tactics for companies, and their benefits (i.e. greater profitability). It couldn't be more true today. Thank you again for the insight @joelle_emerson @prdgm cc/ @gabekleinman 	en	25	2	6	obviousvc	2020-06-17T18:46:57.000Z	1,094	1,770,084				
1272232312541863938	20	ev	I.e., "The Maskerade"? – The Masks Masquerade by @nntaleb 	en	52	6	22		2020-06-14T18:19:54.000Z	1,094	1,770,084				
1271102006770442240	20	ev	Today, @Medium launches Momentum, a new Medium blog that will amplify the voices dedicated to dismantling anti-Black racism. Read more about what we’re doing: 	en	231	8	69	siobhannyc	2020-06-11T15:28:29.000Z	1,094	1,770,084				
1270116573576155142	20	ev	Dear incredibly talented writers: please see the thread below. I’d love to give your brilliant ideas a home. 	en	135	9	63	JermaineHall	2020-06-08T22:12:43.000Z	1,094	1,770,084				
1269989880089567232	20	ev	As you start the new week, remember that it's OK to change your mind once you get new information. Your past opinions should not a prison for your future decisions. 	en	2061	15	757	Carnage4Life	2020-06-08T13:49:17.000Z	1,094	1,770,084				
1268008447573884928	20	ev	Solid ad. 	en	55	4	30	McAndrew	2020-06-03T02:35:47.000Z	1,094	1,770,084				
1267878675086704646	20	ev	▓▓▓▓▓▓░░░░░░░░░ 42% 	und	10442	167	2652	year_progress	2020-06-02T18:00:06.000Z	1,094	1,770,084				
1267597601874087936	20	ev	Joe Biden spent today in church listening to black faith leaders. Donald Trump spent today firing tear gas on peaceful protesters for a photo op at a church. 	en	1234	31	572	mattmfm	2020-06-01T23:23:13.000Z	1,094	1,770,084				https://pbs.twimg.com/media/EZdpS_3XYAEIb9p?format=jpg&amp;name=360x360
1267545458592714752	20	ev	The Greater Crisis by @obviousvc 	en	88	13	30		2020-06-01T19:56:01.000Z	1,094	1,770,084				
1266933626035265541	20	ev	I close today with a very heavy heart. I ache for my country and all those in pain. I rage at a national leadership bereft of empathy and the minimal instincts of de escalation. May tomorrow shine its light upon a path towards love, peace, and most importantly, justice. 	en	116989	1523	22916	DanRather	2020-05-31T03:24:49.000Z	1,094	1,770,084				
1265744564096098304	20	ev	No one person at Twitter is responsible for our policies or enforcement actions. We are a team with different points of view and we stand behind our people and our decisions to protect the health of the public conversation on our platform. 	en	1926	417	487	vijaya	2020-05-27T20:39:55.000Z	1,094	1,770,084				
1265658606419972096	20	ev	A few ideas on how all the companies announcing "work from home, forever" can take a more human-centered approach to support their people. from @obviousvc very own @itsmeeraclark Designing a Better Remote Reality by 	en	42	1	11	andrewbeebe	2020-05-27T14:58:21.000Z	1,094	1,770,084				
1257770217905680385	20	ev	WANTED: YOU for COVID 19 research....Here's a great video from VICE describing the problem and solution... 	en	17	1	15	Rajil	2020-05-05T20:32:42.000Z	1,094	1,770,084				
1250459255146024960	20	ev	Look for Elon Musk to Unveil a Futuristic New Battery That Will Shake the Electric Car Market by @stevelevine in @MRKR 	en	87	28	34		2020-04-15T16:21:33.000Z	1,094	1,770,084				
1248668187530539010	20	ev	We just released The Ultimate Remote Work Tools Landscape! ((😱)) 200 entries broken down by category ((🎁)) Interactive market map and table ((📖)) Part of the @Holloway Guide to Remote Work ((🤝)) Collaborative—help us improve it! 	en	133	7	56	SparksZilla	2020-04-10T17:44:29.000Z	1,094	1,770,084				
1248477128212930565	20	ev	“The Ingredients of a Lasting Friendship” 	en	117	14	38		2020-04-10T05:05:17.000Z	1,094	1,770,084				
1246281617477230592	20	ev	Good idea, well executed. Good work, ⁦ @8en ⁩ 	en	77	8	23		2020-04-04T03:41:07.000Z	1,094	1,770,084				
1244691951137349634	20	ev	Very actionable piece on strengthening your immunity by @AmoryLovins . 	en	143	10	61		2020-03-30T18:24:21.000Z	1,094	1,770,084				
1243713284580069376	20	ev	This is pretty fascinating from @Yelp https://medium.com/locally-optimal/yelp-coronavirus-economic-impact-report-march-27-2020-229c700fa32c 	en	94	7	38		2020-03-28T01:35:28.000Z	1,094	1,770,084				
1242210803085787137	20	ev	Yay 	und	64	5	6		2020-03-23T22:05:09.000Z	1,094	1,770,084				
1241930749508542466	20	ev	Finally home after 13 hours in the ER. Today &gt;90% of my patients were confirmed or likely #COVID19 . Many really sick, some in their 30s like me. The sirens on otherwise empty NYC streets are unending &amp; haunting. I’m tired. But really honored to be back in the ER in the morning. 	en	120518	5385	19534	Craig_A_Spencer	2020-03-23T03:32:19.000Z	1,094	1,770,084				
1241453712532369408	20	ev	“Nothing Left to Take Away” by JT Nakagawa https://link.medium.com/f6MJwOWL24 	en	39	8	19		2020-03-21T19:56:44.000Z	1,094	1,770,084				
1238691329951006721	20	ev	▓▓▓░░░░░░░░░░░░ 20% 	und	14041	153	4427	year_progress	2020-03-14T05:00:01.000Z	1,094	1,770,084				
1237869303841484806	20	ev	A whole lotta people reading this right now. "Coronavirus: Why You Must Act Now." Sounds alarmist but it's super compelling and well-reasoned. 	en	657	32	323		2020-03-11T22:33:35.000Z	1,094	1,770,084				
1230982122548211712	20	ev	“Early COVID-19 outbreaks are likely already in America: we should do more to stop them” by @uber_ed_baker https://link.medium.com/Hk9b3WpOg4 Yikes 	en	38	18	17		2020-02-21T22:26:23.000Z	1,094	1,770,084				
1228710002367463424	20	ev	From “The Courage to Be Disliked” 	en	30	12	3		2020-02-15T15:57:47.000Z	1,094	1,770,084				
1228709762398711809	20	ev			108	9	16		2020-02-15T15:56:50.000Z	1,094	1,770,084				https://pbs.twimg.com/media/EQ1BAreUwAAHCE7?format=jpg&amp;name=360x360
1227317652462415873	20	ev	We're looking for a creative director at Medium ( https://jobs.lever.co/medium/c6d2d11f-1cb5-472c-97a1-e1257f49779b ), which will be a fun and interesting job, especially as we expand...possibilities this year ((😻)) 	en	49	13	24		2020-02-11T19:45:05.000Z	1,094	1,770,084				
1227272273368883200	20	ev	Why I’m concerned about the coronavirus: applying viral growth data metrics to a growing crisis by @uber_ed_baker 	en	58	6	26		2020-02-11T16:44:46.000Z	1,094	1,770,084				
1227263552198717441	20	ev	It’s impossible to travel a great distance in a straight line. 	en	320	21	71		2020-02-11T16:10:06.000Z	1,094	1,770,084				
1218097350926897152	20	ev			473	3	114	davidshrigley	2020-01-17T09:06:54.000Z	1,094	1,770,084				https://pbs.twimg.com/media/EOeNFEcX0AEXJok?format=jpg&amp;name=360x360
1224737657131098117	20	ev	Coffee was magically brought to me in this beautiful mug this morning. 	en	80	17	15		2020-02-04T16:53:06.000Z	1,094	1,770,084				https://pbs.twimg.com/media/EP8kZr-XsAI7JeB?format=jpg&amp;name=360x360
1222938897744683008	20	ev	My @obviousvc partner @andrewbeebe publishes his magnum opus: a comprehensive series on how to do OKRs right. One of the biggest differences that I notice about experienced founders is that they take stuff like this VERY seriously. 	en	52	1	11	nanli	2020-01-30T17:45:28.000Z	1,094	1,770,084				
1217252669003190272	20	ev	100M * e = OV3 [$271,828,182 = our third fund] Perhaps not what Euhler envisioned when he discovered one of the most important constants in mathematics, but still... 	en	40	5	12	andrewbeebe	2020-01-15T01:10:26.000Z	1,094	1,770,084				
1217263408921399297	20	ev	2019 Book Recommendations by @vkhosla 	fr	85	10	10		2020-01-15T01:53:07.000Z	1,094	1,770,084				
1217169604046475271	20	ev	“I find this amusing. You’re assuming I’m not doing this to do the right thing, and I keep telling you: That’s bullshit.” — Matt Laslo 	en	19	6	9		2020-01-14T19:40:22.000Z	1,094	1,770,084				
1215663877616107522	20	ev	This is extraordinary. ‘I Believe in Love’: Elizabeth Wurtzel’s Final Year, In Her Own Words by @LizzieWurtzel in @genmag 	en	53	6	10		2020-01-10T15:57:09.000Z	1,094	1,770,084				
1214398745170923520	20	ev	Play Anything ⁦ @ibogost ⁩ 	en	122	3	38		2020-01-07T04:09:57.000Z	1,094	1,770,084				https://pbs.twimg.com/media/ENppOAqXsAAlk29?format=jpg&amp;name=360x360
1214240902467719169	20	ev	What 15 Years of Y Combinator Investments Can Teach Us About Startups by @efeng in @MRKR 	en	96	2	24		2020-01-06T17:42:45.000Z	1,094	1,770,084				
1214175433291378688	20	ev	((Thinking face)) 	und	380	29	65		2020-01-06T13:22:36.000Z	1,094	1,770,084				https://pbs.twimg.com/media/ENmeHhuVUAARJwG?format=jpg&amp;name=360x360
1205169579271409664	20	ev	But we have certainly not reached the final evolution of social communications architecture. 	en	56	12	6		2019-12-12T16:56:33.000Z	1,094	1,770,084				
1205168065656193025	20	ev	I’m not saying it was correct (although it probably was at the time). 	en	30	6	5		2019-12-12T16:50:32.000Z	1,094	1,770,084				
1204967457967861760	20	ev	In 2009, @al3x wrote a great internal paper on why Twitter should move to decentralization. I wrote an even more convincing (to me) argument against it. 	en	161	21	21		2019-12-12T03:33:23.000Z	1,094	1,770,084				
1204774498718961667	20	ev	"Many investors consider it a bad sign when someone does too many interviews..." The Cynic’s Guide to Reading Business Books by @byrneseyeview 	en	77	6	15		2019-12-11T14:46:38.000Z	1,094	1,770,084				
1201894615047196672	20	ev	((Raising hands)) to the team on our newest launch 	en	64	8	8		2019-12-03T16:03:01.000Z	1,094	1,770,084				
1196825103574687745	20	ev	My book, "The Attention Merchants" in original form had a number chapters I cut and never published. Here's one of them -- the first, on the role of the humble coffee house's role in creating "the news" 	en	116	8	48	superwuster	2019-11-19T16:18:35.000Z	1,094	1,770,084				
1195527049135493120	20	ev	“Why Does Tipping Still Exist?” by @freakonomics 	en	81	14	21		2019-11-16T02:20:34.000Z	1,094	1,770,084				
1189657713611091978	20	ev	Can’t remember the last time people were this excited over something Twitter announced. Maybe their new strategy should just be to take the opposite stand from Facebook on everything. 	en	230	8	35	WillOremus	2019-10-30T21:37:56.000Z	1,094	1,770,084				
1189693718674186240	20	ev			88	11	5		2019-10-31T00:01:00.000Z	1,094	1,770,084		https://video.twimg.com/tweet_video/EIKkHWrWkAINxxB.mp4	https://pbs.twimg.com/tweet_video_thumb/EIKkHWrWkAINxxB.jpg	
1189640386257575943	20	ev	((Flexed biceps)) move @jack and tweeps. 	en	487	14	33		2019-10-30T20:29:05.000Z	1,094	1,770,084				
1189557255877865473	20	ev	Your Mission Statement Is Not Your Company Culture by @bhorowitz 	en	70	4	23		2019-10-30T14:58:45.000Z	1,094	1,770,084				
1187379784436912128	20	ev	What Colin Powell Knows About Winning 	en	13	0	4	MRKR	2019-10-24T14:46:15.000Z	1,094	1,770,084				
1184917050222882817	20	ev	“When you hit Dunbar’s number, exit” — @byrneseyeview 	en	30	2	7		2019-10-17T19:40:14.000Z	1,094	1,770,084				
1176580645012803591	20	ev	Tesla May Have Invented a Million-Mile Electric Car Battery by @stevelevine 	en	111	12	34		2019-09-24T19:34:20.000Z	1,094	1,770,084				
1176308705886912512	20	ev	My Biggest Competitive Advantage Is to Look You in the Eye by @BrianGrazer 	en	82	9	22		2019-09-24T01:33:44.000Z	1,094	1,770,084				
1175075647728881664	20	ev	only problem with @BeyondMeat being at fast food joints, is now I've eaten fast food more times in the last six months than the last 10 years. Just enjoyed a @dunkindonuts Beyond breakfast sandwich. In the name of research! ((Face savouring food)) 	en	242	15	14		2019-09-20T15:54:00.000Z	1,094	1,770,084				
1171490652455989248	20	ev			52	2	13		2019-09-10T18:28:31.000Z	1,094	1,770,084				
1169059252260003841	20	ev	I don’t usually highlight when reading fiction, but there are so many beautifully constructed and poignant passages in FLEISHMAN IS IN TROUBLE by @taffyakner it’s worth reading on kindle. (Also, I find it much harder to appreciate great prose in audio form.) Highly recommended. 	en	104	48	6		2019-09-04T01:27:00.000Z	1,094	1,770,084				
1168999923884408833	20	ev	The Rise and Spread of Excessive Wealth Disorder by Chuck Thompson 	en	33	5	15		2019-09-03T21:31:15.000Z	1,094	1,770,084				
1161041359584677888	20	ev	Know any tech-savvy, editorial-savvy, forward thinkers who want to run an awesome site telling interesting stories about where the world is going? https://jobs.lever.co/medium/c54cb76c-a7be-4042-856a-80c5c4ac024f 	en	110	19	47		2019-08-12T22:26:45.000Z	1,094	1,770,084				
1030201282202492928	20	ev	Shuffle knows best 	en	8	0	5	AUROIxOfficial	2018-08-16T21:15:00.000Z	1,094	1,770,084				
1155913630325432320	20	ev	“A Memo to Our Democratic Presidential Candidates” by Rahm Emanuel 	en	34	12	11		2019-07-29T18:50:59.000Z	1,094	1,770,084				
1155216502196322304	20	ev	“Cauliflower Steaks Are an Abomination” by Jack Shepherd https://link.medium.com/Q97t48WNFY 	en	39	4	15		2019-07-27T20:40:51.000Z	1,094	1,770,084				https://pbs.twimg.com/media/EAgnSIjVUAEM2SQ?format=jpg&amp;name=360x360
1154975575972253696	20	ev	“What If Avoiding the Sun Is Bad for You?” by Markham Heid https://link.medium.com/pFEfIfyHEY 	en	58	7	24		2019-07-27T04:43:30.000Z	1,094	1,770,084				https://pbs.twimg.com/media/EAdMKVhUYAApPBo?format=jpg&amp;name=360x360
1154946751054278656	20	ev	“Evidence, Please” by @jeffjarvis https://link.medium.com/H6uPI4mzEY 	en	73	9	39		2019-07-27T02:48:57.000Z	1,094	1,770,084				https://pbs.twimg.com/media/EAcx8d6U8AALmpF?format=jpg&amp;name=360x360
1151287047950229506	20	ev	"We may, in short, be entering a “startup winter.” This is a problem that affects many industries, but is particularly obvious in the Internet economy." It’s Time to Reboot the Startup Economy by @superwuster 	en	76	4	25		2019-07-17T00:26:36.000Z	1,094	1,770,084				
1151170116077461504	20	ev	For 9 months, @RianDundon was afforded a backstage pass to China’s celebrity-industrial complex, traveling alongside Fan Bingbing, "the Angelina Jolie of China." Little did he guess the extent to which he would become a part of the story himself. 	en	24	1	8	GENmag	2019-07-16T16:41:58.000Z	1,094	1,770,084				
1138202429168574464	20	ev	Stoked about our launch of @zoramag today: 	en	65	7	25		2019-06-10T21:53:00.000Z	1,094	1,770,084				
1131307514534932480	20	ev	Our company @panic has been around for a long-ass time, and we've made lots of great software. But one day we realized: we're self-funded, and there's nobody to tell us what to do. Why aren't we trying more new things? 	en	2981	27	155	playdate	2019-05-22T21:15:04.000Z	1,094	1,770,084				https://pbs.twimg.com/media/D7M2L2mUcAAFBuB?format=jpg&amp;name=360x360
1131258534333566976	20	ev	And that is both the beauty and the problem. People. 	en	329	36	69		2019-05-22T18:00:27.000Z	1,094	1,770,084				
1131258531867373568	20	ev	That’s just me. I read Twitter a lot (have to put that caveat in there, so there’s not a “Twitter cofounder doesn’t use Twitter anymore” story). But I always preferred to think of it as an information network, rather than a social network. I realize of course that it is both. 	en	299	22	42		2019-05-22T18:00:26.000Z	1,094	1,770,084				
1131258528402776064	20	ev	Frankly, I rarely tweet anything other than a link, because I don’t enjoy debating with strangers in a public setting. Even polite ones. I can think of fewer activities that are as time-consuming *and* frustrating. Perhaps golf. But at least then you get nature. 	en	326	11	50		2019-05-22T18:00:25.000Z	1,094	1,770,084				
1131258525714341888	20	ev	Whatever the case, no one would argue that this particular aspect of this system is a force for good. 	en	54	5	9		2019-05-22T18:00:24.000Z	1,094	1,770,084				
1131258523059310592	20	ev	Perhaps they don’t even have those views and are just trying to be *seen* by someone anywhere because they didn’t get enough validation as children. I don’t know. We all have our dysfunctions. 	en	71	4	11		2019-05-22T18:00:24.000Z	1,094	1,770,084				
1131258520853069824	20	ev	Perhaps just as many people had those terrible views before but they stayed inside their heads or within their family (to infect the next generation of bigots). Perhaps those views are being exacerbated or even created by access to other assholes via the internet. 	en	96	10	19		2019-05-22T18:00:23.000Z	1,094	1,770,084				
1131258518646820864	20	ev	I had dinner the other night with a famous person who does (or did) read their replies and who was quite upset at the abuse he’d seen. I felt for him. We’ve enabled people to be nasty in a new and visible way that didn’t exist before. 	en	113	4	41		2019-05-22T18:00:23.000Z	1,094	1,770,084				
1131258515287265281	20	ev	I probably won’t read the replies so it doesn’t matter that much. But I’ll know they’re there. 	en	49	7	19		2019-05-22T18:00:22.000Z	1,094	1,770,084				
1131258512212807680	20	ev	Lastly, as I think about hitting the send button on this thread, I’m aware of an irony, which is that coming off in defense of or excusing Twitter around abuse issues is likely to be met with vitriol...on Twitter. 	en	57	2	11		2019-05-22T18:00:21.000Z	1,094	1,770,084				
1131258510069493760	20	ev	Just know that without the data and information the smart people working on this problem every day have, it’s hard to know. And most theories don’t work in practice. That said, they *are* making progress. 	en	57	4	11		2019-05-22T18:00:21.000Z	1,094	1,770,084				
1131258505971716097	20	ev	We always wanted to remain openminded and find good ideas where we could. From what I know of the people at Twitter today, they have this same attitude. If you have constructive ideas, I’d be interested in seeing them. (Publish them on Medium—or start a company!) 	en	82	10	13		2019-05-22T18:00:20.000Z	1,094	1,770,084				
1131258503253807104	20	ev	I’m sure there are many good ideas out there—both within platform companies and outside. We had a principle in the early days of Twitter that @biz and I always shared with new employees: There are more smart people outside the company than inside. 	en	159	7	34		2019-05-22T18:00:19.000Z	1,094	1,770,084				
1131258500791717888	20	ev	It’s certainly not as easy as many commentators seem to think—at least not if you want to retain many of the benefits. 	en	91	9	18		2019-05-22T18:00:19.000Z	1,094	1,770,084				
1131258498543542274	20	ev	Anyway, I am confident there are things that can be done. I also don’t know exactly what those things are. Stop asking me! :) If I come up with a brilliant idea, I’ll let the company know. 	en	76	5	14		2019-05-22T18:00:18.000Z	1,094	1,770,084				
1131258496035409921	20	ev	I can’t say for sure, because the problem was small then and frankly we were under water just trying to make the damn thing work. 	en	83	6	22		2019-05-22T18:00:17.000Z	1,094	1,770,084				
1131258493162311680	20	ev	Had I been more aware of how people not like me were being treated and/or had I had a more diverse leadership team or board, we may have made it a priority sooner. 	en	265	36	115		2019-05-22T18:00:17.000Z	1,094	1,770,084				
1131258490226221057	20	ev	*And*, yes, we (Twitter) should have invested more heavily in abuse before. I think we did more in the early days than we often get credit for (and they are doing way more today). *And* I personally underestimated the looming problem during my brief tenure as CEO. 	en	127	13	34		2019-05-22T18:00:16.000Z	1,094	1,770,084				
1131258487625867264	20	ev	I still strongly believe open platforms like Twitter are important for society. *And* it is almost impossible to capture the good without getting some bad. *And* there is much that should (and will) be done to make these places (this place) more civil. 	en	215	12	47		2019-05-22T18:00:15.000Z	1,094	1,770,084				
1131258484610048001	20	ev	I’m not sure in what (if any) context I said toxic, but it was almost certainly with qualifiers (like “can be”). The interviewer, @dee_bosa , was not the one who said it and gave me a chance to address that intro. But of course I had about 10 seconds and nuance is hard. 	en	83	3	6		2019-05-22T18:00:15.000Z	1,094	1,770,084				
1131258481606946816	20	ev	I was intro’d on CNBC yesterday with something along the lines of “after a long history in Silicon Valley, Ev Williams has come to a conclusion: SOCIAL MEDIA IS TOXIC.” Um...WTF. 	en	97	3	19		2019-05-22T18:00:14.000Z	1,094	1,770,084				
1131258476896718848	20	ev	It’s interesting, though not surprising, that every time I do press interviews these days, I’m being set up to bag on Twitter and social media generally. 	en	498	25	184		2019-05-22T18:00:13.000Z	1,094	1,770,084				
38	21	dom	oh this is going to be addictive 	en	1966	62	2379		2006-03-21T21:10:40.000Z	1,168	35,623				
1293010209129062400	21	dom	Right now, pretty much all hell has broken loose. In the center of Minsk, police in riot gear are brutalizing protesters... 1000s of citizens are gathered for the second day in a row to demand that Belarus’ [Europe’s last dictator] #Lukashenko , steps down. 	en	3893	109	1957	rulajebreal	2020-08-11T02:23:51.000Z	1,168	35,623		blob:https://twitter.com/d1022f50-c7d9-4aa2-8a03-ddca39309aed	https://pbs.twimg.com/ext_tw_video_thumb/1292937224695226373/pu/img/js-mprpafNWsh_j4.jpg	
1292270011692781576	21	dom	Alternative to the USPS for voting by mail. This is in Maryland. 	en	37519	1777	13470	waltmossberg	2020-08-09T01:22:34.000Z	1,168	35,623				
1292042636740702208	21	dom	1. The @Ligandal antidote to #SARSCoV2 has been getting a lot of attention, but some people are having difficulty understanding how it works and what makes it so promising, so here's a Saturday explainer. 	en	79	5	55	adamhamdy	2020-08-08T10:19:04.000Z	1,168	35,623				
1291567925229494273	21	dom	This made me smile &amp; laugh &amp; just...feel wonderful. I have LOVED that Phil Collins song for decades. It BLEW ME AWAY too when I first heard it, just like these young men. I suppose, in these times of disconnection, seeing a true bond through a musical experience uplifted me 	en	24461	897	4391	PamKeithFL	2020-08-07T02:52:44.000Z	1,168	35,623				
1289044110393909248	21	dom	Today, one American died of Covid every 60 seconds. 	en	2732	77	1686	kurteichenwald	2020-07-31T03:43:59.000Z	1,168	35,623				
1288129520789159936	21	dom			2654	18	854	naturevirals	2020-07-28T15:09:44.000Z	1,168	35,623		blob:https://twitter.com/4618d0e8-c5cd-49eb-9e6d-6e8ab4efee4b	https://pbs.twimg.com/ext_tw_video_thumb/1288129475234787329/pu/img/UESMg1OTZLzDfL2E.jpg	
1287853405872873473	21	dom	Dom, I can tell you that @jaketapper indeed wrote one of the great non fiction war books ever written about American troops: I can tell you as the director of @TheOutpostMovie that the individual soldier is who we must salute. 	en	10	1	2	RodLurie	2020-07-27T20:52:33.000Z	1,168	35,623				
1286409163052994560	21	dom	You are loved, you are wanted, you are cherished. 	en	3	1	0		2020-07-23T21:13:39.000Z	1,168	35,623				
1286361899022471169	21	dom	There's a third one out that's even more timely (private-contractor cyberweapons turned against BLM activists) coming in Oct: 	en	1	0	1	doctorow	2020-07-23T18:05:50.000Z	1,168	35,623				
1286043498492305408	21	dom	Trump is getting his ass kicked so he uses a secret police force to gin up violence. Won’t work. He’s a failure at everything he’s ever done. No reason to believe he’ll be anything but a Failed Fascist. 	en	66207	1988	13882	robreiner	2020-07-22T21:00:38.000Z	1,168	35,623				
1285984480071577602	21	dom	That's so fantastic to hear, Dom. The third Little Brother book, Attack Surface, comes out in Oct: 	en	2	1	1	doctorow	2020-07-22T17:06:07.000Z	1,168	35,623				
1285769094713577472	21	dom	I would buy a Nike mask with the slogan "Just Don It" 	en	13	0	2	biorhythmist	2020-07-22T02:50:15.000Z	1,168	35,623				
1285391475602124800	21	dom	Hey @schwa @mantia @bmf @grigs @lyzadanger we are getting the band back together with @goodstein to win the culture war. DM me. 	en	0	1	0		2020-07-21T01:49:43.000Z	1,168	35,623				
1284502687430479874	21	dom	I know of no man with more courage than John Lewis. He was a giant walking among us. When I saw him, I couldn’t help but think one thing: “I haven’t done enough.” May his life and legacy inspire every one of us to strive for justice, equality and what is right. 	en	155365	3500	36959	JoeBiden	2020-07-18T14:58:00.000Z	1,168	35,623		blob:https://twitter.com/8dfb07c3-5d4e-4e9b-8a4b-b452fe57e7fb	https://pbs.twimg.com/media/EdN3bReXsAAuCH7.jpg	
1283561233568784384	21	dom	@dom wrote a great book “140 Characters: a style guide for short form” Great book. Forced haiku. My reason for joining the club. Words are iridescent. 	en	2	1	1	Philboyd_Studge	2020-07-16T00:37:00.000Z	1,168	35,623				
1218214431265566720	21	dom	James Earl Jones recites the alphabet on Sesame Street (1969) 	en	3341	84	948	HistoryMuppet	2020-01-17T16:52:08.000Z	1,168	35,623		blob:https://twitter.com/890b1c74-5f61-4f24-a813-b8071621b3ff	https://pbs.twimg.com/ext_tw_video_thumb/1218214236524023809/pu/img/ft8Wr2fymZTtEDqW.jpg	
1280209289731174400	21	dom	My thoughts on how @RealDonaldTrump 's @twitter account may have been the sword that propelled his victory and also brings him to his defeat. 	en	6	0	2	goodstein	2020-07-06T18:37:34.000Z	1,168	35,623				
1276644069876400134	21	dom	Listen, I’m telling you... for real... enjoy this twice. It is biting satire today but it will also prove prophetic. Bookmark it. 	en	2238	123	743	HoarseWisperer	2020-06-26T22:30:39.000Z	1,168	35,623		blob:https://twitter.com/b0b79b36-16c9-4562-bb80-3bb11ed0a8d6	https://pbs.twimg.com/ext_tw_video_thumb/1276578654093524993/pu/img/4oU3ErriSA9AsRfk.jpg	
1273424370472349701	21	dom	Wow Odeo is finally out of beta. 	en	1051	33	140	backlon	2020-06-18T01:16:43.000Z	1,168	35,623				
1267609472589090816	21	dom	Dear white people, For days you’ve asked me what you can do to help. I’ve finally found an answer. Let your guard down and listen. 	en	233638	7782	136388	EmmanuelAcho	2020-06-02T00:10:23.000Z	1,168	35,623		blob:https://twitter.com/f6250c9c-bb57-4adb-98fd-08794c748e7c	https://pbs.twimg.com/amplify_video_thumb/1267322429652774912/img/h0DrZLxGtZyvFSzC.jpg	
1270154250866192385	21	dom	'Racism: be willing to change your life to end it'. H/t to @wolfepereira , CEO of @EncantosBrands in the @kaporcapital portfolio. 	en	52	3	17	TheRealFreada	2020-06-09T00:42:26.000Z	1,168	35,623				https://pbs.twimg.com/media/EaB88FHVAAA2dzh?format=jpg&amp;name=360x360
1269709560576479232	21	dom	Arrest the cops who killed #BreonnaTaylor . 	en	3	0	1		2020-06-07T19:15:23.000Z	1,168	35,623				
1269702263741825024	21	dom	He tried to build a wall but America made it a memorial. 	en	269	4	100	LeemanKessler	2020-06-07T18:46:24.000Z	1,168	35,623				
1269301128409333762	21	dom	I can't breathe - https://ud.wtf/2UdpfSo 	en	185	5	66	urbandictionary	2020-06-06T16:12:26.000Z	1,168	35,623				https://pbs.twimg.com/media/EZ12pmBXsAM474d?format=png&amp;name=360x360
1269035885904793600	21	dom	This is what #democracy looks like 	en	28	0	6	goodstein	2020-06-05T22:38:27.000Z	1,168	35,623				https://pbs.twimg.com/media/EZyFaQgUYAAuGYk?format=jpg&amp;name=360x360
1259680161424949260	21	dom	Absolutely heartbroken to hear of the passing of Yosemite Bear, aka Paul Vasquez. He was the spiritual hero behind the Double Rainbow video. He gave joy &amp; wonder to so many. And he was right: We’ll never look at a rainbow again and not think about him. That’s just the way it is. 	en	812	15	216	gregorybrothers	2020-05-11T03:02:08.000Z	1,168	35,623				https://pbs.twimg.com/media/EXtHJhWWoAAMduu?format=jpg&amp;name=360x360
1243701820947681281	21	dom	“Watch out for each other. Love everyone and forgive everyone, including yourself. Forgive your anger. Forgive your guilt. Your shame. Your sadness. Embrace and open up your love, your joy, your truth, and most especially your heart.” – Jim Henson 	en	4360	31	1606	HistoryMuppet	2020-03-28T00:49:55.000Z	1,168	35,623				https://pbs.twimg.com/media/EUKENVfWAAA900F?format=jpg&amp;name=360x360
1254795764737257472	21	dom	You got this. 	en	3	0	0		2020-04-27T15:33:17.000Z	1,168	35,623				
1253083421775101952	21	dom	This guy should be Sec of Commerce... 	en	743	26	111	ABFalecbaldwin	2020-04-22T22:09:03.000Z	1,168	35,623				
1253771255922089984	21	dom	NEW: CA has 39,254 confirmed positive cases of #COVID19 . 3,344 of those cases are in our hospitals. 1,216 of those are in the ICU. I know it’s going to be nice out this weekend. And many are tired of staying home. But we MUST continue take this seriously. #StayHomeSaveLives 	en	11956	908	3669	GavinNewsom	2020-04-24T19:42:16.000Z	1,168	35,623				
1251647874745667589	21	dom	Can we get 2,000 retweets? There is a special election on May 12 in California. Republicans are attempting to flip this seat previously held by Katie Hill. They will unless folks step up. The Democratic nominee is @ChristyforCA25 . Retweet, follow her &amp; ask others to do the same. 	en	11579	196	14350	AdamParkhomenko	2020-04-18T23:04:42.000Z	1,168	35,623				
1250598914262052864	21	dom	Netflix Netflicis Netflici Netflicem Netflici Netflices Netflicium Netflicibus Netflices Netflicibus 	cs	1274	19	293	LeVostreGC	2020-04-16T01:36:30.000Z	1,168	35,623				
1248678705167085569	21	dom	How’s this for an accidental freeze frame from the #saltwaterbuddha documentary. If you haven’t seen it, we put up a free (and ad free) version on YouTube for y’all looking for peaceful viewing while at home. http://youtu.be/rdShd1CgHws 	en	9	1	7	jaimalyogis	2020-04-10T18:26:17.000Z	1,168	35,623				https://pbs.twimg.com/media/EVQyqPuUcAE61eV?format=jpg&amp;name=360x360
1248777821066944512	21	dom			2393	202	609	levarburton	2020-04-11T01:00:08.000Z	1,168	35,623				
1244326358664110085	21	dom	For all the chuckalicious retweets, follow @work . 	en	1	2	0		2020-03-29T18:11:37.000Z	1,168	35,623				
1232426216562532353	21	dom	“I know I drive some people crazy with what seems to be ridiculous optimism, but it has always worked out for me.” - Jim 	en	1501	6	249	HistoryMuppet	2020-02-25T22:04:42.000Z	1,168	35,623				https://pbs.twimg.com/media/ERp1G7_WoAAXJLx?format=jpg&amp;name=360x360
1242649251596754944	21	dom			116	4	68	sccounty	2020-03-25T03:07:23.000Z	1,168	35,623				https://pbs.twimg.com/media/ET7G6FsUEAI2TZN?format=jpg&amp;name=360x360
1242539949548883969	21	dom	HOW WE STOP SPREADING IT. Best animation of #COVID19 so far. Share with your friends and your kids. (Hat tip to @StanfordMed for making it). 	en	1384	32	1153	DrEricDing	2020-03-24T19:53:03.000Z	1,168	35,623		blob:https://twitter.com/59c748ee-819a-475c-879e-d57b0d0148e8	https://pbs.twimg.com/ext_tw_video_thumb/1242539876274311169/pu/img/9lcEZyce5NVuFWOh.jpg	
1240999171496251392	21	dom	How to SAFELY remove your disposable gloves? Even if you know all the steps, please retweet! #coronavirus #2019nCoV #COVID19 #SARSCoV2 #gloves 	en	2007	14	1721	ryanfiredragon	2020-03-20T13:50:33.000Z	1,168	35,623		blob:https://twitter.com/b76b379c-829b-4c56-b04e-e04fd97e810a	https://pbs.twimg.com/ext_tw_video_thumb/1240999077573246976/pu/img/EYPB1DqsETestM57.jpg	
1241234666926948352	21	dom	All of a sudden this global, decentralized wireless mesh messaging network seems like a good backup to have handy. https://j.mp/3dgIFO9 	en	1	0	0		2020-03-21T05:26:20.000Z	1,168	35,623				
1241030447141814274	21	dom	Is someone you know not persuaded that a fierce isolation policy (“suppression”) is right for now? This superb article—“The Hammer and the Dance”—makes the case better than anything else out there. 	en	102	4	60	stewartbrand	2020-03-20T15:54:50.000Z	1,168	35,623				
1240991718163599360	21	dom	I wrote about the new coronavirus itself--where it came from, why it's behaving in the way it's behaving, how it infects and kills, and what the summer might bring. It's early days, of course, but this serves as a rough preliminary portrait of SARS-CoV-2. 	en	11236	209	6217	edyong209	2020-03-20T13:20:56.000Z	1,168	35,623				
1240415923527352325	21	dom	According to @USGS a 5.2 earthquake hit the coast of Northern California, about 8.5 miles west of Petrolia, this afternoon. Click through for more details and to let them know if you felt the shaking. https://on.doi.gov/390oP6x 	en	3	0	4	KQEDscience	2020-03-18T23:12:56.000Z	1,168	35,623				https://pbs.twimg.com/media/ETbXtYKXQAAh9Hi?format=jpg&amp;name=360x360
1240377307509846016	21	dom	I M P O R T A N T 	en	10	4	3	KiteVC	2020-03-18T20:39:29.000Z	1,168	35,623				
1239643216745463810	21	dom	You’ve been practicing social distancing, but do you need to do more? What if someone in your lab is being tested for COVID-19 or gets a positive diagnosis? What if it’s a friend of a friend? We have a flow chart with answers. http://medical.mit.edu/Howto 	en	164	1	139	MITmedical	2020-03-16T20:02:28.000Z	1,168	35,623				https://pbs.twimg.com/media/ETQY74uWAAEAtE9?format=jpg&amp;name=360x360
1239339633537933315	21	dom	BREAKING: In the face of Coronavirus, 15 health care leaders and I have published an open letter in @USATODAY with an urgent, life-saving message for all Americans, state &amp; local leaders &amp; our health care workforce. 	en	34020	768	21631	ASlavitt	2020-03-15T23:56:09.000Z	1,168	35,623				
1239032343932911618	21	dom	#StayHomeSaveLives 	und	1619	25	550	alexisohanian	2020-03-15T03:35:05.000Z	1,168	35,623		https://video.twimg.com/tweet_video/ETHtSBsWoAERa3G.mp4	https://pbs.twimg.com/tweet_video_thumb/ETHtSBsWoAERa3G.jpg	
1238968568143843334	21	dom	I'm a visual learner. This is probably the most helpful piece of journalism I've found to explain #coronavirus and the need for social distancing. Bravo, @Harry_Stevens . 	en	181	6	108	mandy_mclaren	2020-03-14T23:21:40.000Z	1,168	35,623				
1238937138646773760	21	dom	((Police cars revolving light)) BAY AREA TEACHERS &amp; PARENTS: Wondering how best to support kids during #coronavirus school closures? We'll start airing TV programs aligned with CA state standards weekdays from MONDAY (3/16) on our KQED Plus channel. PLEASE spread the word! 	en	229	12	204	KQED	2020-03-14T21:16:46.000Z	1,168	35,623				
32	22	rabble	just setting up my twttr 	en	1817	13	3509		2006-03-21T21:04:12.000Z	3,613	16,659				
1292655759432413184	22	rabble			1	0	0		2020-08-10T02:55:24.000Z	3,613	16,659				
1292655532621217792	22	rabble	Deeply emotional music with the train engineer talking about how difficult it is to watch close calls. 	en	0	1	0		2020-08-10T02:54:30.000Z	3,613	16,659				
1292645626664988672	22	rabble	While the US is struggling with millions infected with Covid, massive racism and police repression, an economy in free fall, New Zealand is gripped by the important issue of people being risky running across train tracks instead of waiting. 	en	1	2	1		2020-08-10T02:15:08.000Z	3,613	16,659				
1292644674344120321	22	rabble	While i'm at it, if you're kiwi (resident or citizen), a vote for National is a vote to become more like America and the UK. It's a vote for there to be a few rich and more poor, a vote for retirement homes to be death traps, a vote freeways, cars, and air pollution. 	en	14	0	7		2020-08-10T02:11:21.000Z	3,613	16,659				
1292644673555533824	22	rabble	the world, starting with fellow pacific island countries. No country is perfect, but New Zealand shows a model of how to engage on atoning for the past and working to build a better future. 	en	2	1	0		2020-08-10T02:11:21.000Z	3,613	16,659				
1292644672540614662	22	rabble	There's a desire to do things right, focus on NZ, the people, environment, and economy. NZ is taking a'put your mask on first before you help others' philosophy. Borders stay pretty closed until it's safe, economy shifts a bit more inward. Then NZ can take on a role to help 	en	1	1	2		2020-08-10T02:11:20.000Z	3,613	16,659				
1292626694503727104	22	rabble	Impressive in comparison to other European settler countries, but expected for NZ, the Pākehā (New Zealanders of European ancestry) open with Maori land acknowledgment and welcome in the Te Reo language. 	en	1	1	0		2020-08-10T00:59:54.000Z	3,613	16,659				
1292621015818760192	22	rabble	Would love to open up the border more but the Australian example shows how clearly it’s possible to let things slip out of control. The new restrictions shifts the model of sending kiwis out and bring labor &amp; skills in. Big shift in the model of the last 30 years. 	en	4	1	1		2020-08-10T00:37:20.000Z	3,613	16,659				
1292619537167167488	22	rabble	This is an opportunity for NZ to push clean tech, digital businesses, and high quality food and agriculture. A bunch of talk about the way the kiwi diaspora can be leveraged (20% kiwis live abroad). This is much bigger than covid. It’s an chance to make long needed changes. 	en	8	2	2		2020-08-10T00:31:28.000Z	3,613	16,659				
1292617301498327042	22	rabble	They shifted their air traffic from passenger focused to cargo. The economy is doing really well but there is a lot of worry about the economy of the rest of the world and protectionism. 	en	9	2	2		2020-08-10T00:22:35.000Z	3,613	16,659				
1292615764059381760	22	rabble	Kiwi’s are inherently internationalist in outlook. It’s challenge of how to keep and extend that when travel and quarantine have restricted things with covid. Thinking both about how to keep NZ healthy and economically prosperous while also engaging and supporting the world. 	en	8	2	3		2020-08-10T00:16:28.000Z	3,613	16,659				
1292614706830569473	22	rabble	On a call with one of the 5 people who coordinated New Zealand’s response to Covid. He’s stated that their social connections and relationships were key in working quickly and successfully as a country. 	en	38	2	10		2020-08-10T00:12:16.000Z	3,613	16,659				
1292552643684966407	22	rabble	“Mike Pence is a wonderful gentleman,” she said. “This is probably a very bad analogy, but I’d say he is like the very supportive, submissive wife to Trump. He does the hard work, and the husband gets the glory.” 	en	5	2	2		2020-08-09T20:05:39.000Z	3,613	16,659				
1292522151770075136	22	rabble	In startups, everybody loves the term pivot, it sounds so much better than, "fucked up, learned something, tried something different." 	en	43	3	4		2020-08-09T18:04:29.000Z	3,613	16,659				
1292504187498983425	22	rabble	So I decided to try apple music, now it won't sync share lists or any downloaded mp3's to my phone. I hate DRM. 	en	10	3	0		2020-08-09T16:53:06.000Z	3,613	16,659				
1292275537453314050	22	rabble	This man threw IED’s at protesters last night. It’s well documented and he walks free. Look at what he’s wearing and ask yourself why we’re terrified about men in the same outfit are kidnapping people in unmaked vans. 	en	31	0	20		2020-08-09T01:44:32.000Z	3,613	16,659				
1291845472043163649	22	rabble	This is our future, both ourselves on video calls and trying to use video calls as a mistaken way of educating our kids. Parents, check out unschooling. The pain of replicating an in-class experience with remote schooling is not worth it. 	en	14	1	3		2020-08-07T21:15:36.000Z	3,613	16,659				
1291836267718565888	22	rabble	We can't trust governments to ensure our freedoms. We need platforms that put people in control, provide encryption, and don't reside on a sever which can be shut down. We are building that future. Join us at http://planetary.social . 	en	4	1	2	planetaryinc	2020-08-07T20:39:02.000Z	3,613	16,659				
1291831986395389952	22	rabble	As much as i'm not enthusiastic with Biden, I at least can feel reassured that the american left in 2020 didn't make the mistake the German left did in 1932. 	en	9	3	0		2020-08-07T20:22:01.000Z	3,613	16,659				
1291831073064620033	22	rabble	About Karen Bass Arnold Schwarzenegger said “She was a trustworthy person, she kept her word, she was great to work with, she went beyond ideology, she was able to reach across the aisle.” Both George Will &amp; Frank Luntz also think she'd be a great VP. 	en	1	0	1		2020-08-07T20:18:23.000Z	3,613	16,659				
1291210868353507329	22	rabble	Elon Musk and Space X built a flying grain silo! 	en	3	0	0		2020-08-06T03:13:55.000Z	3,613	16,659				
1290096841946628096	22	rabble	Guess there aren't actually any #VeryScaryPeople 	en	8	2	2		2020-08-03T01:27:10.000Z	3,613	16,659				https://pbs.twimg.com/media/EedYPA5UcAAwL-O?format=png&amp;name=360x360
1289999553437941766	22	rabble	Get the latest on what's happening with the scuttlebutt community's development projects. Lots going on. 	en	1	0	2	planetaryinc	2020-08-02T19:00:35.000Z	3,613	16,659				
1289655159925010432	22	rabble	I don't actually think Karen Bass is pro-Castro but regardless, Cuban Americans don't vote democratic anyway so why should Biden and the democrats care what they think about their VP choice? 	en	3	2	1		2020-08-01T20:12:05.000Z	3,613	16,659				
1289650360139694080	22	rabble	With @planetaryinc , and the scuttlebutt community we're developing a TrustNet solution for community management of behavior. This third way offers a path forward without the tyranny of the state or giant corporations. 	en	6	0	0		2020-08-01T19:53:01.000Z	3,613	16,659				
1289650359372115970	22	rabble	How do you manage digital communities to promote health behavior? It isn't through either government regulation of speech nor is it expecting companies like Twitter and Facebook to handle the problem. We need to treat our digital spheres as a common resource to be managed. 	en	4	1	0		2020-08-01T19:53:00.000Z	3,613	16,659				
1289373331267842050	22	rabble	I wonder if we’re going to start seeing a lot more of this as people who can relocate to countries where covid is under control and they can send their kids to school. 	en	11	4	2		2020-08-01T01:32:12.000Z	3,613	16,659				https://pbs.twimg.com/media/EeTGLbOUcAEmLao?format=jpg&amp;name=360x360
1288905048953507843	22	rabble	Welll @THEHermanCain doesn’t need to worry about the side effects of any covid vaccine because the disease killed him the very day he* tweeted this. (*clearly it’s his soulless staff and not him tweeting on his deathbed) 	en	4	0	1		2020-07-30T18:31:25.000Z	3,613	16,659				
1288901585544687617	22	rabble	Planetary represents a future where the web and social media can be governed without resorting to tyranny of the state or corporations. One of our beta testers, @stephanierieger 's new talk lays out how we got here and the future we can build together. 	en	4	1	5	planetaryinc	2020-07-30T18:17:39.000Z	3,613	16,659				
1281015396812947456	22	rabble	!Call out for exceptional startups in Asia! Impact Collective invest in, support, and connect startups that are solving global challenges to accelerate the positive impact in the world. @AimAmarit @iamsonge 	en	6	0	3	EHFNewZealand	2020-07-09T00:00:45.000Z	3,613	16,659				
1288641784470319105	22	rabble	Barbados, Estonia, Georgia and Jamaica are all getting on the game. Estonia and Barbados probably are your best bets, depending on if you prefer sauna or beach. 	en	5	2	3		2020-07-30T01:05:17.000Z	3,613	16,659				
1288640936872783872	22	rabble	There are now countries selling the idea of a work remote visa with 14 day managed isolation upon arrival. 	en	15	2	4		2020-07-30T01:01:55.000Z	3,613	16,659				
1288353432445882368	22	rabble	Digital Democracy (non-profit building decentralized tech to protect human rights and the environment) is hiring, check it out! https://www.digital-democracy.org/jobs/ 	en	28	1	13	andrestaltz	2020-07-29T05:59:29.000Z	3,613	16,659				
1287908263875362817	22	rabble	My mom's helping raise money for a Maasai Community Learning Center in southern Kenya to teach programming and other computer skills... 	en	1	0	1		2020-07-28T00:30:32.000Z	3,613	16,659				
1287511333181644800	22	rabble	I'm having a root beer float... because it's hot out and i needed some self care after being tear gassed... yet again... 	en	26	1	1		2020-07-26T22:13:17.000Z	3,613	16,659				
1287479380566921217	22	rabble	This is a powerful weapon for justice. Even if the constitution was and continues to be a fundamentally flawed bigoted document. It’s symbolism is about opposing tyranny and oppression. 	en	9	1	2		2020-07-26T20:06:19.000Z	3,613	16,659				
1287339858067730433	22	rabble	Federal police pepper spray a 75 year old vet posing no threat because.... actually it’s not at all clear why he got sprayed. Definitely not posing danger to anyone. 	en	220	14	161		2020-07-26T10:51:54.000Z	3,613	16,659		blob:https://twitter.com/5beb4e05-18ec-4daa-96c7-62fb9c5b13e5	https://pbs.twimg.com/ext_tw_video_thumb/1287319271710760961/pu/img/Zi-Y6yQ8ilYYbzg_.jpg	
1286746005258395648	22	rabble	Interesting proposal about how New Zealand and covid-free countries can manage the quarantine cost and process of opening up their borders without risk. 	en	0	0	0		2020-07-24T19:32:08.000Z	3,613	16,659				
1286473111727034368	22	rabble	If only all of our elected representatives could understand and support the role of organizing and resistance in making social change. We get @KhanhPhamForOR because movements came together around her campaign instead of waiting for the Democratic Party to pick the next in line. 	en	5	0	0		2020-07-24T01:27:46.000Z	3,613	16,659				
1286378810913431552	22	rabble	Podcast Interview - Talking about radical decentralization, the response to the covid-19 crisis, and my work with @planetaryinc . 	en	6	0	7		2020-07-23T19:13:02.000Z	3,613	16,659				
1286359999845818368	22	rabble	Good at web scraping? Want to help the protesters in Portland? Have Some time to whip up some scripts. I can direct you to a project which needs your help and skills. DM me. 	en	38	0	34		2020-07-23T17:58:18.000Z	3,613	16,659				
1286350061434216448	22	rabble	The @PortlandPolice are hiding the identity of their officers. Legal requests for the names based on ID’s displayed on their uniforms have been denied because the police say you need to know their names to request their names. 	en	3	1	0		2020-07-23T17:18:48.000Z	3,613	16,659				
1285789064948375554	22	rabble	I find it interesting that republicans and conservatives were very concerned about states rights and the need of the second amendment to protect against tyranny. All the way up until we fight against racism and all of a sudden they’re silent. #PortlandProtest 	en	22	1	8		2020-07-22T04:09:36.000Z	3,613	16,659				
1285726278868402177	22	rabble	We will permanently suspend accounts Tweeting about these topics that we know are engaged in violations of our multi-account policy, coordinating abuse around individual victims, or are attempting to evade a previous suspension — something we’ve seen more of in recent weeks. 	en	24054	1951	4848	TwitterSafety	2020-07-22T00:00:07.000Z	3,613	16,659				
1285726277719199746	22	rabble	We’ve been clear that we will take strong enforcement action on behavior that has the potential to lead to offline harm. In line with this approach, this week we are taking further action on so-called ‘QAnon’ activity across the service. 	en	91595	22679	33848	TwitterSafety	2020-07-22T00:00:06.000Z	3,613	16,659				
1285246759837433856	22	rabble	Twitter is amazing but i do sometimes feel sad conflicted feelings about how the company that created it ended up being worth nothing. :( 	en	23	2	1		2020-07-20T16:14:40.000Z	3,613	16,659				https://pbs.twimg.com/media/EdYdHSyVAAAREhe?format=jpg&amp;name=small
1285120281275543552	22	rabble	Now I get it. They want us to finish their pride flags. 	en	9	0	4		2020-07-20T07:52:06.000Z	3,613	16,659				
1284756876278689792	22	rabble	I think this and needing to sit and rest means I’m getting old. 	en	7	1	0		2020-07-19T07:48:03.000Z	3,613	16,659				
1284633752711229441	22	rabble	My house in portland has a basement apartment, it's decently nice and stays cool without AC. But between being there and going to the protests each night I'm feeling a bit depressed. Luckily @TeaBarPdx on division is open with outdoor seating so I have a place to go and breath. 	en	9	0	0		2020-07-18T23:38:48.000Z	3,613	16,659				
1283889705222721536	22	rabble	Someone had access to every twitter account could have made an incredible bundle of money by shorting the market and then timing tweets which would crash the stock market. Trump nationalizes twitter / Facebook, suspends the presidential election, then launches nukes at Iran. 	en	11	2	2		2020-07-16T22:22:13.000Z	3,613	16,659				
1283834282528522240	22	rabble	News is saying Russian Spies are trying to steal coronavirus vaccine research. WHAT THE HELL PEOPLE THIS SHOULD BE OPEN DATA PUBLISHED FOR EVERYBODY. WHY ISN'T ALL THE RESEARCH DATA FREELY SHARED. 	en	12	0	2		2020-07-16T18:42:00.000Z	3,613	16,659				
1282423432806834176	22	rabble	One of the interesting things about working off the gird on a vsat connection, is you never know when it's going to work. Last several days have been terrible, so I drove in to town one day, and then read a book. Today it's snappy and I can focus on work! 	en	10	1	0		2020-07-12T21:15:47.000Z	3,613	16,659				
1282143183200288768	22	rabble	The public health response to the plague formed the model for subsequent epidemics even if didn’t make sense. In large part because it justified the creation and consolidation of power in the state. Public health has justified authoritarianism since it’s inception. 	en	2	0	0		2020-07-12T02:42:10.000Z	3,613	16,659				https://pbs.twimg.com/media/EcsQuv0WkAIkKiA?format=jpg&amp;name=240x240 https://pbs.twimg.com/media/EcsQuxvWAAMnxu_?format=jpg&amp;name=240x240
1282135908091924481	22	rabble	Apparently one of the reasons the Black Plague was finally controlled in Europe was the Norwegian rat (not from Norway) which avoids people displaced the brown rat which liked people and was often kept as a family pet. Who knew! An invasive species of rat saved millions of lives. 	en	13	1	2		2020-07-12T02:13:16.000Z	3,613	16,659				
1282057353915924480	22	rabble	The school system in the United States was created to transform immigrants in to workers. They teach kids some knowledge but the primary skill is rule following and tolerance for boredom. They also are free childcare so parents can work longer hours. 	en	151	0	63		2020-07-11T21:01:07.000Z	3,613	16,659				
1282051930320232453	22	rabble	Parents. What’s your plan for kids and schooling in the fall? 	en	0	10	0		2020-07-11T20:39:34.000Z	3,613	16,659				
1281995856460349441	22	rabble	This is sobering. Americans are giving up on fighting covid and don’t realize they’re also giving up on any connection to the outside world. 	en	16	1	5		2020-07-11T16:56:45.000Z	3,613	16,659				
1281353114063257600	22	rabble	I've had a bunch of discussions with people here about Signal PINs over the past day. I don't usually spend this much time on Twitter, so parallel to the direct discussion, these are a few of the adjacent thoughts that have come up for me: 1/14 	en	1012	44	433	moxie	2020-07-09T22:22:43.000Z	3,613	16,659				
1281350968307855360	22	rabble	The Supreme Court ruled that congress didn’t properly shrink treaty granted reservation land. Look all the nations who were resettled to Oklahoma at the threat of genocide. This and slavery are America’s original sins. 	en	3	1	0		2020-07-09T22:14:11.000Z	3,613	16,659				
1281064500431589378	22	rabble	Biden makes a bunch of good policy concessions around labor and the environment but digs in hard against criminal justice reform or ending the war on drugs. WTF!?! Not great news for getting Karen Bass nominated as VP. Why joe why? 	en	0	1	0		2020-07-09T03:15:52.000Z	3,613	16,659				
1281032581375500289	22	rabble	The police brutality in Portland is serious. It's out of hand. Portland's population is less than the next 10 cities on this list. Can't blame it on Trump, or Republicans. Portland and Oregon are dominated by Democratic supermajorities. 	en	62	0	32		2020-07-09T01:09:02.000Z	3,613	16,659				
1278876702538715142	22	rabble	Now now. We want to pull down statues of racists and genocidial slave owners. What does the city of Portland do? Take down the @StagulaRasa instead. We said defund the police not give them a raise. Tear down symbols of hate not nature. What the hell @tedwheeler get with it! 	en	15	3	3		2020-07-03T02:22:20.000Z	3,613	16,659				
1278735877531992064	22	rabble	My vsat internet connection is remarkably stable this morning. It feels like having caffeinated coffee after getting used to decaf instant... 	en	2	0	0		2020-07-02T17:02:45.000Z	3,613	16,659				
1278544515931033600	22	rabble	We've got a chance for a radical progressive change in Portland. Now is the time to organize, to protest, and vote for an inclusive city for everyone. It's not the time for a protest vote. 	en	8	3	0		2020-07-02T04:22:21.000Z	3,613	16,659				
1278389021496885248	22	rabble	Utter betrayal. 	tr	0	0	1		2020-07-01T18:04:28.000Z	3,613	16,659				
1278066692120330244	22	rabble	New Release - 0.9.28 - Redesigned explore tab, critical updates for delete and abuse protection, and performance fixes with syncing. https://planetary.link/%25%2BR%2F8SImdurcxQdmq7hcUeVdI%2Fb%2FMNQujXMj%2BflgOQ6Y%3D.sha256 	en	0	1	4	planetaryinc	2020-06-30T20:43:39.000Z	3,613	16,659				https://pbs.twimg.com/media/Ebyaz-vXQAAFsEI?format=jpg&amp;name=360x360
1278033970496708622	22	rabble	If @JoeBiden wanted a passionate base who would get out the vote, a black woman, and somebody who gets how to work in Washington too, he'd nominate Rep Barbara Lee as his running mate. 	en	6	2	0		2020-06-30T18:33:37.000Z	3,613	16,659				
1277997145652592641	22	rabble	Playing the star wars imperial march when the police march around in riot gear and attack protesters is striking a nerve. "We're not the evil empire, and I'm not the emperor of the evil empire," says Portland Police Association president Daryl Turner. 	en	12	1	6		2020-06-30T16:07:18.000Z	3,613	16,659				
1277716491442491393	22	rabble	The view of my new office from outside. 	en	27	3	3		2020-06-29T21:32:05.000Z	3,613	16,659				https://pbs.twimg.com/media/EbtcVIVWkAExQyV?format=jpg&amp;name=240x240 https://pbs.twimg.com/media/EbtcVKMWsAIebHK?format=jpg&amp;name=240x240 https://pbs.twimg.com/media/EbtcVLcXkAAT6cf?format=jpg&amp;name=240x240
1277685786146734081	22	rabble	Trying out a new work spot, in the tool / garden / solar power shed looking out at the garden and meadow. There is a slight hum from the batteries competing with the sounds of birds. The WiFi is best here &amp; I’m less likely to be distracted by folks chatting near by. #pantilokpom 	en	18	2	0		2020-06-29T19:30:04.000Z	3,613	16,659				https://pbs.twimg.com/media/EbtAbxXX0AAzeko?format=jpg&amp;name=small
1277655840909115397	22	rabble	For more than a year, I've been researching subjective moderation systems as part of my Master's thesis. What I ended up with is TrustNet, a system for representing, and interacting with, computational trust. 1/? 	en	127	10	56	cblgh	2020-06-29T17:31:04.000Z	3,613	16,659				
1276949664634372096	22	rabble	I’m so looking forward to starlink. It’s that 600ms latency and lots of dropped packets which is a bigger deal than the raw throughput. https://speed.ui.com?result=5ef7936213a42e00070d83ae 	en	6	1	1		2020-06-27T18:44:59.000Z	3,613	16,659				https://pbs.twimg.com/media/Ebii8NjX0AMZj0p?format=jpg&amp;name=360x360
1276403361072459777	22	rabble	How about @bleeforcongress as a vp? 	en	3	0	0		2020-06-26T06:34:10.000Z	3,613	16,659				
1276288599961427969	22	rabble	This is kind of hopeful. Biden leading in NC, Florida, Georgia, Michigan, Wisconsin, Arizona, etc... In fact Biden's leading in every state polled since a Texas poll 6 days ago. Including Biden leading in a Fox News Texas poll which came out today. https://projects.fivethirtyeight.com/polls/president-general/ 	en	4	3	1		2020-06-25T22:58:09.000Z	3,613	16,659				https://pbs.twimg.com/media/EbZJNb5U0AAnaI6?format=jpg&amp;name=360x360
1276077847694565377	22	rabble	Disband the Portland police association (union). No new contract. 	en	7	0	4		2020-06-25T09:00:41.000Z	3,613	16,659				
1275823727175860229	22	rabble	We'll see not one, but two gay black congressmen elected on progressive platforms from New York this fall. Congratulations @MondaireJones &amp; @ritchietorres 	en	5	0	1		2020-06-24T16:10:54.000Z	3,613	16,659				
1275214778277875712	22	rabble	Cops lie about dumb little things... like to punish a burger place for making milkshakes which aren't to their liking. 	en	18	0	9		2020-06-22T23:51:10.000Z	3,613	16,659				
1274818867110440960	22	rabble	Donating to bail funds is good but so many protesters can’t afford protest PPE. Donate to the PDX gas mask fund. 	en	2	0	1		2020-06-21T21:37:57.000Z	3,613	16,659				
1274780745744056320	22	rabble	He was shot with a rubber bullet in the back of the head at a protest in Portland 2 days ago. The sheriff burst out of the justice center without warning &amp; fired on the crowd. There is video evidence that nothing but chanting &amp; banging on street signs was happening at the time. 	en	9	1	5		2020-06-21T19:06:28.000Z	3,613	16,659				https://pbs.twimg.com/media/EbDuVJ0UYAAZa9_?format=jpg&amp;name=360x360
1274778175935877120	22	rabble	There is a whole network of people that support and train police how to kill. They claim killing helps police have great sex. It’s not a few bad cops, it’s a pathological institution. 	en	5	0	3		2020-06-21T18:56:16.000Z	3,613	16,659				
1274524964389969921	22	rabble	I'm a big advocate for protest votes, but this is a bad strategy. It's not the time for a protest vote. You don't have to campaign for Sarah, but campaigning against her is campaigning for tear gas Ted. 	en	5	1	0		2020-06-21T02:10:05.000Z	3,613	16,659				
1274524963685318656	22	rabble	There would be Ted Wheeler on the ballot, Sarah's name on the ballot, and maybe 10% or 20% of portlanders would write in Teressa Raiford's name. Ted would win by a landslide. I say this as somebody who's never been so right wing to actually be a registered democrat. 	en	3	1	0		2020-06-21T02:10:05.000Z	3,613	16,659				
1274524962846466048	22	rabble	Electoral politics isn't the only way to get things done as we can see with these protests. It only works when there's a movement to push politicians priorities. What would happen if @sarahforpdx did drop out like this campaign advocates? 	en	0	3	0		2020-06-21T02:10:05.000Z	3,613	16,659				
1274524962141814784	22	rabble	What we're looking at is a whole bunch of people campaigning against the only option at this point to defeat @tedwheeler . Just like being pissed about Biden, it doesn't help you defeat trump by campaigning against him. 	en	0	2	0		2020-06-21T02:10:05.000Z	3,613	16,659				
1274524960652836864	22	rabble	The most frustrating thing to come out of latest protests is the call for @sarahforpdx to drop out of the race and / or to write in @Teressa_Raiford 's name. @tedwheeler got %49 of the vote in the primary. It'll be hard to defeat him with a unified campaign. #PortlandProtests 	en	5	1	0		2020-06-21T02:10:04.000Z	3,613	16,659				
1274491923584040962	22	rabble	Police brutality is endemic and designed in to the system. It’s part of why over 97% of people arrested plead instead of going to trial. 	en	15	0	6		2020-06-20T23:58:48.000Z	3,613	16,659				
1274484513477820416	22	rabble	Congratulations to all the activists in Tulsa who engaged in creative direct action to block the metal detectors. Keeping the great leader from speaking where he wants is antifascism par excellence. #antifa #directaction 	en	7	3	0		2020-06-20T23:29:21.000Z	3,613	16,659		blob:https://twitter.com/105af580-3274-4a32-b511-6815c3f23a42	https://pbs.twimg.com/ext_tw_video_thumb/1274480808963608576/pu/img/n7Cpf_naF2mtFTI5.jpg	
1274389401628372993	22	rabble	There is abundant video evidence that the @PortlandPolice opened fire in the crowd who were not threatening the building or anyone’s safety. In violation of police policy the announcements came more than 10 minutes. One protester was hit in the back of the head. 	en	1	0	0		2020-06-20T17:11:25.000Z	3,613	16,659				
1274121324231716864	22	rabble	Seems like a good project for @ADXPortland or the Portland hacker spaces. I bet giving them out at various protests they’d get good use. 	en	1	1	0		2020-06-19T23:26:10.000Z	3,613	16,659				
1274116697411055617	22	rabble	Europe and it’s white colonial states didn’t become developed on their own. They got there through genocide, stealing land with colonialism, and slavery. 	en	5	0	1		2020-06-19T23:07:47.000Z	3,613	16,659				
1274090581023588352	22	rabble	Direct Action works. The statue of George Washington which was toppled last night by protesters is taken away. I’m sure we can find heroes who didn’t commit genocide and own people. 	en	6	1	0		2020-06-19T21:24:00.000Z	3,613	16,659				
1274066328253423616	22	rabble	Only one of the hundreds of slaves owned by George Washington was actually freed upon his death. 	en	35	6	13		2020-06-19T19:47:38.000Z	3,613	16,659				
1274051651985268736	22	rabble	The US Government has provided funding for internet freedom through the @OpenTechFund which has given us tools like Signal. Now they're considering shutting that down so we can't have privacy and security on the internet. https://saveinternetfreedom.tech/ #SaveInternetFreedom #SaveOTF 	en	4	1	6		2020-06-19T18:49:19.000Z	3,613	16,659				
1273868443079438336	22	rabble	George Washington had 310 slaves at his plantation. He was a major slave holder. Everything else he might have done is tainted by this reality. https://en.wikipedia.org/wiki/George_Washington_and_slavery 	en	10	2	0		2020-06-19T06:41:18.000Z	3,613	16,659				
839214652902912000	23	timroberts	big thanks to @eramirez &amp; @aaronc as huge supporters of me &amp; Fitbit. It's a strange feeling to be moving... but time for new challenges. 	en	7	1	0		2017-03-07T20:42:19.000Z	83	9,614				
710998574763364352	23	timroberts	Fitbit and Amazon Echo fun! http://www.youtube.com/watch?v=xqCA8Xm8rJI&amp;sns=tw via @youtube 	en	8	0	1		2016-03-19T01:17:24.000Z	83	9,614				
659516119900786688	23	timroberts	Desk-bed for people who can't let go of their screens http://cnnmon.ie/1PV1Lce via @CNNMoney 	en	4	0	1	AltworkStations	2015-10-28T23:44:30.000Z	83	9,614				
614580467937902592	23	timroberts	Celebrating a huge step forward and a beautiful goal achieved. #LoveWins 	en	373	8	118	fitbit	2015-06-26T23:46:16.000Z	83	9,614				
611540158802825216	23	timroberts	Wall Street just got FIT. 	en	410	35	253	fitbit	2015-06-18T14:25:10.000Z	83	9,614				
563149999752499200	23	timroberts	Congrats to mike and Albert at My Fitness Pal. 	en	4	0	1		2015-02-05T01:39:57.000Z	83	9,614				
539286576552243201	23	timroberts	From the Chuck Jones exhibit at Museum of the Moving Image, here are 9 rules for the Road Runner and Wile E. Coyote. 	en	1242	50	1489	markedly	2014-12-01T05:15:13.000Z	83	9,614				
532247791641169920	23	timroberts	Here's some good news on a cold day: Fitbit Charge (Black) is now in stock &amp; shipping! Order: http://bit.ly/1xuWKh9 	en	56	23	28	fitbit	2014-11-11T19:05:36.000Z	83	9,614				
530693609688154113	23	timroberts	What will wearables look like in 10 years? @srlake @timroberts Stephane Marceau @omsignal explore at Roadmap 	en	7	1	10	gigaom	2014-11-07T12:09:51.000Z	83	9,614				
526745260467433472	23	timroberts	Introducing: Fitbit Charge, Charge HR &amp; Surge. 3 new trackers &amp; a whole new world of fitness: http://bit.ly/1tZ9ygq 	en	686	162	588	fitbit	2014-10-27T14:40:31.000Z	83	9,614				
517455292351930368	23	timroberts	Fitbit is #3 with 97 open reqs http://buff.ly/1xDk8u7 RT @svbizjournal : 10 top Bay Area startups 4 tech job hunters 	en	5	0	2	jeff	2014-10-01T23:25:30.000Z	83	9,614				
515361154504601600	23	timroberts	List: Fitbit Results Throughout History. 	en	4	1	5	nickmyer5	2014-09-26T04:44:08.000Z	83	9,614				
514217312346316800	23	timroberts	Come make amazing stuff at Fitbit thru the @designerfund Bridge program! 	en	3	0	1		2014-09-23T00:58:55.000Z	83	9,614				
509462824712552448	23	timroberts	RT @adaugelli : 10 Reasons to Ignore Apple iWatch and Stick With Your Fitbit 	en	2	0	2	cvorkink	2014-09-09T22:06:17.000Z	83	9,614				
500681713781964800	23	timroberts	An oldie but a goodie. One of the first boxes of @fitbit Classic Trackers at our factory nearly 5 years ago. 	en	31	3	17	parkjames	2014-08-16T16:33:17.000Z	83	9,614				
501504493209399296	23	timroberts	My fitbit #Fitstats for last week: 79,965 steps. http://www.fitbit.com/user/22CJJS 	en	1	0	0		2014-08-18T23:02:43.000Z	83	9,614				
498967662966226944	23	timroberts	My fitbit #Fitstats for last week: 8,724 steps. http://www.fitbit.com/user/22CJJS 	en	0	0	0		2014-08-11T23:02:15.000Z	83	9,614				
496431610741272576	23	timroberts	My fitbit #Fitstats for last week: 50,810 steps. http://www.fitbit.com/user/22CJJS 	en	0	0	0		2014-08-04T23:04:53.000Z	83	9,614				
493974081000071170	23	timroberts	How many steps did you take today? #fitbit 	en	22	5	13	trueventures	2014-07-29T04:19:33.000Z	83	9,614				
493841679850274818	23	timroberts	Fitbit is the first fitness band to support Windows Phone 	en	5	1	4	bfeld	2014-07-28T19:33:26.000Z	83	9,614				
493894291010224129	23	timroberts	My fitbit #Fitstats for last week: 84,035 steps. http://www.fitbit.com/user/22CJJS 	en	1	0	0		2014-07-28T23:02:29.000Z	83	9,614				
491357616291860483	23	timroberts	My fitbit #Fitstats for last week: 80,987 steps. http://www.fitbit.com/user/22CJJS 	en	0	0	0		2014-07-21T23:02:39.000Z	83	9,614				
488822269557231616	23	timroberts	My fitbit #Fitstats for last week: 84,936 steps. http://www.fitbit.com/user/22CJJS 	en	0	0	0		2014-07-14T23:08:05.000Z	83	9,614				
486284172898467840	23	timroberts	My fitbit #Fitstats for last week: 101,513 steps. http://www.fitbit.com/user/22CJJS 	en	0	0	0		2014-07-07T23:02:36.000Z	83	9,614				
483747443956146176	23	timroberts	My fitbit #Fitstats for last week: 76,974 steps. http://www.fitbit.com/user/22CJJS 	en	1	0	0		2014-06-30T23:02:32.000Z	83	9,614				
481210721384951809	23	timroberts	My fitbit #Fitstats for last week: 75,703 steps. http://www.fitbit.com/user/22CJJS 	en	1	0	0		2014-06-23T23:02:31.000Z	83	9,614				
478674004501229568	23	timroberts	My fitbit #Fitstats for last week: 67,224 steps. http://www.fitbit.com/user/22CJJS 	en	0	1	0		2014-06-16T23:02:30.000Z	83	9,614				
473600553180606465	23	timroberts	My fitbit #Fitstats for last week: 3,172 steps. http://www.fitbit.com/user/22CJJS 	en	0	1	0		2014-06-02T23:02:25.000Z	83	9,614				
471071147526586368	23	timroberts	I miss the old Virgin America safety video. 	en	1	0	0		2014-05-26T23:31:28.000Z	83	9,614				
471063981818253312	23	timroberts	My fitbit #Fitstats for last week: 40,611 steps. http://www.fitbit.com/user/22CJJS 	en	0	0	0		2014-05-26T23:02:59.000Z	83	9,614				
468929134681686016	23	timroberts	Technology can't provide motivation. Only amplification. 	en	1	0	0		2014-05-21T01:39:52.000Z	83	9,614				
468527229639487488	23	timroberts	My avg. daily fitbit #Fitstats for last week: 83,048 steps. http://www.fitbit.com/user/22CJJS 	en	0	0	0		2014-05-19T23:02:51.000Z	83	9,614				
466616062155698177	23	timroberts	damn. art that scared the pants off me. RIP H.R. Giger. 	en	0	0	0		2014-05-14T16:28:33.000Z	83	9,614				
466607331342819328	23	timroberts	rediscovered my post for @trueventures on entrepreneurial time management. 4 years later &amp; still manage life this way http://www.trueventures.com/2010/08/12/an-entrepreneurs-guide-to-self-management/ 	en	1	0	2		2014-05-14T15:53:51.000Z	83	9,614				
465990386536558592	23	timroberts	My avg. daily fitbit #Fitstats for last week: 71,435 steps. http://www.fitbit.com/user/22CJJS 	en	0	0	0		2014-05-12T23:02:20.000Z	83	9,614				
457314410151702528	23	timroberts	Adios Fuelband. http://www.cnet.com/news/nike-fires-fuelband-engineers-will-stop-making-wearable-hardware/ 	es	1	2	3		2014-04-19T00:27:06.000Z	83	9,614				
444598567705923585	23	timroberts	talking shop at a fitness &amp; tech meetup in SF next week. 	en	0	0	1		2014-03-14T22:18:53.000Z	83	9,614				
443445713133764608	23	timroberts	“If I don’t get to 10,000 steps I feel like I’m not doing my job,” Shaq on fitbit http://betabeat.com/2014/03/shaquille-oneal-loves-fitbit-might-dominate-the-wearable-space/ 	en	2	0	2	rohit_x_	2014-03-11T17:57:51.000Z	83	9,614				
443562598307340288	23	timroberts	Retweeting myself from almost 8 years ago. I wish i knew what it meant: @timroberts : spelunking in a clown suit 	en	5	0	1		2014-03-12T01:42:19.000Z	83	9,614				
442430480235773952	23	timroberts	Bout to start talking connected fitness with @marthawofford @timroberts @abmarkman #sxsw #fitfuture 	en	4	0	7	cglode	2014-03-08T22:43:41.000Z	83	9,614				
441399299872550912	23	timroberts	Interview with @ParkJames : market leader with 67% share @Fitbit (portfolio co of @SoftTechVC ) http://fb.me/2HUp6dwjZ 	en	2	0	3	CendanaCapital	2014-03-06T02:26:08.000Z	83	9,614				
439150197076410368	23	timroberts	rules for hugging at work. In case you were wondering when and how to hug it out. http://www.linkedin.com/today/post/article/20140227203309-5926874-11-rules-for-hugging-at-work?trk=tod-home-art-list-large_0 	en	1	1	0		2014-02-27T21:29:00.000Z	83	9,614				
434091495528734720	23	timroberts	Why Conan O’Brien Turned Down The Microsoft CEO Job http://www.linkedin.com/today/post/article/20140211232107-288872202-why-i-conan-o-brien-turned-down-the-microsoft-ceo-job 	en	0	0	0		2014-02-13T22:27:32.000Z	83	9,614				
433788306229186560	23	timroberts	Fitbit dominating activity tracker sales. 58%-68% of market. http://mobihealthnews.com/29883/prediction-17m-wristworn-activity-trackers-to-ship-in-2014/ 	en	6	0	8		2014-02-13T02:22:46.000Z	83	9,614				https://pbs.twimg.com/media/BgUgKoXCIAAe9IX?format=jpg&amp;name=360x360
430739743299485697	23	timroberts	This Spring, fitness meets fashion: http://blog.fitbit.com/announcing-the-tory-burch-for-fitbit-accessory-collection/ 	en	30	13	33	fitbit	2014-02-04T16:28:52.000Z	83	9,614				
426755578870763520	23	timroberts	Tech Time Warp of the Week: In 1959, a Fitbit Weighed 2,000 Pounds | Wired Enterprise | http://Wired.com 	en	1	0	1		2014-01-24T16:37:13.000Z	83	9,614				
425728347918708737	23	timroberts	Olympians using Fitbits http://online.wsj.com/news/articles/SB10001424052702303465004579326592891077648?mg=reno64-wsj&amp;url=http%3A%2F%2Fonline.wsj.com%2Farticle%2FSB10001424052702303465004579326592891077648.html 	en	0	0	0		2014-01-21T20:35:22.000Z	83	9,614				
424251346015887360	23	timroberts	What The Fuck Is My Wearable Strategy? http://whatthefuckismywearablestrategy.com 	en	8	1	21	dunstan	2014-01-17T18:46:17.000Z	83	9,614				
424354319165452288	23	timroberts	In 2013 I walked 1752.5 miles with Fitbit and made it to the squid level. http://www.fitbit.com/summary/2013?encodedUserId=22CJJS #MyFitbitYear via @fitbit 	en	0	0	0		2014-01-18T01:35:28.000Z	83	9,614				
417710071804489728	23	timroberts	Don’t have a tracker? Want to try Fitbit? The @fitbit iOS app’s new MobileTrack feature lets you use the M7 processor in your iPhone 5S! 	en	15	1	36	barrycburton	2013-12-30T17:33:36.000Z	83	9,614				
417748567252410368	23	timroberts	And now Fitbit is also the top app in the health and fitness category for both iTunes AND Google Play. 	en	11	1	6		2013-12-30T20:06:34.000Z	83	9,614				https://pbs.twimg.com/media/BcwkG8RCUAAM6Jr?format=png&amp;name=360x360
414523578894147584	23	timroberts	Fitbit is the top app in the health and fitness category on iTunes for the first time. Woohoo! 	en	10	0	4		2013-12-21T22:31:37.000Z	83	9,614				
414227978826940416	23	timroberts	The only California slang worse than 'hella' is 'hecka' (though possibly more appropriate in mixed company) 	en	0	0	0		2013-12-21T02:57:00.000Z	83	9,614				
405565973517713409	23	timroberts	A slow walk home after work can solve all problems. 	en	3	1	1		2013-11-27T05:17:17.000Z	83	9,614				
398505366184398848	23	timroberts	congrats to @ev @jack @biz . What an amazing accomplishment. 	en	2	0	1		2013-11-07T17:40:57.000Z	83	9,614				
398170522011189248	23	timroberts	True, I was skeptical about Twitter at start. Mainly wanted a groups social model v following. Sure was proved wrong. #hatchingtwitter 	en	3	3	2		2013-11-06T19:30:24.000Z	83	9,614				
397899142095048704	23	timroberts	Stoked to be talking about wearables and health in a couple weeks at Health 2.0 Europe. http://bit.ly/YOYf5D #health2eu #health2con 	en	2	1	1		2013-11-06T01:32:02.000Z	83	9,614				
397596202381754368	23	timroberts	iTunes radio is the best thing since iTunes Ping! Oh wait... that also sucked. 	en	1	0	0		2013-11-05T05:28:16.000Z	83	9,614				
381132571456720896	23	timroberts	RT wow. includes Walt's tighty whiteys “ @danideahl : Breaking Bad props for sale http://screenbid.auctionserver.net/view-auctions/catalog/id/6/?page=1 ” 	en	0	0	0		2013-09-20T19:07:40.000Z	83	9,614				
380878491719192576	23	timroberts	Fitbit for iPhone 2.0 is now live on the App Store! Huge update for iOS 7 with lots of improvements. https://itunes.apple.com/us/app/fitbit/id462638897?mt=8 	en	0	0	2	SMNR	2013-09-20T02:18:03.000Z	83	9,614				
375111646898712576	23	timroberts	Fun running with lots of Fitbit people + 10k others at the Jp Morgan race this afternoon. 	en	1	0	0		2013-09-04T04:22:40.000Z	83	9,614				
370161914677972993	23	timroberts	Connected Fitness 2.0: Shaping Healthy Behaviors with @cglode #MapMyFitness @timroberts #Fitbit @abmarkman #UT #SXSW 	en	0	0	2	matthewlmcclure	2013-08-21T12:34:12.000Z	83	9,614				
369990077843124224	23	timroberts	Forgot my @fitbit at home for the first time ever. It's like today didn't even happen. 	en	7	1	1	jeffrey	2013-08-21T01:11:23.000Z	83	9,614				
357998102315147264	23	timroberts	Checking out @Fitabase . Making Fitbit awesome for researchers. http://www.fitabase.com 	en	1	0	4		2013-07-18T22:59:33.000Z	83	9,614				
356611650046017538	23	timroberts	Beautiful. Agostino Lacurci 	en	0	0	0		2013-07-15T03:10:17.000Z	83	9,614				
355376961461297152	23	timroberts	and oldie, but good reminder: multitasking is an illusion. you can't do it. focus. http://www.npr.org/templates/story/story.php?storyId=95256794 	en	0	0	0		2013-07-11T17:24:04.000Z	83	9,614				
331564597259685889	23	timroberts	Fitbit Flex launches today. (ps. it's pretty great. Best Fitbit yet.) http://www.fitbit.com/flex 	en	0	1	2		2013-05-07T00:22:14.000Z	83	9,614				
301109483969593344	23	timroberts	The @fitbit Android app v1.5 featuring Bluetooth sync (beta) for Samsung devices is now available on Google Play: https://play.google.com/store/apps/details?id=com.fitbit.FitbitMobile 	en	0	0	3	barrycburton	2013-02-11T23:24:29.000Z	83	9,614				
288372104963969025	23	timroberts	Fitbit comes to the wrist! http://www.fitbit.com/flex 	en	1	2	0		2013-01-07T19:50:42.000Z	83	9,614				
270919163021758464	23	timroberts	Interesting data viz using Fitbit data. http://notch.me/p/1oUipnvarwWWU3yA4AJ5JG?kme=share-url-clicked&amp;km_share-type=twitter-post #koda @notchme 	in	1	1	0		2012-11-20T15:58:56.000Z	83	9,614				
248180155644792832	23	timroberts	I spy a bunch of @fitbit zips in the wild in NY 	en	0	3	2	bfeld	2012-09-18T22:02:15.000Z	83	9,614				https://pbs.twimg.com/media/A3G2iWHCUAEObYk?format=jpg&amp;name=360x360
248063894403305473	23	timroberts	Finally! RT @ljrain : I am working on a @fitbit plugin to add a widget to @wordpress 	en	1	1	1		2012-09-18T14:20:15.000Z	83	9,614				
247782899515019266	23	timroberts	Congrats to our clients @fitbit on the launch of two new products today with a fresh new website by the @Odopod gang! http://www.fitbit.com 	en	7	4	8	odopod	2012-09-17T19:43:41.000Z	83	9,614				
247781181649723392	23	timroberts	We've just announced two new products: Zip and One! Including Bluetooth 4.0 sync and new designs: http://fitbit.com/zip http://fitbit.com/one 	en	9	27	33	fitbit	2012-09-17T19:36:51.000Z	83	9,614				
238795790913507328	23	timroberts	I think Fab may be running short on 'well designed products' 	en	0	0	1		2012-08-24T00:32:08.000Z	83	9,614				https://pbs.twimg.com/media/A1BfgbOCEAEBz6r?format=png&amp;name=small
210434139063730177	23	timroberts	RT @DesignMunchies : So I rewrote the graph from Fitbit to reflect my version of reality a little more. 	en	0	2	0		2012-06-06T18:13:03.000Z	83	9,614				https://pbs.twimg.com/media/AuucaaLCQAAiOoO?format=png&amp;name=360x360
210433541601898496	23	timroberts	congrats @trueventures on the new fund. http://nyti.ms/Ly6OvH 	en	0	1	0		2012-06-06T18:10:40.000Z	83	9,614				
210255576389795840	23	timroberts	is that @natekoechley ? http://bit.ly/KO1xmv 	en	0	0	0		2012-06-06T06:23:30.000Z	83	9,614				
205352910308126721	23	timroberts	Jalapeno Funk! 	in	0	0	0		2012-05-23T17:42:03.000Z	83	9,614				
201034791787839488	23	timroberts	I've walked 3,000 miles since I got my Fitbit. That's like walking across the United States. 	en	0	0	0		2012-05-11T19:43:24.000Z	83	9,614				
200634968433631234	23	timroberts	fight for your right to rumpus http://bit.ly/JE5AhM 	en	0	1	0		2012-05-10T17:14:38.000Z	83	9,614				
193026276104224770	23	timroberts	echcrunch 	en	0	0	0		2012-04-19T17:20:25.000Z	83	9,614				
188303267179147264	23	timroberts	now that is some serious customer service http://bit.ly/HeuQKv 	en	1	2	0		2012-04-06T16:32:52.000Z	83	9,614				
172096114206576643	23	timroberts	My avg. daily fitbit #fitstats for last week: 8,495 steps and 4.2 miles traveled. http://www.fitbit.com/user/22CJJS 	en	0	0	0		2012-02-21T23:11:25.000Z	83	9,614				
169549133592526848	23	timroberts	@dunstan can you DM me when you get a chance? 	en	0	0	0		2012-02-14T22:30:38.000Z	83	9,614				
167385605318250497	23	timroberts	My avg. daily fitbit #fitstats for last week: 9,536 steps and 5 miles traveled. http://www.fitbit.com/user/22CJJS 	en	0	0	0		2012-02-08T23:13:32.000Z	83	9,614				
164485752439312384	23	timroberts	My avg. daily fitbit #fitstats for last week: 8,550 steps and 4.5 miles traveled. http://www.fitbit.com/user/22CJJS 	en	0	0	0		2012-01-31T23:10:34.000Z	83	9,614				
162311699809050624	23	timroberts	My avg. daily fitbit #fitstats for last week: 8,035 steps and 4 miles traveled. http://www.fitbit.com/user/22CJJS 	en	0	0	0		2012-01-25T23:11:39.000Z	83	9,614				
159775135828684800	23	timroberts	My avg. daily fitbit #fitstats for last week: 8,488 steps and 4.2 miles traveled. http://www.fitbit.com/user/22CJJS 	en	0	0	0		2012-01-18T23:12:15.000Z	83	9,614				
157236920743763969	23	timroberts	My avg. daily fitbit #fitstats for last week: 8,999 steps and 4.3 miles traveled. http://www.fitbit.com/user/22CJJS 	en	1	3	1		2012-01-11T23:06:17.000Z	83	9,614				
156559046051233792	23	timroberts	@timroberts ps. I was the male foot model for the product. http://bit.ly/At7C0c 	en	0	2	3		2012-01-10T02:12:39.000Z	83	9,614				
156558654080942080	23	timroberts	We (Fitbit) just announced our new Wi-fi scale. http://bit.ly/zkY1Rt It is awesome. 	en	1	3	5		2012-01-10T02:11:06.000Z	83	9,614				
154709448089288705	23	timroberts	@XLG_Deca333 Fitbit iPhone app now available in the UK! 	en	0	3	0		2012-01-04T23:43:01.000Z	83	9,614				
154337153034358784	23	timroberts	My avg. daily fitbit #fitstats for last week: 10,062 steps and 5.2 miles traveled. http://www.fitbit.com/user/22CJJS 	en	1	0	0		2012-01-03T23:03:39.000Z	83	9,614				
152525195033317376	23	timroberts	My avg. daily fitbit #fitstats for last week: 10,498 steps and 5.5 miles traveled. http://www.fitbit.com/user/22CJJS 	en	0	0	0		2011-12-29T23:03:34.000Z	83	9,614				
149586692037283840	23	timroberts	@simonsmith001 thnx! I hope you also saw the confirmation page :) 	en	0	0	0		2011-12-21T20:27:01.000Z	83	9,614				
149264273263181825	23	timroberts	My avg. daily fitbit #fitstats for last week: 7,895 steps and 4 miles traveled. http://www.fitbit.com/user/22CJJS 	en	0	0	0		2011-12-20T23:05:50.000Z	83	9,614				
146728222531399680	23	timroberts	My avg. daily fitbit #fitstats for last week: 9,148 steps and 6 miles traveled. http://www.fitbit.com/user/22CJJS 	en	0	0	0		2011-12-13T23:08:28.000Z	83	9,614				
144473057547919362	23	timroberts	@dannykey coming very soon 	en	0	0	0		2011-12-07T17:47:15.000Z	83	9,614				
144190456895516672	23	timroberts	My avg. daily fitbit #fitstats for last week: 8,501 steps and 5.2 miles traveled. http://www.fitbit.com/user/22CJJS 	en	0	0	0		2011-12-06T23:04:18.000Z	83	9,614				
1141850767650770944	31	rayreadyray	World-scale AR WIP "Dwellers". Amazed at how large the tracked area can be. Please excuse the squelch. #ARKit #UE4 @UnrealEngine 	en	71	0	19		2019-06-20T23:30:12.000Z	1,822	10,301		blob:https://twitter.com/d9b3361a-f26a-4f7c-993d-8563d7d5a2ce	https://pbs.twimg.com/ext_tw_video_thumb/1141849507505643521/pu/img/uLfRZ6vda16Aus-z.jpg	
1291194390820425729	31	rayreadyray	Who’s next? #defundsfpd 	en	4	0	0		2020-08-06T02:08:26.000Z	1,822	10,301				
1287319466120904704	31	rayreadyray	Feds pepper sprayed this Vietnam Veteran/photographer right in the face. His name is Mike Hastie. He was an Army medic. #PortlandProtests 	en	82884	3524	50029	andrewkimmel	2020-07-26T09:30:52.000Z	1,822	10,301		blob:https://twitter.com/a21540f1-6154-4d2f-b043-f95f5c2fe605	https://pbs.twimg.com/ext_tw_video_thumb/1287319271710760961/pu/img/Zi-Y6yQ8ilYYbzg_.jpg	
1286723900345180160	31	rayreadyray	If you're into books, you might know that some books are called "trade paperbacks" and others are called "mass market paperbacks." 1/ 	en	674	21	487	doctorow	2020-07-24T18:04:18.000Z	1,822	10,301				
1285967416799801345	31	rayreadyray	We must demand our elected officials openly condemn the notion of “proactive arrests.” It’s unconstitutional, undemocratic, and dangerous. Please, please retweet if you agree. Tag your family and friends. Tag your governors, senators, and reps. Spread this message far and wide. 	en	15	0	13	JesseDamiani	2020-07-22T15:58:18.000Z	1,822	10,301				
1285427135746764800	31	rayreadyray	Moms sing lullaby “hands up please don’t shoot me” 	en	37377	1014	18073	MrOlmos	2020-07-21T04:11:25.000Z	1,822	10,301		blob:https://twitter.com/882c9960-0a30-44e7-a0e2-906afb289386	https://pbs.twimg.com/ext_tw_video_thumb/1285427031371419649/pu/img/aYy8LrPb6RszkLsk.jpg	
1284994739050295297	31	rayreadyray	how do we get military recruiters out of highschools? 	en	194	8	60	JudithToday	2020-07-19T23:33:14.000Z	1,822	10,301				
1280378493834981376	31	rayreadyray	Also try to carry a bit of cash so you’ll be ready to help someone out. 	en	3	0	1		2020-07-07T05:49:55.000Z	1,822	10,301				
1279462727744843776	31	rayreadyray	What our ancestors were doing on 4th of July 1776. 	en	24518	104	14270	africanarchives	2020-07-04T17:11:00.000Z	1,822	10,301				
1276316415365050368	31	rayreadyray	I miss @GrayAreaorg so much. Please donate. 	en	11	1	3		2020-06-26T00:48:40.000Z	1,822	10,301				
1276315167869906945	31	rayreadyray	Right now!! 	en	3	0	0		2020-06-26T00:43:43.000Z	1,822	10,301				
1274409147618877443	31	rayreadyray	HAPPENING NOW: 80+ people painting “Defund the Police” and “BLM” in front of SF City Hall 	en	310	17	103	samklew	2020-06-20T18:29:52.000Z	1,822	10,301				
1273811018901266434	31	rayreadyray	So we just let the homeless sleep in the fucking rain and snow because why? 	en	536038	882	154292	Danny_MAZE	2020-06-19T02:53:07.000Z	1,822	10,301				
1271897735931846659	31	rayreadyray	one of the reasons protest is important is because it generates images, and images have incredible power, and that power spreads. And this from today is an incredible image 	en	771	7	127	David_Rudnick	2020-06-13T20:10:25.000Z	1,822	10,301				
1270451011677798402	31	rayreadyray	it's still got a shine on it 	en	122657	2811	85637	bubbaprog	2020-06-09T20:21:39.000Z	1,822	10,301		blob:https://twitter.com/99888a0a-70fa-4111-8dfa-49f8cb4ffd73	https://pbs.twimg.com/ext_tw_video_thumb/1270450828156063751/pu/img/9jJAw0rJ2hDtCCB6.jpg	
1270360076394602497	31	rayreadyray	my friend asked “ok if we get rid of the police, what happens during an armed home invasion or a school shooting or if my child is kidnapped?” during our convo we found our way to the following ideas: 	en	62	3	25	tundeolaniran	2020-06-09T14:20:19.000Z	1,822	10,301				
1269369901346512896	31	rayreadyray	From some to just about everyone. The march on the Golden Gate Bridge has stopped all traffic. This is a captivating shot from our chopper. 	en	50715	213	22848	ABC7Shack	2020-06-06T20:45:42.000Z	1,822	10,301		blob:https://twitter.com/a9edcc45-a791-420d-aae3-04c06b2ad3c5	https://pbs.twimg.com/ext_tw_video_thumb/1269369536077152256/pu/img/m1kkAl7WPU1ndUvr.jpg	
1268701403347931139	31	rayreadyray	she SPOKE on it, wow 	en	118791	698	63458	AlexThomasSmith	2020-06-05T00:29:20.000Z	1,822	10,301		blob:https://twitter.com/e29bd019-1fa3-4e86-add5-398971042ee0	https://pbs.twimg.com/amplify_video_thumb/1268590987225509890/img/KX-6l_JGL18uBvG0.jpg	
1268978210387013632	31	rayreadyray	Here are some more businesses to NOT GO TO, since they are trying to disband the 730 Stanyan Safe Sleeping Site: 1428 Haight, @AmoebaSF , @colecafe , @efnypizza , @FlywheelCoffee , Pork Store Cafe, @veganburg . For shame. ( https://medium.com/@safehealthyhaight/the-site-the-merchants-the-next-steps-23a63496d96 ) 	en	138	24	62	MayUseFullLane	2020-06-05T18:49:16.000Z	1,822	10,301				
1266664898903158784	31	rayreadyray	Apparently there’s a demonstration I’m Shibuya, Tokyo!!! I’m actually impressed. BLM 	en	74	3	34	DiR5faMendes	2020-05-30T09:37:00.000Z	1,822	10,301				
1267880994155245568	31	rayreadyray	Paris says Black Lives Matter 	en	117722	1086	42252	YASMINAREBEL	2020-06-02T18:09:19.000Z	1,822	10,301		blob:https://twitter.com/4f6feddc-20d4-4539-b86e-87100374e03c	https://pbs.twimg.com/ext_tw_video_thumb/1267875968158511106/pu/img/p8_KX8Bul9BlVTFh.jpg	
1267984209743876096	31	rayreadyray	The march has paused on the Manhattan Bridge off ramp, which is blocked by dozens of NYPD cops in riot gear. It appears we’re at an impasse 	en	11133	327	4513	NoahHurowitz	2020-06-03T00:59:28.000Z	1,822	10,301		blob:https://twitter.com/22b7db71-c94b-4d46-b4ef-e66a55bcdad6	https://pbs.twimg.com/ext_tw_video_thumb/1267984166450323462/pu/img/biAMYm_Ho5TjzSTE.jpg	
1266594551252172801	31	rayreadyray	the reason u don’t see cops shutting down kkk rallies is the same reason u don’t see hannah montana and miley cyrus sitting in the same room 	en	916407	2428	260805	sadie_baby_	2020-05-30T04:57:27.000Z	1,822	10,301				
1267494458146189312	31	rayreadyray	More than thoughts and prayers More than those memes you're sharing We need your presence Join us at 11am today at city hall to kneel for justice. 	en	22	0	5	darkentriesrecs	2020-06-01T16:33:22.000Z	1,822	10,301				https://pbs.twimg.com/media/EZcLc4nU8AEeGjX?format=jpg&amp;name=360x360
1266569184160280576	31	rayreadyray	here’s NYPD throwing a woman to the ground in full view of the public outside of Barclays 	en	792	24	279	MikeIsaac	2020-05-30T03:16:39.000Z	1,822	10,301				
1265768645990526988	31	rayreadyray	what you as a non-black person can do to support : a thread. 	en	430436	1607	223675	byersfilms	2020-05-27T22:15:36.000Z	1,822	10,301				
1265435308558028801	31	rayreadyray	“They’re what San Francisco was supposed to be: an avant-garde place to move to.” Thank you to the one and only V. Vale for the shout out! Learn how @ValeRESearch &amp; Marian Wallace are reflecting on lockdown through art &amp; music. @emmaruthless @sfchronicle 	en	12	0	3	GrayAreaorg	2020-05-27T00:11:02.000Z	1,822	10,301				
1253386780306362368	31	rayreadyray	We're hiring creative programmers to create AR experiences and effects at the TikTok AI Lab in Mountain View or Los Angeles https://job.toutiao.com/s/TG92aB #AR #ARKit #ARCore #AugmentedReality #GLSL 	en	3	1	1	rayreadyray	2020-04-23T18:14:29.000Z	1,822	10,301				
1258056688436776960	31	rayreadyray	The outpouring of support for the Bayview community encampment has been so so incredible!! Lots of people asking how to support/donate. Here’s a list + how to deliver! 	en	29	0	18	TheCoalitionSF	2020-05-06T15:31:02.000Z	1,822	10,301				https://pbs.twimg.com/media/EXWD0tOU4AUJPgb?format=jpg&amp;name=small
1256123356052684800	31	rayreadyray	SUNN O))) release 3 rehearsal demos from the LIFE METAL sessions today @Bandcamp ... practice space writing shredding transcending. The raw pigment. Stretching the canvas. All income from those sales donated to @foodbanking Global Food Banking Network. http://sunn.bandcamp.com 	en	101	2	52	IdeologicOrgan	2020-05-01T07:28:40.000Z	1,822	10,301				https://pbs.twimg.com/media/EW6lUHKX0AAyhux?format=jpg&amp;name=360x360
1254847096907132939	31	rayreadyray	I like this @billmaher clip but many people are put off by his smug tone, so I dubbed a friendlier voice over it. 	en	1868	36	284	douggpound	2020-04-27T18:57:16.000Z	1,822	10,301		blob:https://twitter.com/b1d023e1-a684-492b-976a-7df123ed5f9b	https://pbs.twimg.com/amplify_video_thumb/1254844011950424064/img/FJAkmo22_dYEQvx0.jpg	
1254848935476080641	31	rayreadyray	Boredoms AND a food bank fundraiser ((High voltage sign)) 	en	2	0	0		2020-04-27T19:04:34.000Z	1,822	10,301				
1253776407643041794	31	rayreadyray	I'm trying to find a classic 3D animation and I can't remember the name. I believe it's about a man that's discovered an ecosystem of microscopic animals that all have strange behavior. Each episode is a couple minutes long and focuses on a different creature. Ring any bells? 	en	0	0	0		2020-04-24T20:02:44.000Z	1,822	10,301				
1253554755206447104	31	rayreadyray	the question of "what would happen if jails didn't exist?" is being answered in real time during this pandemic since COVID, SF's jail population has decreased by 38%. Today there was an all-time low of 701 people. AND at the same time, crime in the city continues to plummet. 	en	237	10	68	samklew	2020-04-24T05:21:58.000Z	1,822	10,301				
1253439377604141056	31	rayreadyray	Thanks, @mrdoob ! 	en	1	0	0		2020-04-23T21:43:30.000Z	1,822	10,301				
1253386781757542400	31	rayreadyray	Also looking for software engineers for the TikTok platform (C++/iOS/Android/Backend) https://job.toutiao.com/s/TGunbs #iOS #AR #ARKit #Android #ARCore #AugmentedReality 	en	1	0	0		2020-04-23T18:14:30.000Z	1,822	10,301				
1253386781057138688	31	rayreadyray	This one is for a tech lead for the TikTok AR effects team https://job.toutiao.com/s/TGu5Wm #AR #ARKit #ARCore #AugmentedReality #GLSL 	en	1	1	0		2020-04-23T18:14:30.000Z	1,822	10,301				
1251338790523695106	31	rayreadyray	In the Irish potato famine there was enough food but the land owners exported the wheat and let the population try and survive on blighted potatos. Plowing under crops when food shelters are overwhelmed is immoral. 	en	6567	49	3091	rabble	2020-04-18T02:36:31.000Z	1,822	10,301				
1251171609643106308	31	rayreadyray	Reading the sci-fi book Chasm City by Alastair Reynolds and it’s disturbingly topical. It’s about the Melding Plague- an AI in the form of a rapidly spreading cancer that attacks people, technology and architecture. I just woke from a Coronavirus/Melding Plague dream. 	en	1	0	0		2020-04-17T15:32:12.000Z	1,822	10,301				
1249388920682344451	31	rayreadyray	I’ve noticed I’m recalling less details from my dreams recently. I’m staying up later working on projects. I wonder if others on average are sleeping more during quarantine. I’m sure the added anxiety plays a part too. 	en	1	0	0		2020-04-12T17:28:25.000Z	1,822	10,301				
1248714026365796352	31	rayreadyray	We begged the city from day 1 to get homeless people into hotel units before a shelter outbreak happened. &amp; now it's happened. &amp; now 70 beloved people are sick. &amp; now we are heartbroken + infuriated to see all of our predictions come true. GET EVERYONE INTO HOTEL ROOMS NOW 	en	211	3	148	TheCoalitionSF	2020-04-10T20:46:38.000Z	1,822	10,301				
1247664933782814723	31	rayreadyray	Dr. Anthony Fauci: "When all this is over, and as we've said, it will end. We will get over Coronavirus, but there will still be health disparities, which we really do need to address in the African American community." Full video here: https://cs.pn/2wjp92O 	en	10750	255	4922	cspan	2020-04-07T23:17:55.000Z	1,822	10,301		blob:https://twitter.com/f1ca5839-440a-4bff-ba17-00aaccc278df	https://pbs.twimg.com/media/EVCYoTWWsAAqw22.jpg	
1246859935939362816	31	rayreadyray	Still, read more Alastair and #GoVegan 	en	0	0	1		2020-04-05T17:59:08.000Z	1,822	10,301				
1246859232093356034	31	rayreadyray	I read Alastair Reynolds to scratch an Iain Banks itch. It feels similar to why I occasionally eat vegan pizza. It does the job, but... 	en	1	1	0		2020-04-05T17:56:21.000Z	1,822	10,301				
1246596763298852865	31	rayreadyray	It’s been raining so hard all day &amp; I can’t stop thinking about the 5000 homeless San Franciscans suffering outside. Shelters have stopped taking anyone in. Social workers are begging the city for somewhere their elderly + disabled clients can go. 40,000 hotel units sit empty. 	en	2414	32	941	samklew	2020-04-05T00:33:23.000Z	1,822	10,301				
1245057071663337472	31	rayreadyray	((Satellite antenna)) Saturday 4/4 7-9pm PDT: I'm speaking as part of the ((Sparkles)) @sfcmtac Online Festival ((Sparkles)) also featuring @clipping , @hollyherndon , @awintory , Matmos ( @DDDrewDaniel and @lordmcess ), @debreved &amp; more. Watch the livestream here: http://bit.ly/sfcmtaconlinefest 	en	39	1	11	barrythrew	2020-03-31T18:35:12.000Z	1,822	10,301				https://pbs.twimg.com/media/EUdUvdxUMAAmlxV?format=jpg&amp;name=360x360
1244575168401264643	31	rayreadyray	Danced with good friends over Zoom and Club Quarantäne this weekend. This has its limits, but VERY interesting. 	en	8	1	1		2020-03-30T10:40:17.000Z	1,822	10,301				
1244071355055607809	31	rayreadyray	If capitalism is so great, why does it need to be bailed out by socialism every ten years? 	en	401200	3038	93728	CallForCongress	2020-03-29T01:18:19.000Z	1,822	10,301				
1243712296364331008	31	rayreadyray	also "JavaScript", "Evangelion", and "Dubstep" 	en	2	0	0		2020-03-28T01:31:33.000Z	1,822	10,301				
1242931718903955456	31	rayreadyray	I worry very much what the coronavirus will do, particularly in Yemen, where the U.S.-backed Saudi war has put millions on the brink of starvation. Let us use the five-year anniversary of this horrific conflict to end our military involvement. Yemen needs peace, not U.S. bombs. 	en	6216	225	1689	SenSanders	2020-03-25T21:49:48.000Z	1,822	10,301				
1241408826953224192	31	rayreadyray		und	3	0	0		2020-03-21T16:58:23.000Z	1,822	10,301				https://pbs.twimg.com/media/ETpevkbVAAAqKfC?format=jpg&amp;name=360x360
1239599411585372160	31	rayreadyray	Friends, the #coronavirus has put the cultural infrastructure @GrayAreaorg we have built in San Francisco over the last decade at risk. We are issuing an urgent plea for your support. ((Red heart)) ((Folded hands)) 	en	86	1	70	barrythrew	2020-03-16T17:08:25.000Z	1,822	10,301				
1038805468095934464	41	drx	Prove it 	en	4	0	1		2018-09-09T15:04:58.000Z	70	98				
1291424065773867014	41	drx	Luster by @RavenLeilani 	en	1	0	0		2020-08-06T17:21:05.000Z	70	98				
1291404747795300359	41	drx	I can't believe I didn't realize this earlier. 2020 is obviously smoking the purest of the strongest of sativa strains and leisurely reading The Illuminatus! Trilogy. Hail Eris! ((😂)) 	en	0	0	0		2020-08-06T16:04:19.000Z	70	98				
1291086360779071489	41	drx	Pretty disappointed no western culture elitist libertarians of note has ever put forward the "honorary white man" solution to our racial problems. C'mon get some guts. ((😂)) ((😂)) 	en	1	0	0		2020-08-05T18:59:10.000Z	70	98				
1291068366963302400	41	drx	Here's another way to think about the George Floyd reaction. Maybe it isn't statistically commonplace but if no one expressed outrage there's a chance it could. #SkinInTheGame for that ass. 	en	1	0	0		2020-08-05T17:47:40.000Z	70	98				
1291067587531546625	41	drx	When people say social programs don't work or that the war on poverty was a failure, how do we know? Not saying they are wrong but maybe it could've have been worse without those things? How would we determine something like that? Seems important right now. 	en	1	0	0		2020-08-05T17:44:34.000Z	70	98				
1290876225209208838	41	drx			1426	13	201	archillect	2020-08-05T05:04:10.000Z	70	98				https://pbs.twimg.com/media/EeodFX2XsAEm7ej?format=png&amp;name=360x360
1290528647359524865	41	drx	https://www.currentaffairs.org/2020/08/the-truth-is-paywalled-but-the-lies-are-free/ Generally a good, frustrated article, but I do advocate Sci Hub for people who are too poor to afford access to basic research. The problem that "Disinformation is free, but information is being paywalled" is real. 	en	9	1	3	bdowney	2020-08-04T06:03:01.000Z	70	98				
1290531651248885761	41	drx	Madame Patti LaBelle's "If Only You" is fucking arresting. It kills me every time. As a teenager I veered into Sade and Anita Baker, but I am a child of Patti. That ending... 	en	1	0	0		2020-08-04T06:14:57.000Z	70	98				
1290342168494854149	41	drx	Real question. How do you ban a website/service in the US? Are we talking automated removal from people's phones? What does banning even mean in this context? 	en	0	0	0		2020-08-03T17:42:01.000Z	70	98				
1290323611883122689	41	drx	Men lie, women lie and if a man or a woman is doing the analysis... 	en	0	0	1		2020-08-03T16:28:16.000Z	70	98				
1290311785636036609	41	drx	Sniff test for the self proclaimed anti-cancel culture folks: are you willing to support un-cancelling Nick Cannon? I don't give a shit about him, but stop fucking playing with me. Cancel culture is not a new phenomena. What are we REALLY talking about. Be honest. 	en	0	0	1		2020-08-03T15:41:17.000Z	70	98				
1289348429231972353	41	drx			0	0	1		2020-07-31T23:53:15.000Z	70	98				https://pbs.twimg.com/media/EeSvjcJXsAUFWza?format=jpg&amp;name=360x360
1289348427621441536	41	drx			0	1	1		2020-07-31T23:53:14.000Z	70	98				https://pbs.twimg.com/media/EeSveV4WAAIErAL?format=jpg&amp;name=360x360
1285676843719327744	41	drx	Oh! I get it now. Freedom loving Americans love THEIR freedom, but fuck YOUR freedom. Makes sense. 	en	1	1	0		2020-07-21T20:43:40.000Z	70	98				
1285122218230534145	41	drx	I feel like this is the best music video I have ever seen. 	en	0	0	0		2020-07-20T07:59:47.000Z	70	98				
1285119370621067265	41	drx	https://www.youtube.com/watch?v=Pv0jU0ccUGQ #bigmood 	und	0	0	0		2020-07-20T07:48:28.000Z	70	98				
1285017742903517184	41	drx	Ok my thing is this: read the room. If this bitch ain’t never said nothing about wanting to fish, liking to fish, being a fish, eating a fishwich, why tf you think she wanna do that? If you want to fish, date a fishing ass bitch. Life is not this hard. 	en	192	5	133	themarissarae	2020-07-20T01:04:39.000Z	70	98				
1285092743124049921	41	drx	You young kids have no idea how many of your parents toxic relationships revolve around Keith Sweat and Ready for the World. ((😂)) 	en	0	0	0		2020-07-20T06:02:40.000Z	70	98				
1272950880925388801	41	drx	I made a thing which manifests the reputation economy implicit in Twitter link sharing -- as one does -- and, somewhat to my surprise, a news aggregator fell out: https://www.scanvine.com/ 	en	11	3	9	rezendi	2020-06-16T17:55:14.000Z	70	98				
1285061096982839296	41	drx	Y'all some funny motherfuckas man. I swear fo' god. ((😆)) ((😆)) ((😂)) I mean I do subscribe to the "don't get judge happy unless you are in that position" but, I never raised my hand and said, "I am in charge here." Be in charge or hari kiri, inc./.gov Oh right can't decide what that is.. 	en	0	0	0		2020-07-20T03:56:55.000Z	70	98				
1285059178877329413	41	drx	Oh damn I have to eat my words. There was that one kid at summer camp. But, then again I did help fight off a psychotic kid that was attacking his sister, and didn't try to date her. That dating part is very important. Lol. 	en	0	0	0		2020-07-20T03:49:18.000Z	70	98				
1285058659068895232	41	drx	I cannot, for the life of me, going back to kindergarten, remember one single Eric being, by my standards, a decent human being. It's hilarious and amazing. Apologies too all cool Erics. I know you are out there somewhere. ((😂)) Also shout out to change. It. Is. Possible. 	en	0	1	0		2020-07-20T03:47:14.000Z	70	98				
1279284720426246146	41	drx	This round of personal twttr was cool. Still don’t know how any of this shit works but it’s cool. I always seem to be too late or too early. Shit is kind of hilarious. I tried. ((🤷🏾‍♂️)) 	en	1	0	0		2020-07-04T05:23:39.000Z	70	98				
1278898778406346753	41	drx	“The pitiful hate.” 	en	0	0	0		2020-07-03T03:50:04.000Z	70	98				
1278898207402180609	41	drx	Growing up in 1950s VA 	en	0	0	0		2020-07-03T03:47:48.000Z	70	98				
1278896626388684800	41	drx			0	0	0		2020-07-03T03:41:31.000Z	70	98				
1278895744087359488	41	drx	This David Hoffman YT channel may just be a national treasure. 	en	0	1	0		2020-07-03T03:38:00.000Z	70	98				
1278888652656033792	41	drx	Cc: @metroadlib you might get a kick out of this interview. So many quotables. 	en	0	1	0		2020-07-03T03:09:50.000Z	70	98				
1278883823674163200	41	drx	15th United States Assistant Attorney General Roger Wilkins talks about his experiences as an American. 	en	1	1	0		2020-07-03T02:50:38.000Z	70	98				
1278495216228597762	41	drx	I think I now have just a bit of insight into how the 60s revolutionaries saw us when we were running wild ‘90-‘95. Goddamn it’s hard not to roll my eyes watching y’all work this shit out, but tbf y’all definitely way more constructive than we were that’s for sure sure. 	en	1	0	0		2020-07-02T01:06:27.000Z	70	98				
1269356677356191745	41	drx	i can't express how incredible these Alice Smith performances are. 	en	12	1	3	anaserhall	2020-06-06T19:53:10.000Z	70	98		blob:https://twitter.com/4944d02e-209a-4e19-80e8-bbfe8aaaac7c	https://pbs.twimg.com/ext_tw_video_thumb/1269354243456225282/pu/img/lylyuAENv72G0PL0.jpg	
1278420814443020289	41	drx	Still: https://www.youtube.com/watch?v=-ZOW4CvYAZ4 @alicesmithmusic Draws me in every time. My favorite voice. 	en	0	0	0		2020-07-01T20:10:48.000Z	70	98				
1278165571322822656	41	drx	This!!!!!! All day THIS!!!! ((👇🏾)) ((👇🏾)) ((👇🏾)) ((👇🏾)) 	en	173657	754	44694	itsgabrielleu	2020-07-01T03:16:34.000Z	70	98				
1278339760801677319	41	drx	((🤔)) 	und	0	0	0		2020-07-01T14:48:44.000Z	70	98				
1278336335976304640	41	drx	“Part of me would vote ‘No,’ but I have an adult son that makes borderline poverty that doesn’t qualify for Medicaid, and he doesn’t have health insurance. Because he doesn’t have health insurance, it affects his family, and upsets me." 	en	1	0	0		2020-07-01T14:35:07.000Z	70	98				
1278155153338699779	41	drx	John Adams: I must study politics +war, that our sons may have liberty to study math + philosophy. Our sons ought study math + philosophy, geography, natural history, navigation, commerce + ag...to give their children a right to study painting, poetry, music, architecture..." 	en	303	11	42	wolfejosh	2020-07-01T02:35:10.000Z	70	98				
1277724874392457216	41	drx	Yep. 	und	1	0	0		2020-06-29T22:05:23.000Z	70	98				
1277455515103223808	41	drx	I love Marsai for everything, but especially for this ((😂)) 	en	1208	15	504	JunaeBrown	2020-06-29T04:15:03.000Z	70	98		blob:https://twitter.com/04f38b52-272c-41b1-ab4a-b60ef4a7abfe	https://pbs.twimg.com/ext_tw_video_thumb/1277423876629303296/pu/img/iCD1_BMuGmWl2eCo.jpg	
1277505330885386240	41	drx	Just had conversation with a British couple who have a holiday home near us. They voted for Brexit and have made no arrangements whatsoever for what happens on Jan 1. They have now discovered the reality of their situation. The blame apparently is with "Brussels". 	en	138453	5981	53723	archer_rs	2020-06-29T07:33:00.000Z	70	98				
1276864406119485443	41	drx			12729	60	3127	archillect	2020-06-27T13:06:12.000Z	70	98		https://video.twimg.com/tweet_video/EbhVaFzXQAIS0F7.mp4	https://pbs.twimg.com/tweet_video_thumb/EbhVaFzXQAIS0F7.jpg	
1276773859849535488	41	drx	I remember this period he is referring to. It was hilarious to me then and it is hilarious to me now. I always guessed he didn’t give a fuck. If he’s good with it then I was thrilled. Kept copping all his shit. 	en	0	0	0		2020-06-27T07:06:24.000Z	70	98				
1276771482903904256	41	drx	“Forever...” 	en	0	0	0		2020-06-27T06:56:57.000Z	70	98				
1276743913475276800	41	drx	Thinking of Rogan’s move to Spotify brought to mind Stern’s move. Maybe there is something to this edge we are running. 	en	0	0	0		2020-06-27T05:07:24.000Z	70	98				
1276713861257756673	41	drx	This pandemic has exposed me to new ways of parsing creature comforts. Anybody else painfully aware (more than usual) that they are in fact an animal? 	en	0	0	0		2020-06-27T03:07:59.000Z	70	98				
1276158510955401216	41	drx	Amid America's #COVID19 disaster, I must come clean about a lie I spread as a health insurance exec: We spent big $$ to push the idea that Canada's single-payer system was awful &amp; the U.S. system much better. It was a lie &amp; the nations' COVID responses prove it. The truth: (1/6) 	en	135509	3764	86668	wendellpotter	2020-06-25T14:21:13.000Z	70	98				
1276317752383418368	41	drx			3619	30	1062	archillect	2020-06-26T00:53:59.000Z	70	98				https://pbs.twimg.com/media/EbZkO0MWkAA2Q47?format=png&amp;name=360x360
1276204939467948032	41	drx	((Face with open mouth)) ((Face with open mouth)) ((Face with open mouth)) ((Face with open mouth)) ((Face with open mouth)) ((Face with open mouth)) ((Face with open mouth)) ((Face with open mouth)) ((Face with open mouth)) ((Face with open mouth)) ((Face with open mouth)) ((Face with open mouth)) ((Face with open mouth)) 	und	13	3	7	metroadlib	2020-06-25T17:25:42.000Z	70	98				
1276215219472273408	41	drx	This. 	en	0	0	0		2020-06-25T18:06:33.000Z	70	98				
1275994953324388352	41	drx	Are the anti-mask folks closet nudists, full of bravado, have low discipline or all three? 	en	0	1	0		2020-06-25T03:31:18.000Z	70	98				
1275898149245202434	41	drx	The Great Confusion 	en	1	0	0		2020-06-24T21:06:38.000Z	70	98				
1275889714566959105	41	drx	Maybe Biden's VP doesn't need to be a black woman. Maybe Justice and Treasury can be black women. Just spit balling here. Also, y'all better fucking vote, talking all this shit. Lol. 	en	1	0	0		2020-06-24T20:33:07.000Z	70	98				
1275805110929690624	41	drx	All right. This is extremely important. People need to understand exactly the threat we're facing. Let's talk about Donald Trump and the rising threat of white-identity evangelical fascism. Here's what I learned researching AMERICAN RULE. 1/ 	en	1264	52	994	JYSexton	2020-06-24T14:56:56.000Z	70	98				
1275843465046196224	41	drx	Must read thread 	en	5	0	1	reecejhawaii	2020-06-24T17:29:20.000Z	70	98				
1275843270237511680	41	drx	"The share devoted to handling violent crime is very small, around 4%." 	en	4	0	2	rezendi	2020-06-24T17:28:34.000Z	70	98				
1274428929198239750	41	drx	Discovering Dennis Ritchie’s Lost Dissertation https://computerhistory.org/blog/discovering-dennis-ritchies-lost-dissertation/ ( http://news.ycombinator.com/item?id=23582070 ) 	en	5	0	4	newsyc250	2020-06-20T19:48:29.000Z	70	98				
1274445001431437312	41	drx	Barr: Fire Berman Berman: permission denied Barr: OK fine, sudo fire Berman President: Barr is not in the sudoers file NYT: this incident has been logged 	en	5131	51	1384	pwnallthethings	2020-06-20T20:52:21.000Z	70	98				
1274044285671878658	41	drx	Drop everything you're doing &amp; read this on managing your risk of COVID exposure. I don't often read COVID-related stuff nowadays where I'm like "crazy, I haven't heard it put this way" but that was my reaction to this piece: 	en	39	3	16	jonst0kes	2020-06-19T18:20:02.000Z	70	98				
1273733866780594178	41	drx			1458	16	318	archillect	2020-06-18T21:46:33.000Z	70	98		https://video.twimg.com/tweet_video/Ea02M2SXYAUyZWy.mp4	https://pbs.twimg.com/tweet_video_thumb/Ea02M2SXYAUyZWy.jpg	
1273655470025252866	41	drx	My iPad Pro has shit the bed. FaceTime camera doesn’t work and it gives off static anytime one of the radios is engaged. Now I remember why I swore never to buy another iPad after the 2. 	en	0	0	0		2020-06-18T16:35:02.000Z	70	98				
1273360017513574401	41	drx	setting up audio twttr ((▶)) ((Radio button)) ────────── 00:23 	en	4192	155	668	wongmjane	2020-06-17T21:01:00.000Z	70	98				
1273383343632064513	41	drx			2738	5	445	archillect	2020-06-17T22:33:42.000Z	70	98				https://pbs.twimg.com/media/Eav3ZuwX0AAANCw?format=jpg&amp;name=360x360
1273380681440038912	41	drx	/r/privacy: the fbi used a philly protester’s etsy profile, linkedin and other internet posts to charge her with setting a police car ablaze 	en	11	0	5	the_crypto_feed	2020-06-17T22:23:07.000Z	70	98				
1273032138343043072	41	drx	For black CEOs in Silicon Valley, humiliation is a part of doing business https://www.bloomberg.com/news/articles/2020-06-16/black-lives-matter-highlights-adversity-facing-black-tech-ceos ( http://news.ycombinator.com/item?id=23540162 ) 	en	2	0	2	newsyc250	2020-06-16T23:18:08.000Z	70	98				
1272789808730058755	41	drx	Normalise asking children for consent to touch them. Whether it is a hug, a kiss, an arm rub. Ask for consent. Teach them from a young age that they have autonomy over their personal space and they have a right to be upset if it is violated. 	en	369885	835	131502	melosets	2020-06-16T07:15:12.000Z	70	98				
1272561179462754304	41	drx	When I was 15, I was chased through a mall by police who were yelling “Stop thief!” I had thousands of dollars of stolen merchandise on me. I was caught, booked, sentenced to 6 months of probation, required to see a parole officer weekly. I was never even handcuffed. THREAD: 	en	285025	6323	127262	KristaVernoff	2020-06-15T16:06:42.000Z	70	98				
1272945854907908096	41	drx	There has to be a strong correlation between people refusing to wear masks and people that never covered their coughing ass mouths pre-COVID. 	en	0	0	0		2020-06-16T17:35:16.000Z	70	98				
1272721069082849282	41	drx	Cancel culture is a new thing? Shit. I could have sworn Kapernick got cancelled the old school way. So much disingenuous double talk and bullshit newspeak I wouldn’t be surprised if they’ve started believing their own lies. Vanessa Williams springs to mind as well. 	en	0	0	1		2020-06-16T02:42:03.000Z	70	98				
1272700277016145921	41	drx	I wonder how many people has status killed over the ages? 	en	1	0	0		2020-06-16T01:19:26.000Z	70	98				
1272670500519542787	41	drx	Telling a person to calm down about some trauma you are not or have not experienced is tricky. If you’re not gonna care, cool, but can you at least be self-aware? If that’s not too much trouble for you. It would be nice. You know? 	en	3	0	0		2020-06-15T23:21:07.000Z	70	98				
1272663666056445958	41	drx	Imagine compressing 100s probably 1000s of tribes into “black”. That’s lossy for your ass. 	en	0	0	1		2020-06-15T22:53:57.000Z	70	98				
1271920256055943169	41	drx	Obama on call-out culture is such an anthem for our times. 	en	29616	482	14046	StigAbell	2020-06-13T21:39:54.000Z	70	98		blob:https://twitter.com/300151b9-48d6-4c22-99a1-20b4676dfb84	https://pbs.twimg.com/media/EIFoSw1UwAACC17.jpg	
1272188153055653888	41	drx	Your occasional reminder that we shut everything down not only to flatten the curve but also to buy time to set up a robust testing and contact-tracing program so we could re-open safely and we wasted that time and did not do that. 	en	79351	356	20492	JoshuaHol	2020-06-14T15:24:26.000Z	70	98				
1272378876346449925	41	drx	Interesting. 	en	0	0	0		2020-06-15T04:02:18.000Z	70	98				
1271801965337550849	41	drx	Ha! 	und	0	0	0		2020-06-13T13:49:52.000Z	70	98				
1271367936113029122	41	drx	“Award-winning historian Bruce Cumings talks about the misconceptions many people still hold, and how they distort our understanding of the current North Korean regime.” 	en	0	0	0		2020-06-12T09:05:11.000Z	70	98				
1271338821867769856	41	drx	Objective : Materialism : Nihilism : Sensualism : Humanism : Idealism : Theism : Transhumanism : Transcendent : The stories we tell ourselves. 	en	0	0	0		2020-06-12T07:09:30.000Z	70	98				
1271333631764488194	41	drx	As Americans, do we not believe in ourselves anymore? Did we ever? 	en	0	0	0		2020-06-12T06:48:52.000Z	70	98				
1271333193287782401	41	drx	FUD 	und	0	0	0		2020-06-12T06:47:08.000Z	70	98				
1271332476372185089	41	drx	Almost as if the "bring in the military" thought leaders were way off base. ((Thinking face)) Hunh... 	en	0	0	0		2020-06-12T06:44:17.000Z	70	98				
1270874254788243456	41	drx	Sentir c'est appercevoir. 	fr	1	0	1		2020-06-11T00:23:28.000Z	70	98				
1270775564606062593	41	drx	One. Two. 	en	2	0	0		2020-06-10T17:51:19.000Z	70	98				https://pbs.twimg.com/media/EaKzo-KX0AARNTS?format=jpg&amp;name=360x360 https://pbs.twimg.com/media/EaKzo-NXsAM5Ji0?format=jpg&amp;name=240x240
1270517104727388162	41	drx	The Internet remains undefeated. 	en	150	3	72	mekkaokereke	2020-06-10T00:44:17.000Z	70	98				
1270420600629018624	41	drx	Thread re: @TheOtherHaider to untangle a very personal traumatic experience that I am still working to overcome. tl;dr: I have no regrets, except this single experience that represents a force in the world that is powerful, destructive, and unnerving. 1/ 	en	311	17	86	krzhang	2020-06-09T18:20:49.000Z	70	98				
1270366668150247424	41	drx	Someone tell Langston we found the answer: It definitely explodes. 	en	7896	62	1621	michaelharriot	2020-06-09T14:46:30.000Z	70	98				
1270370779495043072	41	drx	Grade 1 Thinker: Accepts what they are told. Grade 2 Thinker: Capable of rejecting things they are told. Grade 3 Thinker: Capable of rejecting and suggesting alts. 	en	0	0	0		2020-06-09T15:02:50.000Z	70	98				
1270166358530166785	41	drx	What is the difference between reforming the police and transformational approaches that was saw in Camden and Compton and appear to be aiming at in Minneapolis? What's the qualitative difference? Phillip Atiba Goff of John Jay College explains. 	en	1618	99	950	MaddowBlog	2020-06-09T01:30:33.000Z	70	98		blob:https://twitter.com/6fb11210-6fea-46e8-be69-61317d980a73	https://pbs.twimg.com/media/EaCJkboWsAULz1Y.jpg	
1270345187940798464	41	drx			0	0	0		2020-06-09T13:21:09.000Z	70	98				https://pbs.twimg.com/media/EaEsNjsX0AA7xtF?format=jpg&amp;name=360x360
1269805730212782080	41	drx	I am an old. 	en	1	0	0		2020-06-08T01:37:32.000Z	70	98				
1269805625933991938	41	drx	I am see lots of selective listening in terms of solutions to police brutality/ militarization. Stop being olds. Just stop. Be brave and help make this shit work. 	en	0	1	1		2020-06-08T01:37:07.000Z	70	98				
1269770826850729984	41	drx	Christopher Lasch predicting 2020 in 1979 	en	927	38	164	annakhachiyan	2020-06-07T23:18:50.000Z	70	98				https://pbs.twimg.com/media/EZ8h1bIXkAYE5_Y?format=jpg&amp;name=360x360
1269642009138147328	41	drx	When people say they and you wonder who they are. They are Kroll. Kroll is they. 	en	0	0	0		2020-06-07T14:46:58.000Z	70	98				
1269624829554065411	41	drx	Cynics will be cynics. 	en	0	0	0		2020-06-07T13:38:42.000Z	70	98				
1269624756007026690	41	drx	Instead of the Black Community finding solutions to its own problems while protecting itself from elements in its own country, the problems can be viewed through the lense of being American problems. That mentality can guide the approach and solutions minus mental the gymnastics 	en	0	1	1		2020-06-07T13:38:24.000Z	70	98				
1269623059746631680	41	drx	I see a bit of intellectual hand wringing because with this level of societal chaos, unprepared idealogues struggle while opportunists are handed bigger and bigger buttons and levers to play with. Simplified, the big psychological reveal is that we are all Americans equally. 	en	1	1	1		2020-06-07T13:31:40.000Z	70	98				
1293214389886230529	47	kellan	I am very sorry to hear about the layoffs at Mozilla. I'm also actively hiring Rust developers. If you were one of the folks impacted and interested in Rust, please send them my way. 	en	47	2	29		2020-08-11T15:55:11.000Z	1,525	13,192				
1293195594673074176	47	kellan	I've wanted better compensation data for so long, but never more than when we're all moving to distributed teams, so happy to see this from @bethanye and team. 	en	6	2	0		2020-08-11T14:40:30.000Z	1,525	13,192				
1292960943660584975	47	kellan	OH: “Dad, I invented this thing I’m going to call quiet screaming, it’s like screaming but quieter than talking and it’s great because you can do it inside.” 	en	32	2	2		2020-08-10T23:08:05.000Z	1,525	13,192				
1292952402589560832	47	kellan	Corollary: our experience at Etsy, where sharing about your work was an explicit expectation, was we had to work _hard_ to convince and support many of our best folks to speak at conferences. Many never did. 	en	34	1	0		2020-08-10T22:34:09.000Z	1,525	13,192				
1292945071508250625	47	kellan	insider tip: just because they are speaking at an event, doesn’t make them good at their job. 	en	637	24	134	jilljubs	2020-08-10T22:05:01.000Z	1,525	13,192				
1290825408351412224	47	kellan	All of our speakers and community partners have a special link to invite their people to register. When you buy a ticket using their link, 85% of the ticket revenue goes to them. So buying a ticket to CHROMA will put ((💰)) in their pockets at a time when it's really needed. 	en	80	2	28	operaqueenie	2020-08-05T01:42:14.000Z	1,525	13,192				
1292153677960974336	47	kellan	Excited to share @ksylor 's story of becoming a frontend architect at @Etsy . A lot of folks believe that you gotta go into infrastructure or systems to reach staff roles, and Katie's exp is an important counter-example, along with being a delightful intrvw 	en	204	5	54	Lethain	2020-08-08T17:40:18.000Z	1,525	13,192				
1291573569344897026	47	kellan	Today I used the straps I keep to jam my classroom doors in case of an active shooter as a measuring tape to space out student seats to prevent the spread of a deadly viral pandemic. This is what it is to be an American teacher. 	en	214040	831	53603	wisemanlhs	2020-08-07T03:15:09.000Z	1,525	13,192				
1292091484020383745	47	kellan	How do you process risk? (Also another area where privilege helps) 	en	49	4	10		2020-08-08T13:33:10.000Z	1,525	13,192				
1292070064456425472	47	kellan	Looking to learn harmonica. Autodidact thing isn’t working for me right now. Love recommendations for a teacher. Especially someone who would be good for someone with no previous musical experience or demonstrated ability. Thanks 	en	3	4	0		2020-08-08T12:08:03.000Z	1,525	13,192				
1291868576111038466	47	kellan	Parece que lo que busco no existe, entonces ... creémoslo. Si eres Líder de Ingeniería (VPE, CTO, Manager, Tech Lead, Principal/Staff Eng) y interesa pertenecer a una comunidad, llena este formulario y miramos que podemos inventarnos. RT Please? 	es	88	12	105	buritica	2020-08-07T22:47:24.000Z	1,525	13,192				
1291882200640749568	47	kellan	That thing where your team sends you a bottle of Redbreast 15 to get over a concussion. This is a marshmallow test isn’t it? 	en	24	0	0		2020-08-07T23:41:33.000Z	1,525	13,192				
1291386769720709120	47	kellan	Tech condolence cards: "I'm sorry were assigned to a tiger team" 	en	43	6	5	sunahsuh	2020-08-06T14:52:53.000Z	1,525	13,192				
1291407265371693057	47	kellan	I am not mentally, emotionally or physically prepared for the degree to which things won’t be doing back to normal when Summer ends. 	en	54	5	0		2020-08-06T16:14:19.000Z	1,525	13,192				
1291204483318308864	47	kellan	101: Intro to Googling and inquisition 201: Topics on grief and despair 301: Workshop on realistic expectations 401: Symposium on group therapy 501: Advanced topics on meditation and spirituality. 	en	258	7	47	mattklein123	2020-08-06T02:48:32.000Z	1,525	13,192				
1290751297809985536	47	kellan	TFW there is a power outage and there is no ice cream melting in the freezer that needs eating. 	en	18	2	0		2020-08-04T20:47:45.000Z	1,525	13,192				
1290610277101244423	47	kellan	Kodable vs Lightbot: Lightbot UI encourages testing your program continuously after each small change while Kodable throws up an “oops” screen for each mistake. Lightbot much better simulator of good coding practice. 	en	7	1	0		2020-08-04T11:27:23.000Z	1,525	13,192				
1289667862177525761	47	kellan	Never bring a product to a platform fight 	en	43	1	12	basche42	2020-08-01T21:02:33.000Z	1,525	13,192				
1289578748656812034	47	kellan	Language matter: would the president be so confused about TikTok if it hadn’t been described as “viral”? 	en	0	0	0		2020-08-01T15:08:27.000Z	1,525	13,192				
1289553570094698496	47	kellan	@SinkingShipEnt maybe an opportunity? 	en	0	0	0		2020-08-01T13:28:24.000Z	1,525	13,192				
1289553380575080450	47	kellan	So you know that AR feature in Google search for animals and dinosaurs? Is there some reason there isn't a booming content market selling AR models? The kiddo is very disappointed that some of her favorite dinos aren't available (and that the Google ones are so blandly colored). 	en	4	2	0		2020-08-01T13:27:39.000Z	1,525	13,192				
1289530576530051072	47	kellan	OH: “Dad, you know how you said I’d be able to just talk to computers when I’m older? Wouldn’t that just make them more annoying?” — They grow up so fast. 	en	37	1	1		2020-08-01T11:57:02.000Z	1,525	13,192				
1288884133704286208	47	kellan	Amazing post from the folks at @Dropbox on their migration to @EnvoyProxy . I continue to be blown away by how far we have come as a community in such a short period of time. ((🙏)) ((🚀)) 	en	471	3	134	mattklein123	2020-07-30T17:08:18.000Z	1,525	13,192				
1288815742725623808	47	kellan	My engineering experience has deeply ingrained in me a suspicion of solutions that purport to solve multiple problems simultaneously. Watching schooling unravel this year has really brought home how many important needs we were trying to solve with one blunt instrument. 	en	51	3	5		2020-07-30T12:36:32.000Z	1,525	13,192				
1288232014152445959	47	kellan	Is there a reason the more accurate "struggle session" has been replaced with the term "performance calibrations"? 	en	16	1	0		2020-07-28T21:57:01.000Z	1,525	13,192				
1288165788789215232	47	kellan	4 pings from different health tech companies looking for new engineering leads in the last week and I'm going to call it a trend. (btw pretty happy where I'm at at the moment, this is not an invitation) 	en	9	1	0		2020-07-28T17:33:51.000Z	1,525	13,192				
1287950901576175618	47	kellan	as a banana republic native, I think to myself: “at least we didn’t do it to ourselves” 	en	210	3	42	buritica	2020-07-28T03:19:58.000Z	1,525	13,192				
1287786851403800577	47	kellan	Really unclear how I’m supposed to tell the difference between tired and sad and nauseous because I hit my head and tired and sad and nauseous because *gestures widely* 	en	13	3	0		2020-07-27T16:28:05.000Z	1,525	13,192				
1287530482285056006	47	kellan	I see tech twitter is debating the pros and cons of remote work again, with the same tedious, reductive arguments on both sides. I just want you to know my views on the subject have evolved. I am no longer in favor of “work” of any kind, be it local, or remote 	en	807	11	124	slava_pestov	2020-07-26T23:29:22.000Z	1,525	13,192				
1287366932165951490	47	kellan	I’m on the record as having hit my head pretty hard yesterday, but much to my shock I’m genuinely _excited_ by the @JoeBiden climate change plan. 100 days to election and I’m contributing to @dscc and @dccc to get it done. 	en	16	1	0		2020-07-26T12:39:29.000Z	1,525	13,192				
1287155731498770437	47	kellan	Suggestions for an audio book with a very soothing voice? 	en	6	16	1		2020-07-25T22:40:15.000Z	1,525	13,192				
1286999097581412352	47	kellan	Gave myself a concussion getting out of bed this morning so 2020 is still very on brand 	en	42	8	1		2020-07-25T12:17:50.000Z	1,525	13,192				
1286433505409458186	47	kellan	Some good social distancing for our 1:1 in the backyard today 	en	36	4	0		2020-07-23T22:50:23.000Z	1,525	13,192				https://pbs.twimg.com/media/EdpUcpPWAAAMsQ_?format=jpg&amp;name=360x360
1286367411348869120	47	kellan	Dropbox Scan is out today for iOS. We took the scan feature that was buried deep in the classic Dropbox app and built a dedicated app for it that doesn't need Dropbox (but works with it). Along with Passwords its our 2nd app this year shipped our new modern app shell. 	en	37	4	0		2020-07-23T18:27:45.000Z	1,525	13,192				
1286302265893097474	47	kellan	That feeling when you get a meeting reminder and it still has the conference room attached from the before times. 	en	35	4	1		2020-07-23T14:08:53.000Z	1,525	13,192				
1286106303224569857	47	kellan	4 habits from this time that are going to be hard to break post covid: too much coffee, too much alcohol, no work/life boundary, looking at my device when i'm with the kiddo. 	en	58	7	0		2020-07-23T01:10:12.000Z	1,525	13,192				
1285961240087531520	47	kellan	I can't believe I am writing this but it's official: we won. This was a collective and truly grassroots campaign, powered by a deep love for North Brooklyn and a desire to make it better. Thank you so much for believing in me, against all the odds. 	en	1841	70	330	em4assembly	2020-07-22T15:33:46.000Z	1,525	13,192				https://pbs.twimg.com/media/EdiiOaTWoAMe5Rv?format=jpg&amp;name=240x240 https://pbs.twimg.com/media/Edii8CjWsAE_i3v?format=jpg&amp;name=240x240 https://pbs.twimg.com/media/Edii6ZtXYAAz_G6?format=jpg&amp;name=240x240 https://pbs.twimg.com/media/EdijABdWkAENeCO?format=jpg&amp;name=240x240
1285602287063269376	47	kellan	“Systemic racism and climate change are not separate issues, and they will not abide separate solutions." - said Lisa Jackson, Apple’s vice president of Environment, Policy and Social Initiatives. 	en	8	0	0		2020-07-21T15:47:25.000Z	1,525	13,192				
1285351311794462722	47	kellan	OH: Asked them about code review, given that they are at [redacted] now and may have been sucked into the Gandalf-on-the-bridge review culture, “Of course we’d like to write pristine code, but it seems more important to be kind” 	en	25	0	3		2020-07-20T23:10:08.000Z	1,525	13,192				
1285008658292670464	47	kellan	Haven’t actually played with GPT-3, so reality is likely to be a let down, but thinking tonight about using it to compose original writing in the style of people who produced great works but are otherwise problematic (sooo many of them) 	en	5	1	0		2020-07-20T00:28:33.000Z	1,525	13,192				
1283447942750146560	47	kellan	Talent is everywhere, while opportunity is not. We’re proud to partner with @SlackHQ and @Zoom_US on Next Chapter, an apprenticeship program that trains formerly incarcerated individuals for highly skilled engineering roles. https://bit.ly/32kQSxN 	en	136	0	31	Dropbox	2020-07-15T17:06:49.000Z	1,525	13,192				
1284445140476723201	47	kellan	“My philosophy is very simple. When you see something that is not right. Not fair. Not just. Say something. Do something. Get in trouble. Good trouble. Necessary trouble.” - @repjohnlewis #goodtrouble 	en	31263	236	10736	K_JeanPierre	2020-07-18T11:09:19.000Z	1,525	13,192		blob:https://twitter.com/8a5f6f5c-86dc-41be-b219-e87b9f265881	https://pbs.twimg.com/amplify_video_thumb/1280281753802944514/img/ZseXzJY8yMqu6RWq.jpg	
1283759831787216896	47	kellan	This is a chance to work for two of my favorite engineering leaders @zian_sun and @skamille https://careers.twosigma.com/careers/JobDetail/New-York-New-York-United-States-Data-Scientist-Venn-Engineering/6398 	en	8	0	3		2020-07-16T13:46:09.000Z	1,525	13,192				
1283733972896317440	47	kellan	Checks out 	en	20	1	0		2020-07-16T12:03:24.000Z	1,525	13,192				
1283732204183605249	47	kellan	Reliable mobile analytics was a struggle for years at Etsy, really appreciate the focus @mariannabenz and the team brought to this 	en	2	1	0		2020-07-16T11:56:22.000Z	1,525	13,192				
1283476432107307010	47	kellan	Adding user analytics to a product feature is more than just measuring the right things; you also build for long term integrity and utility to business stakeholders. https://bit.ly/38XrHml 	en	494	3	46	Dropbox	2020-07-15T19:00:01.000Z	1,525	13,192				
1283725211838316548	47	kellan	Continuing our theme of building confidence in our software at Dropbox: 3 principles for building reliable mobile analytics: intentional, credible, discoverable (and tested) 	en	6	1	1		2020-07-16T11:28:35.000Z	1,525	13,192				
1283575480914935814	47	kellan	I was raised in a progressive tradition that is deeply skeptical sending money to the government but got to say it stings even more than usual paying taxes this year with governments at every level failing so spectacularly at basic competence. 	en	55	4	0		2020-07-16T01:33:36.000Z	1,525	13,192				
1282965842787958784	47	kellan	backend engineers are all like 'how do you reverse a linked list' bish you render it like normal and then apply `transform: rotate(180deg)` why do you have to go and make things so complicated for yourself 	en	449	11	72	freezydorito	2020-07-14T09:11:07.000Z	1,525	13,192				
1283065952620306432	47	kellan	managers presenting on Q2 2020 ((Flushed face)) 	en	19844	182	5248	yayalexisgay	2020-07-14T15:48:55.000Z	1,525	13,192		blob:https://twitter.com/a9114786-3d45-4fa5-ae7e-db07bbdb84b7	https://pbs.twimg.com/media/Ec5ZnljUEAE0B75.jpg	
1282845939724681216	47	kellan	Nearly 6 months into this thing and I keep telling myself that _today_ is going to be the day I get caught up on work once I get the kiddo down. 	en	66	3	6		2020-07-14T01:14:40.000Z	1,525	13,192				
1281768831288070144	47	kellan	Caught an episode of "Nailed It!" with the fam tonight. They had to make a 4ft tall rocket ship cake. Winning team realized everyone would fail at making a rocket ship, just went for taste. Serious principal engineer energy. 	en	67	0	6		2020-07-11T01:54:38.000Z	1,525	13,192				
1281614293528707073	47	kellan	Tired. It was a _grind_ of a week, but at least the local roaster is semi open and I was able to pick some coffee for this morning 	en	12	1	0		2020-07-10T15:40:33.000Z	1,525	13,192				https://pbs.twimg.com/media/Eck1ZsdWkAABh-F?format=jpg&amp;name=360x360
1281289338391654400	47	kellan	. @buritica giving a quarantine engineering talk on delivery metrics from his amazing kitchen while cooking a mushroom risotto is setting a new high bar for conference talks 	en	165	7	18	rondoftw	2020-07-09T18:09:18.000Z	1,525	13,192				https://pbs.twimg.com/media/EcgNwBcUMAAfX_K?format=png&amp;name=360x360
1281338493759901696	47	kellan	New plan: do all my calls on water proof phone in the backyard with the sprinkler going 	en	2	0	0		2020-07-09T21:24:37.000Z	1,525	13,192				
1281330284227698688	47	kellan	I'm learning that AC might be a key component of my ability to be a humane manager. 	en	16	2	0		2020-07-09T20:52:00.000Z	1,525	13,192				
1281001047977267212	47	kellan	Best thing about there being a database named Snowflake is I keep getting invited to "Snowflake Training" or the #snowflake -support channel and every time I feel personally called out as a white dude to do better. 	en	19	0	0		2020-07-08T23:03:44.000Z	1,525	13,192				
1280641458874257409	47	kellan	Yup 	und	4	0	0		2020-07-07T23:14:51.000Z	1,525	13,192				
1280143049067319296	47	kellan	I can’t believe it’s Monday again. Can we talk again about how fucking unsustainable all of this is? 	en	155	2	12		2020-07-06T14:14:21.000Z	1,525	13,192				
1279802798511620097	47	kellan	Ok so I think my project for the day is going to be taking a bike tour of as many of Brooklyn’s Open Streets as I can. The implementation in my neighborhood is pretty bad, but maybe that’s an isolated thing? Let’s see! 	en	206	9	86	xander76	2020-07-05T15:42:19.000Z	1,525	13,192				
1279788433393811459	47	kellan	Almost every year since college gathered on the 4th of July with a big group of friends on a pond in NH to swim, set off fireworks that should probably be illegal, play games and talk politics. It’s multigenerational at this point. Really missing those people this year. 	en	14	0	0		2020-07-05T14:45:14.000Z	1,525	13,192				
1278863365876658176	47	kellan	A is arguing hard for the redeemability of Olivia Octavius (she’s got a soft spot for scientists). So now we’re talking about what culpability you inherit when you cash a paycheck. (I still have no idea how my kiddo who finds Disney too scary loves “Into the Spider-verse”) 	en	6	1	0		2020-07-03T01:29:21.000Z	1,525	13,192				
1278846314948722689	47	kellan	The contrast folks are drawing about undue media scrutiny for some founders vs most tech founders/VCs is just a reminder how ridiculously low society sets the bar for those male majority populations. 	en	18	0	0		2020-07-03T00:21:35.000Z	1,525	13,192				
1278488483628298241	47	kellan	First date in 4 months!! 	en	29	2	0		2020-07-02T00:39:42.000Z	1,525	13,192				https://pbs.twimg.com/media/Eb4aam3WoAE08rQ?format=jpg&amp;name=small
1278404249567801347	47	kellan	So, date night in Brooklyn, weather isn’t cooperating, what does one do these days? 	en	0	0	0		2020-07-01T19:04:59.000Z	1,525	13,192				
1277758002737676289	47	kellan	So many leadership failures occur when a leader won't be honest with themselves about the source of their anxieties and therefore blames them on mysterious, ill-specified failings of their team. You need to do the work to dig into why specifically you're anxious, not handwave. 	en	322	6	60	skamille	2020-06-30T00:17:02.000Z	1,525	13,192				
1277745668505972736	47	kellan	Engineering Leaders, I’m putting together an talk on Engineering Delivery Metrics that help new leaders get comfortable with using these with their teams and talking about them. What are questions you’d like answered? for example: “how do I talk to my team about these metrics?” 	en	171	25	26	buritica	2020-06-29T23:28:01.000Z	1,525	13,192				
1277596738501689344	47	kellan	It’s plesiosaur week here in week 1 of summer vacation in place. Please send any of your favorite plesiosaur facts, reading recommendations, craft projects, etc. thank you. 	en	10	4	0		2020-06-29T13:36:13.000Z	1,525	13,192				
1276892963746934785	47	kellan	What are you doing for self care these days? 	en	8	13	1	yipe	2020-06-27T14:59:40.000Z	1,525	13,192				
1276691385735942144	47	kellan	hear me out twitter should train an ML model on ratio’d tweets and then, when it detects you’re going to say something very stupid, give you two buttons. [tweet for $9.99] [save to drafts for $0] we could call the feature... shutting up is free 	en	360	5	58	buritica	2020-06-27T01:38:40.000Z	1,525	13,192				
1276552205110333440	47	kellan	Our subject experts are shaping and co-hosting the in-depth engineering leadership sessions at #LeadDevTogether . Meet the team: @patkua @tsunamino @whereistanya @frantziful @attackgecko @Geek_Manager @SarahM @lara_hogan . 	en	32	0	12	TheLeadDev	2020-06-26T16:25:37.000Z	1,525	13,192				
1276674402638336000	47	kellan	It can be hard to remember, I struggle to remember at time, but, my white dude brethren: It’s okay to have feelings. It’s okay for things to be hard, even too hard. It’s okay to show those feelings in all their messiness. But it doesn’t mean you’re being oppressed. 	en	68	1	13		2020-06-27T00:31:11.000Z	1,525	13,192				
1276568542700240896	47	kellan	Instead of catching fireflies in a jar we caught them in a Takeya 1qt cold brew maker. 	en	5	0	0		2020-06-26T17:30:32.000Z	1,525	13,192				
1276332577671065604	47	kellan	End of year thoughts on the distance learning experiment 	en	1975	27	281		2020-06-26T01:52:54.000Z	1,525	13,192				https://pbs.twimg.com/media/EbZxtQ0X0AAmli8?format=jpg&amp;name=360x360
1276114037605048320	47	kellan	Kiddo has been playing a game where she asks for a letter and composed a song and dance in response. Yesterday’s poem for Z was, “I ride a zebra chased by a lion who is also me.” And frankly I haven’t stopped thinking about it. 	en	26	2	1		2020-06-25T11:24:30.000Z	1,525	13,192				
1275955752297918464	47	kellan	perhaps if companies had core values like "don't be racist" and "don't be sexist" instead of "cupcake" or "draw the owl," the tech industry might be in a better place. ((🤷🏾‍♀️)) 	en	2854	37	495	EricaJoy	2020-06-25T00:55:32.000Z	1,525	13,192				
1275403558058446848	47	kellan	Is it possible that “tiger team” is offensive? I know nothing about the etymology but it just _feels_ like one of those things we’re going to learn is offensive. 	en	10	6	0		2020-06-23T12:21:18.000Z	1,525	13,192				
1275051379330035713	47	kellan	Last week of 1st grade. It hasn’t been normal but it has been _a_ routine in these crazy times. Feeling intimidated about creating new routines for the kiddo starting next week without any support. What are you all doing? 	en	14	9	0		2020-06-22T13:01:52.000Z	1,525	13,192				
1274824211975077889	47	kellan	2nd half of Father’s Day celebration done, a ride for local ngo ( http://rootsrising.org ) 	en	17	1	0		2020-06-21T21:59:11.000Z	1,525	13,192				https://pbs.twimg.com/media/EbEV3N3XgAIaQaB?format=jpg&amp;name=360x360
1274807572340539393	47	kellan	That feeling when you’re pedaling up a hill and you know either that you’ve taken a wrong turn or the people who suggested this route are more diabolical than you could’ve dreamed 	en	15	3	1		2020-06-21T20:53:04.000Z	1,525	13,192				
1274750113525698560	47	kellan	Take out and some self serve tables in the parking lot but it was still great to get taken out for brunch for Father’s Day. I’ve missed brunch. 	en	19	0	0		2020-06-21T17:04:45.000Z	1,525	13,192				
1274316729943044097	47	kellan	This is the future I signed up for 	en	18	1	1		2020-06-20T12:22:38.000Z	1,525	13,192				
1273580446727770116	47	kellan	We must use our positions of privilege to break down systemic racism and hostile environments. Going forward, @thoughtbot will no longer reimburse for attending or speaking, or sponsor events that don’t have a diverse speaker lineup and Code of Conduct 	en	19	0	5	cpytel	2020-06-18T11:36:55.000Z	1,525	13,192				
1273621272463847425	47	kellan	Been holding my breath as two good SCOTUS rulings in one week seemed like too much to ask for but LGTBQ+ work equality and DACA! 	en	28	0	1		2020-06-18T14:19:08.000Z	1,525	13,192				
1273237989766955010	47	kellan	Kiddo this morning is lobbying to do her morning meeting with her teacher via Disney+, I’m trying to figure out what this tells me about the future of education. 	en	8	0	0		2020-06-17T12:56:07.000Z	1,525	13,192				
1272940248847302661	47	kellan	We announced the beta today of the work we've been doing to overhaul Dropbox for home. This follows our launch of our new sync engine earlier this year, with more exciting stuff coming. 	en	20	1	1		2020-06-16T17:13:00.000Z	1,525	13,192				
1272514438017449985	47	kellan	To those who did the work this weekend, thank you. To those, like me, who had the privilege to take a break and enjoy a peaceful weekend, just a reminder none of this is over. 	en	8	0	0		2020-06-15T13:00:58.000Z	1,525	13,192				
1272265309056098304	47	kellan	I’m really grateful to the folks calling this week to end background checks at jobs. Probably some time in the last 20 years of feeling guilty I should have thought of a useful action I could take to offset the harm. But now I have one. Thank you. 	en	14	2	1		2020-06-14T20:31:01.000Z	1,525	13,192				
1272265096698486784	47	kellan	The data was shit. Bad, sloppy, and ... vindictive, if you can ascribe motives to an XML schema. And the motivations inscrutable. It wasn’t a long contract. But I‘be thought about it for nearly 20 years 	en	5	1	0		2020-06-14T20:30:11.000Z	1,525	13,192				
1272264999025729537	47	kellan	In 2003, hard to imagine but it was hard to find work as a programmer. I did a bunch of weird contracts that year to make ends meet. One was a contract running criminal background checks. I was uncomfortable with the project at the time. Nothing I saw doing that changed my mind. 	en	9	2	0		2020-06-14T20:29:47.000Z	1,525	13,192				
1271786852933160960	47	kellan	Seeing folks waking up to the fascist training wheels in Paw Patrol (though we always skipped it for gender representation), waiting for folks to understand Thomas as the grim late stage capitalist indoctrination it is. 	en	53	4	5		2020-06-13T12:49:49.000Z	1,525	13,192				
1271603185921200130	47	kellan	Juan Pablo said it better 	en	2	0	0		2020-06-13T00:39:59.000Z	1,525	13,192				
1271593235023106049	47	kellan	I’m not qualified to understand most of Marco’s experience, but I am qualified to opine on engineering leaders and Marco is one of the people I regularly turn to for insights when I have a hard problem. 	en	30	0	5		2020-06-13T00:00:26.000Z	1,525	13,192				
1271539819676684288	47	kellan	Got a bike 	en	34	5	0		2020-06-12T20:28:11.000Z	1,525	13,192				https://pbs.twimg.com/media/EaVqtuaWkAEv26J?format=jpg&amp;name=360x360
1271297791839465472	47	kellan	I'm writing a book for engineers over 35 	en	14220	124	2208	schmichael	2020-06-12T04:26:27.000Z	1,525	13,192				https://pbs.twimg.com/media/EaSOVy5U0AA_F7T?format=png&amp;name=360x360
1271411496728367106	47	kellan	All these people asking what happened to the murder hornets in this story and I was attacked yesterday in New England by a 2 inch long jet black hornet and I think the answer is they’re burrowing. Act 4 is of 2020 is going to be wild. 	en	15	2	0		2020-06-12T11:58:17.000Z	1,525	13,192				
1271173468105646093	47	kellan	Also I am currently more than 30ft away from my child for the first time in 14 days and it’s glorious! 	en	11	0	0		2020-06-11T20:12:26.000Z	1,525	13,192				
1271061472655933441	47	kellan	Found this when I came in to say good morning to the 6yo. This is a pusheen with a cupcake (symbolically important within Dropbox) wearing a Little Hero Cape (symbolically important within Etsy) plus Pooh, because Pooh is just cool. 	en	25	3	0		2020-06-11T12:47:24.000Z	1,525	13,192				https://pbs.twimg.com/media/EaO3qW-XgAMdDSC?format=jpg&amp;name=360x360
1268711259152629762	47	kellan	Black lives matter. No human being is illegal. Abolish the police. 	en	52698	299	25039	doeantlers	2020-06-05T01:08:30.000Z	1,525	13,192				https://pbs.twimg.com/media/EZtcNVoUwAMd8w0?format=png&amp;name=360x360
1270098841770082304	47	kellan	Well my 6yo just taught me how to use stickers on iOS (having overseen teams that were shipping “sticker packs”), so I guess we’ve gotten to that phase of parenting. 	en	30	2	0		2020-06-08T21:02:15.000Z	1,525	13,192				
1278549106906918913	52	hook	Tucker Carlson: Voters need to demand change from the GOP https://fxn.ws/2AoGNo2 #FoxNews 	en	0	1	0		2020-07-02T04:40:36.000Z	125	4,112				
1277359905431678976	52	hook	Watching Luther on Amazon...been a big Masaive Attack fan for a longtime... good to hear each series. 	en	0	0	0		2020-06-28T21:55:08.000Z	125	4,112				https://pbs.twimg.com/media/EboYDojU0AA4nsZ?format=jpg&amp;name=small
1274783141870227457	52	hook	botanical. eco-friendly. Trucks look sharp! 	en	0	0	0		2020-06-21T19:16:00.000Z	125	4,112				https://pbs.twimg.com/media/EbDwfpbUcAAMV_9?format=jpg&amp;name=360x360
1274778012358078465	52	hook	to liberty and justice for....ale 	en	0	0	0		2020-06-21T18:55:37.000Z	125	4,112				https://pbs.twimg.com/media/EbDr1qsU8AAsiV4?format=jpg&amp;name=small
1269653129840046080	52	hook	A decent read... 	en	0	0	0		2020-06-07T15:31:09.000Z	125	4,112				
1269403432248459267	52	hook	Listened to a lot of New Order in college....reminiscing. 	en	0	0	0		2020-06-06T22:58:57.000Z	125	4,112				https://pbs.twimg.com/media/EZ3To7RVAAAjqiN?format=jpg&amp;name=small
1269396849904869376	52	hook	Saw at Orange co. state fair 13 years ago. My now wife (then GF) wasn't nearly as excited as me. Totally 80s. 	en	0	0	0		2020-06-06T22:32:47.000Z	125	4,112				https://pbs.twimg.com/media/EZ3NtL0U8AAAOBc?format=jpg&amp;name=small
1269395379910402048	52	hook	Sole rider on my favorite trolley. Toot toot. 	en	0	0	0		2020-06-06T22:26:57.000Z	125	4,112				https://pbs.twimg.com/media/EZ3MWsUU8AEdEzZ?format=jpg&amp;name=small
1269394824420982784	52	hook	INXS on a sunny day....just waiting on inflatable pool to arrive next week to top it off. 	en	1	1	0		2020-06-06T22:24:45.000Z	125	4,112				
1266914985101242375	52	hook	James and the Giant Peach....hmmmmm 	en	0	0	0		2020-05-31T02:10:45.000Z	125	4,112				
1266812183913979904	52	hook	feel like trouble..... 	en	0	0	0		2020-05-30T19:22:15.000Z	125	4,112				https://pbs.twimg.com/media/EZSe9vaUEAAgTXq?format=jpg&amp;name=small
1264706874600910848	52	hook	I would love to hear people's take on the Michael Lewis book "The Fifth Risk'. 	en	0	1	0		2020-05-24T23:56:30.000Z	125	4,112				
1264325083792699392	52	hook	I can always tell when my neighbor is outside....cig smoke drifts over. ugh....cough cough cough 	en	0	0	0		2020-05-23T22:39:24.000Z	125	4,112				
1264323794665013253	52	hook	Every time I hear Big Head Todd and the Monsters, I think "What a great band!" 	en	0	0	0		2020-05-23T22:34:17.000Z	125	4,112				
1264322566505631744	52	hook	weatherunderground says 81and feels like 79....I say it is 81 and feels like 90. Says temps will reach over 100 Tues and Wed! 	en	0	0	0		2020-05-23T22:29:24.000Z	125	4,112				
1264320509656756224	52	hook	Party of one...sitting in driveway in a lawn chair, listening to 80's, with an amber ale in hand. Damn the sun is hot.... 	en	0	0	0		2020-05-23T22:21:14.000Z	125	4,112				
1262205090963746817	52	hook	Will Smith Hreatest Hits is kids new favorites.... 	en	0	0	0		2020-05-18T02:15:18.000Z	125	4,112				
1262203703634702336	52	hook	and they also love Summertime by Will Smith 	en	0	0	0		2020-05-18T02:09:48.000Z	125	4,112				
1262203219159089153	52	hook	I think it is great my kids like dancing to ice ice baby 	en	0	0	0		2020-05-18T02:07:52.000Z	125	4,112				
1260223250308591616	52	hook	Fauci testifying and Trump tax return arguments in Suoreme Court. Just a very busy day and lots for pundits to talk about tonight. 	en	0	0	0		2020-05-12T15:00:11.000Z	125	4,112				
1260221883254894593	52	hook	Listening to live Supreme Court session is quite interesting. Very smart people I think I would.lose every argument against a justice...they ask great questions and scenarios. 	en	0	0	0		2020-05-12T14:54:45.000Z	125	4,112				
1257845225407438851	52	hook	INXS vs. The Cure. Who do you prefer? 	en	0	0	0		2020-05-06T01:30:46.000Z	125	4,112				
1256426920318603264	52	hook	Kinda hooked on sea-related books lately. Starting 438 Days now. 	en	0	0	0		2020-05-02T03:34:55.000Z	125	4,112				https://pbs.twimg.com/media/EW-5njjUMAUXuZi?format=jpg&amp;name=small
1253811738727731200	52	hook	Might need to upgrade my 4-60 AC in car (roll down 4 windows and go 60mph). It is hot today. 	en	0	0	0		2020-04-24T22:23:07.000Z	125	4,112				
1246938226993975297	52	hook	SIP is fine. Sucks 3rd weekend that keeps kids inside. Hey Mother Nature...nice weekend next week :-) 	en	0	0	0		2020-04-05T23:10:14.000Z	125	4,112				
1245786346544742400	52	hook	I am not sure I believe Trump simply made a call to Russia &amp; OPEC &amp; all is that easily resolved. I think he made a personal inv in oil assets &amp; profited handsomely today. No proof. Just theory. 	en	0	0	1		2020-04-02T18:53:05.000Z	125	4,112				
1244286965794525184	52	hook	Educate me...why is Trish Regan off the air and Tucker / Hannity still on. Didn't all three claim coronavirus is a Dem impeachment hoax? Seems like they did, but I cannot recall. 	en	1	0	0		2020-03-29T15:35:05.000Z	125	4,112				
1241807479987560448	52	hook	Hey Rand Paul....How is that government health plan and paid leave working for you...especially for a media hoax and a "bad flu". 	en	2	0	0		2020-03-22T19:22:29.000Z	125	4,112				
1241702614783279104	52	hook	Suddenly the Trump administration realizes everyone needs health insurance. https://www.huffpost.com/entry/trump-obamacare-special-enrollment-coronavirus_n_5e76fcc5c5b6eab77949ac6c?ncid=engmodushpmg00000004 via @HuffPostPol 	en	0	0	0		2020-03-22T12:25:47.000Z	125	4,112				
1241390477552697345	52	hook	a common trend of believing only what he wants to hear...regardless of the source. 	en	0	0	0		2020-03-21T15:45:28.000Z	125	4,112				
1240801198518632448	52	hook	nikki haley resigns from BA board...she has deep aviation exp or brings links to policy makers? Kinda like Hunter...one, both or neither corrupt? 	en	0	0	0		2020-03-20T00:43:53.000Z	125	4,112				
1228751803908386817	52	hook	Innate intelligence plays, at best, a 1 to 2 percent role in a child's future success. 	en	0	0	0		2020-02-15T18:43:53.000Z	125	4,112				
1228532586651144192	52	hook	“So long as an opinion is strongly rooted in the feelings, it gains rather than loses in stability by having a preponderating weight of argument against it." 	en	0	0	0		2020-02-15T04:12:48.000Z	125	4,112				
1228195254790053889	52	hook	Love is in the air....but so if the flu. Wash your hands! 	en	0	0	0		2020-02-14T05:52:22.000Z	125	4,112				
1228192836706635776	52	hook	We have a generation of peeps used to getting things for free, content-wise. If you make a video showing how to play a guitar lick on a song, and if you make MONEY from it, who should get the money? You? The creator of the song? Should it be split? 	en	0	0	0		2020-02-14T05:42:45.000Z	125	4,112				
1228190911026233346	52	hook	How can history differ based on the state you live in: 	en	0	0	0		2020-02-14T05:35:06.000Z	125	4,112				
1226614361239650306	52	hook	sometimes an hour of quite reflection gives you the energy you need for the rest of the week 	en	1	0	0		2020-02-09T21:10:27.000Z	125	4,112				
1072979465427288064	52	hook	This is actually a really good one minute summary of where we are 	en	35	0	16	goldman	2018-12-12T22:20:14.000Z	125	4,112				
1072976169748709376	52	hook	Seeing kids decked out in Christmas gear for holiday concerts is a riot. Ugly sweaters look great on 6 year olds! 	en	0	0	0		2018-12-12T22:07:08.000Z	125	4,112				
1071535984460742656	52	hook	baseball in the park with a 6 year old in december....feels great 	en	1	0	0		2018-12-08T22:44:21.000Z	125	4,112				
1069338465739755520	52	hook	Xmas tree - five different tree places to find the tight tree. Persistence 	en	0	0	0		2018-12-02T21:12:12.000Z	125	4,112				
886757400589377537	52	hook	RT &amp; click below to enter to win Michael Jordan's autograph thanks to @steinersports + @SoleCollector ! ((🏀)) ((⬇️)) https://wn.nr/7QfmGC 	en	0	0	0		2017-07-17T01:20:14.000Z	125	4,112				
875041023113789441	52	hook	RT &amp; go to http://steinersports.com/mj to enter to win MICHAEL JORDAN'S autograph! 	en	123	17	2463	steinersports	2017-06-14T17:23:32.000Z	125	4,112				https://pbs.twimg.com/media/DCTFIpVXsAEN8Mw?format=jpg&amp;name=360x360
874041173760917504	52	hook	Daughter's first recital....I need to learn an instrument! 	en	1	0	0		2017-06-11T23:10:29.000Z	125	4,112				
870787228502433792	52	hook	So glad the NBA finals are on to distract from absurdity elsewhere. 	en	0	0	0		2017-06-02T23:40:28.000Z	125	4,112				
696451228377567232	52	hook	In San Jose and happy.to be watching SB50 from home...cheap beer!!! Go Broncos! 	en	1	0	0		2016-02-07T21:51:26.000Z	125	4,112				
352810991542743040	52	hook	Any one know about a volcano near mex city? My flight cancelled and heard no other airlines landing... 	en	1	1	1		2013-07-04T15:27:49.000Z	125	4,112				
308088668948672512	52	hook	Looking for a kick-butt operations supervisor to join Silicon Valley's Small Business of the Year. 	en	2	0	0		2013-03-03T05:37:17.000Z	125	4,112				
308088477751336961	52	hook	Very very excited for the new addition to join Planet Orange this week! Welcome aboard Jay Patel! 	en	0	0	0		2013-03-03T05:36:31.000Z	125	4,112				
264613409499279360	52	hook	Dear Apple: I am Leaving You. I thought this was a great article: 	en	0	0	0		2012-11-03T06:22:07.000Z	125	4,112				
264612571909345281	52	hook	Four day work week this past week (because I was sick on Monday)...looking forward to full week next week. 	en	0	0	0		2012-11-03T06:18:48.000Z	125	4,112				
249295093671026688	52	hook	Mitt pays less tax because of how capital gains are calculated - not his fault...how many of you pay higher taxes if you don't have to? 	en	0	0	0		2012-09-21T23:52:36.000Z	125	4,112				
249294675662495744	52	hook	Why does Twitter want me to follow celebs? They do not follow me or care about my opinions...why do I care what they do or what they buy. 	en	0	0	0		2012-09-21T23:50:57.000Z	125	4,112				
249294180482940928	52	hook	Love Pandora. Not sure why I like the band James, but love their songs late at night 	en	0	0	0		2012-09-21T23:48:58.000Z	125	4,112				
249294016305311744	52	hook	Mitt-tell me why vote for you. It's like watching Red Sox vs. Rays &amp; Sox fans chant "Yankees Suck." You pay more attn to Obama than to you. 	en	0	0	0		2012-09-21T23:48:19.000Z	125	4,112				
249293183459135489	52	hook	Baby Benjamin just arrived Tuesday and came home yesterday - family of four now. 	en	0	1	0		2012-09-21T23:45:01.000Z	125	4,112				
205653133098102788	52	hook	Where is it written that IPO is GUARANTEED to go up? You bet, and you lost. Get over it. 	en	1	2	0		2012-05-24T13:35:02.000Z	125	4,112				
200365476709269504	52	hook	Asked @unitedairlines to increase air....nothing. 	en	0	1	0		2012-05-09T23:23:46.000Z	125	4,112				
196370226537967616	52	hook	I think Nock deserves the big bucks lately! #tigers v #yankees 	en	0	0	0		2012-04-28T22:48:05.000Z	125	4,112				
196369972488978433	52	hook	Give Nick the big bucks!!! #tigers v #yankees 	en	0	0	0		2012-04-28T22:47:04.000Z	125	4,112				
173879141211439104	52	hook	Why can't we just enjoy Jeremy Lin for his basketball &amp; not commercialize everything... Ice Cream, catchy headlines, tell all books, etc. 	en	1	0	0		2012-02-26T21:16:32.000Z	125	4,112				
173536079159365632	52	hook	Watched movie Soul Surfer last night - excellent flick! Love the real home videos after the film was over. Excellent! 	en	0	0	0		2012-02-25T22:33:20.000Z	125	4,112				
173535874095648768	52	hook	Fingers crossed for a prosperous new beginning this coming week - please keep fingers crossed for me as well. 	en	0	0	0		2012-02-25T22:32:31.000Z	125	4,112				
173535519685349376	52	hook	21-month old daughter likes helping me with homework...already repeats "Supply Curve" and "Demand Curve"...future nobel prize winner??? 	en	0	0	0		2012-02-25T22:31:06.000Z	125	4,112				
173535214990135297	52	hook	All about Economics today: two quizzes, paper, and problem sets...love the executive MBA:-) 	en	0	0	0		2012-02-25T22:29:54.000Z	125	4,112				
164583968124059648	52	hook	data modeling just got easier this evening - Yay! 	en	0	0	0		2012-02-01T05:40:50.000Z	125	4,112				
160208392919588866	52	hook	4AM reggae dancing with Sophia is taking tole as I struggle through econ. 	en	0	0	0		2012-01-20T03:53:52.000Z	125	4,112				
159502817256681472	52	hook	Burger King delivery...sounds like BBQ to me - I get it the way I like it because I made it. Interesting though. 	en	0	2	0		2012-01-18T05:10:09.000Z	125	4,112				
159502461722300416	52	hook	Good night at class, learned a lot...learned there are some wicked smart people out there...glad to be associated with them 	en	0	0	0		2012-01-18T05:08:44.000Z	125	4,112				
159444375473106944	52	hook	Next month Bob Marley would be 67...still love his music 	en	0	0	0		2012-01-18T01:17:56.000Z	125	4,112				
159443932017737728	52	hook	Who knew decisions could be made so complicated via decision trees - not so sure I will make decisions so lightly in the future:-) 	en	0	0	0		2012-01-18T01:16:10.000Z	125	4,112				
159443797137297408	52	hook	MIT educated professor for one class + Stanford educated professor for another = hard quarter in the MBA. 	en	0	0	0		2012-01-18T01:15:38.000Z	125	4,112				
152084804366635011	52	hook	$804 in southwest flight credit that must be used by april 20. Will let go for $650...we both win. Please reply directly if interested. 	en	0	1	1		2011-12-28T17:53:37.000Z	125	4,112				
151756920108220417	52	hook	Sometimes we have to ask ourselves: what excuse do I REALLY have? 	en	0	0	1		2011-12-27T20:10:43.000Z	125	4,112				
151756455450652673	52	hook	very excited to start the new year...can't wait to see what is in store! 	en	1	0	1		2011-12-27T20:08:53.000Z	125	4,112				
151755975240593408	52	hook	picked up some wonderful new lamps: 	en	0	0	1		2011-12-27T20:06:58.000Z	125	4,112				
143351679948046336	52	hook	Does haste make waste?? Business, Chinese-style: http://bit.ly/uIEAdR via @AddThis 	en	0	0	0		2011-12-04T15:31:18.000Z	125	4,112				
141585187824869376	52	hook	calm and peaceful Tuesday - unitl I realize I want to put edits in final research paper due this evening 	en	0	0	1		2011-11-29T18:31:53.000Z	125	4,112				
130096490076061696	52	hook	"Growth and comfort do not coexist" Short and sweet quote from IBM's new CEO. 	en	0	0	1		2011-10-29T01:39:54.000Z	125	4,112				
127816149424553984	52	hook	Your life is shaped by your focus and decisions 	en	0	0	1		2011-10-22T18:38:39.000Z	125	4,112				
127816020395163648	52	hook	In sales, our offer must change the client. 	en	0	0	0		2011-10-22T18:38:08.000Z	125	4,112				
127815853516402688	52	hook	Lazy state = Lazy Decision 	en	0	0	1		2011-10-22T18:37:28.000Z	125	4,112				
127815786449485824	52	hook	Stupid and scared people come up with disempowering meanings to things. 	en	0	1	1		2011-10-22T18:37:12.000Z	125	4,112				
127814802641911808	52	hook	"Mouse eats cheese." - Sophia's forst three word sentence. 	en	0	0	1		2011-10-22T18:33:18.000Z	125	4,112				
103540486958096384	52	hook	Starbucks CEO to DC: You've been cut off http://money.cnn.com/2011/08/16/news/economy/starbucks_boycott_washington/ via @CNNMoney ...I love this! 	en	0	23	0		2011-08-16T18:55:50.000Z	125	4,112				
95695367470981122	52	hook	I'm a Netflix subscriber...why do people feel great net services should be free? Direct anger towards networks who ask $2B - not Netflix. 	en	0	0	0		2011-07-26T03:22:08.000Z	125	4,112				
95178755567394817	52	hook	America is a land of opportunity - you have to make the most of them...not land of entitlements where you just fill out form for $$ :-( 	en	0	0	0		2011-07-24T17:09:18.000Z	125	4,112				
95177723932192768	52	hook	COMAPNIES - bring back defined benefits &amp; put SS tax towards this - Gov't should remove SS &amp; let defined Benefits and 401k cover retirements 	en	0	0	0		2011-07-24T17:05:12.000Z	125	4,112				
95177387578359808	52	hook	A deficit is the amt by which a sum falls short of some ref amt. In econ, a deficit is a shortfall in rev...REMOVE deficit and cut debt! 	en	0	0	1		2011-07-24T17:03:52.000Z	125	4,112				
95177015220645888	52	hook	Debt is not a Republican/Democrat problem...it is an AMERICAN prob. I thought we are ONE country, indivisible, w/ liberty &amp; justice... 	en	0	0	1		2011-07-24T17:02:23.000Z	125	4,112				
95176590337638400	52	hook	SS not meant for a living wage for 30yrs - it's a supplement. Reduce entitlements and use rest to pay DEBT. 	en	0	8	0		2011-07-24T17:00:42.000Z	125	4,112				
95176228297908225	52	hook	Deficit still adds debt.Just cutting deficit means we will face future debt discussions. BALANCE budget and PAY DEBT! Excess isn't a refund 	en	0	0	0		2011-07-24T16:59:15.000Z	125	4,112				
94405220636954624	52	hook	Palin talks about difficulty a teen mom - her family affords $1M AZ home, try being on welfare. She is not the reality of teen moms. Really? 	en	0	0	1		2011-07-22T13:55:33.000Z	125	4,112				
76650303864315904	52	hook	Anyone have contact at @DR_Horton in Ft. Worth to answer why it is taking 17 days to get a signed contract? No returned emails or calls:-( 	en	0	0	0		2011-06-03T14:03:51.000Z	125	4,112				
76649082306830336	52	hook	Sophia had a fever last night and did not sleep well....a little tired this morning. Yawning. 	en	0	0	0		2011-06-03T13:58:59.000Z	125	4,112				
64580565164232704	52	hook	Read the book "Sway" the other day. Easy read and I really enjoyed 	en	0	0	0		2011-05-01T06:43:01.000Z	125	4,112				
64580382988845056	52	hook	Sometimes I think I am missing out 	en	0	0	0		2011-05-01T06:42:17.000Z	125	4,112				
61987780699488257	52	hook	Who is this Sharks team tonight? Ugh. Let's go Sharks! 	en	0	0	0		2011-04-24T03:00:13.000Z	125	4,112				
61986453609132033	52	hook	Starting Executive MBA in October - pretty excited 	en	0	0	0		2011-04-24T02:54:56.000Z	125	4,112				
23254222585733121	52	hook	‎2 of 3 Americans overweight...1 of 3 obese..The kicker...9 of 10 Americans consider their diet is healthy. Denial is our killer! 	en	0	0	0		2011-01-07T05:46:53.000Z	125	4,112				
1291510014457217024	53	sara	Change starts with equal access in education. Donate to help before school starts in two weeks. #SFUnifiedAccess 	en	15	1	2		2020-08-06T23:02:37.000Z	632	92,038				
1290787267762515968	53	sara	Reminder. 	da	42	6	7	goldman	2020-08-04T23:10:40.000Z	632	92,038				
1290803325491871744	53	sara	Equitable access to technology is an essential part of eliminating the opportunity gap. Thank you @sara @ev for helping to close the gap! #SFUnifiedAccess #WeAreSFUSD https://www.sparksfpublicschools.org/sfunifiedaccess https://bit.ly/3gxjPuO 	en	23	3	9	SFUSD_Supe	2020-08-05T00:14:29.000Z	632	92,038				
1288290384771256321	53	sara	BREAKING: We're receiving reports that at least one protester was abducted off the streets today by unmarked “officers” — this time in New York City. These dangerous, abusive, and indefensible actions must stop. Law enforcement must be held accountable. 	en	46700	3160	27239	ACLU	2020-07-29T01:48:57.000Z	632	92,038		blob:https://twitter.com/234a166b-03eb-4ee1-8fb8-4760207dde16	https://pbs.twimg.com/media/EeDlMC6WoAMinAv.jpg	
1279645871726948353	53	sara	Revolution 	en	21	5	1		2020-07-05T05:18:45.000Z	632	92,038				
1267612167156588544	53	sara	VOTE. 	fr	20	1	2		2020-06-02T00:21:06.000Z	632	92,038				
1267601846769598464	53	sara	Trump is degrading our democracy. Everything that falls from his mouth is an abomination inconsistent with constitutional requirements, devisive and disgusting. 	en	31	1	1		2020-06-01T23:40:05.000Z	632	92,038				
1266934463604424705	53	sara	They couldn't even stop doing police brutality at the police brutality protest. 	en	588088	901	155656	CraigSJ	2020-05-31T03:28:09.000Z	632	92,038				
1266504763501432837	53	sara	Like so many of you, I’m pained by these recent tragedies. And I’m exhausted by a heartbreak that never seems to stop. Right now it’s George, Breonna, and Ahmaud. Before that it was Eric, Sandra, and Michael. It just goes on, and on, and on. 	en	514927	5960	102772	MichelleObama	2020-05-29T23:00:40.000Z	632	92,038				https://pbs.twimg.com/media/EZOGZp2XYAA_KuH?format=jpg&amp;name=360x360
1258978572061954048	53	sara	Say his name. AHMAUD ARBERY. 	en	23	2	1		2020-05-09T04:34:16.000Z	632	92,038				
1251354761309257733	53	sara	Thank you @NYGovCuomo 	en	10	3	1		2020-04-18T03:39:58.000Z	632	92,038				
1250660944167878657	53	sara	A Message From Yayoi Kusama To The Whole World | Victoria Miro 	en	10	0	1		2020-04-16T05:42:59.000Z	632	92,038				
1249041185059954688	53	sara	Remembering when we had a leader that inspired me. 	en	13	1	1		2020-04-11T18:26:39.000Z	632	92,038				
1242681520407498752	53	sara	FOMO IS DEAD. 	es	40	2	7		2020-03-25T05:15:37.000Z	632	92,038				
1224061102373396486	53	sara	PS: They won in 95 too when #16 was gone but still. #joemontanaforever 	en	3	0	0		2020-02-02T20:04:43.000Z	632	92,038				
1224059341394923520	53	sara	The last time the 49ers won the Superbowl I was 17 and had this poster on my wall. #GoNiners 	en	25	3	1		2020-02-02T19:57:43.000Z	632	92,038				https://pbs.twimg.com/media/EPy7eysUEAA8Qvr?format=jpg&amp;name=360x360
1214085606931722240	53	sara	My 10 year old son Nolan was involved in a serious ski accident at @squawalpine when two members of Squaw ski team disregarded their top safety rules and skied way too fast, and way too close to Nolan. We are so saddened and appalled by Squaw’s response 	en	155	36	115	josephchong	2020-01-06T07:25:39.000Z	632	92,038				
1197536808030130177	53	sara	#FionaHill “This is exactly what the Russians were hoping for...that they would pit one party against the other.” 	en	10	0	1		2019-11-21T15:26:38.000Z	632	92,038				
1026030168928919552	53	sara	. @DevalPatrick for President. 	en	10	0	2	sara	2018-08-05T09:00:29.000Z	632	92,038				
1157135201715118081	53	sara	The Royal Hawaiian with Ohana. My first time hanging in Oahu for more than a day. So much action in Waikiki. #OnlyAtTheRoyal ((😂)) 	en	34	4	3		2019-08-02T03:45:05.000Z	632	92,038				https://pbs.twimg.com/media/EA74VFVUcAAY8jm?format=jpg&amp;name=360x360
1155976482495221760	53	sara	A day late, happy anniversary to you @ev . You remain my best friend and life partner through all the twists and turns. I love you. 	en	64	2	1		2019-07-29T23:00:45.000Z	632	92,038				https://pbs.twimg.com/media/EAraexrVAAIsz3b?format=jpg&amp;name=360x360
1131760675070414849	53	sara	Congress just introduced the Women’s Health Protection Act. Join me and @reprorights in demanding that Congress #ActForWomen and stop the nationwide attacks on abortion rights. 	en	16	3	1		2019-05-24T03:15:46.000Z	632	92,038				
1085957667334512641	53	sara	Don’t forget our history—Then They Came For Me: Incarceration of Japanese Americans during World War II and the Demise of Civil Liberties 	en	20	2	4		2019-01-17T17:50:58.000Z	632	92,038				
1063947766144000000	53	sara	I'm relieved that President Trump has the answer for stopping wildfires in the age of climate change. Who knew it was as simple as a "forest rake?" I searched for them on Amazon but couldn't find any. Perhaps a new product for Trump, Inc.? 	en	86711	3483	18829	DanRather	2018-11-18T00:11:29.000Z	632	92,038				
1045339991075885056	53	sara	#drford 	und	55	2	10		2018-09-27T15:50:50.000Z	632	92,038				https://pbs.twimg.com/media/DoHLLd4U8AEqQ6U?format=jpg&amp;name=360x360
1041000264449318913	53	sara	Just cried my eyes out while watching @amamaknox deliver a speech about her story. Hadn’t followed it enough to know about her INNOCENCE. So much respect. 	en	24	2	6		2018-09-15T16:26:18.000Z	632	92,038				
1037177323244539904	53	sara	3-0, USA. Women are all finesse, no whining. 	en	6	0	0		2018-09-05T03:15:18.000Z	632	92,038				
1020537867041497088	53	sara	When we all vote. 	en	7	0	1		2018-07-21T05:16:02.000Z	632	92,038				
1010287408024203264	53	sara	How a Remote Patch of Land Turned Into a Child Migrant Shelter 	en	3	2	1		2018-06-22T22:24:22.000Z	632	92,038				
1010059646512586753	53	sara	Thanks Library of Congress. My Japanese family that came to California from Hawaii were held at Amache. Ansel Adams was hired to document various camps which can be seen here: https://www.loc.gov/collections/ansel-adams-manzanar/about-this-collection/ 	en	30	1	11		2018-06-22T07:19:20.000Z	632	92,038				https://pbs.twimg.com/media/DgRzwDOVMAA_MXE?format=jpg&amp;name=360x360
936641449294286848	53	sara	“But justice roll down like waters and righteousness like an ever-flowing stream” Amos 5:24 https://www.instagram.com/p/BcKtEUUg4Qa/ 	en	145365	15238	66157	Comey	2017-12-01T17:01:38.000Z	632	92,038				
914141477797715968	53	sara	The only person showing poor leadership is you by attacking the Mayor of a city dealing with a major natural disaster. You have no decency. 	en	5380	149	1541	GavinNewsom	2017-09-30T14:54:46.000Z	632	92,038				
910209191838486528	53	sara	Graham-Cassidy allows insurers to NOT cover: -Pregnancy -Newborn care -Mental health services -Prescription drugs -Rehab -Birth control 	en	39732	2456	51136	GavinNewsom	2017-09-19T18:29:16.000Z	632	92,038				
904091777887379456	53	sara	Just finished viewing this film. You should watch it too. 	en	28	6	5		2017-09-02T21:20:51.000Z	632	92,038				https://pbs.twimg.com/media/DIv6qbUUEAA2d81?format=jpg&amp;name=360x360
896523232098078720	53	sara	"No one is born hating another person because of the color of his skin or his background or his religion..." 	en	4339898	68340	1640439	BarackObama	2017-08-13T00:06:09.000Z	632	92,038				https://pbs.twimg.com/media/DHEXH7RV0AAUwKj?format=jpg&amp;name=360x360
872661505547710464	53	sara	Dear KD, Your athletic prowess is perfection. 	en	36	3	5		2017-06-08T03:48:10.000Z	632	92,038				
844707481502830592	53	sara	You guys. It's just not going very well. 	en	191	15	165	goldman	2017-03-23T00:28:52.000Z	632	92,038				
870369915894546432	53	sara	Am departing presidential councils. Climate change is real. Leaving Paris is not good for America or the world. 	en	501686	26046	221896	elonmusk	2017-06-01T20:02:13.000Z	632	92,038				
870413002893254656	53	sara	As a matter of principle, I've resigned from the President's Council over the #ParisAgreement withdrawal. 	en	183990	9635	54167	RobertIger	2017-06-01T22:53:26.000Z	632	92,038				
870439008316276736	53	sara	Decision to withdraw from the #ParisAgreeement was wrong for our planet. Apple is committed to fight climate change and we will never waver. 	en	38956	1584	14620	tim_cook	2017-06-02T00:36:46.000Z	632	92,038				
870386661321986048	53	sara	Disappointed with today’s decision. Google will keep working hard for a cleaner, more prosperous future for all. 	en	18724	317	5406	sundarpichai	2017-06-01T21:08:45.000Z	632	92,038				
870477825530134528	53	sara	This admin has put a target on CA over the fight for our environment. They’re targeting our coast for offshore drilling &amp; our wilderness. 	en	3119	161	1463	KamalaHarris	2017-06-02T03:11:00.000Z	632	92,038				
867528220068814848	53	sara	I believe deeply in the importance of this data. But also doubt this chart or stats generally will convince persuadable voters 	en	13	2	3	goldman	2017-05-24T23:50:20.000Z	632	92,038				
866708221905387521	53	sara	“Don’t Blame Twitter” by @davepell 	en	11	1	6		2017-05-22T17:31:57.000Z	632	92,038				
865743127197483013	53	sara	A staggering number of families have been broken up by this administration under the false pretense of safety. 	en	1088	108	834	KamalaHarris	2017-05-20T01:37:00.000Z	632	92,038				
863835186655395841	53	sara	Dear Mr.President, speak what you will of "fake news". Truth always wins. 	en	24	1	3		2017-05-14T19:15:32.000Z	632	92,038				https://pbs.twimg.com/media/C_z1hYVUwAAlacb?format=jpg&amp;name=360x360
860937581961375746	53	sara	Miss @ev 's address at #Nebraska 's commencement? Or want to see it again? Either way, we've got it here: http://bit.ly/2qDNiMJ #GoBigGrad 	en	35	1	19	NebToday	2017-05-06T19:21:29.000Z	632	92,038				
860996359683538944	53	sara	3K+ degrees were awarded this wkend. See the photos &amp; watch the undergrad commencement address by @ev ›› http://ow.ly/3UP530buS1a #GoBigGrad 	en	26	0	11	UNLincoln	2017-05-06T23:15:03.000Z	632	92,038				
860876411766288384	53	sara	The University of Nebraska confers upon @Ev Williams the honorary degree Doctor of Humane Letter. #gobiggrad #UNL 	en	34	0	12	UNLincoln	2017-05-06T15:18:25.000Z	632	92,038				https://pbs.twimg.com/media/C_Jyhr4XcAY6ryM?format=jpg&amp;name=240x240 https://pbs.twimg.com/media/C_Jyhr6XoAAkpBs?format=jpg&amp;name=240x240
838828882262315008	53	sara	What Biracial People Know, via @nytimes https://www.nytimes.com/2017/03/04/opinion/sunday/what-biracial-people-know.html?smprod=nytcore-iphone&amp;smid=nytcore-iphone-share 	en	11	0	4		2017-03-06T19:09:24.000Z	632	92,038				
825502400454594561	53	sara	The blanket entry ban on citizens from certain primarily Muslim countries is not the best way to address the country’s challenges 	en	51624	2354	18758	elonmusk	2017-01-29T00:34:44.000Z	632	92,038				
825786789570949120	53	sara	Copley Square in Boston right now. You'd think it was the inauguration. 	en	13679	407	7386	ianbremmer	2017-01-29T19:24:47.000Z	632	92,038				https://pbs.twimg.com/media/C3XIo4gW8AAoArn?format=jpg&amp;name=360x360
825493024121708550	53	sara	This isn't normal. Its not humane, its not thought through, its not necessary, its not wise, its not decent and above all, its not American. 	en	38749	628	20531	EliotACohen	2017-01-28T23:57:28.000Z	632	92,038				
825488247543312384	53	sara	It was not OK when my family went to camps after Executive Order 9066. Trump's ban on Muslims is not OK &amp; will go down with equal disgrace. 	en	279	10	91		2017-01-28T23:38:29.000Z	632	92,038				
823763515798355968	53	sara	YOU did this. KEEP SHOWING UP. (Repost: Avery Jones) 	en	23335	387	9360	womensmarch	2017-01-24T05:25:01.000Z	632	92,038		blob:https://twitter.com/2a0978fd-ff48-4fb2-8de7-23b212c81159	https://pbs.twimg.com/ext_tw_video_thumb/823763354808446977/pu/img/GFj_DbVbfWOVFuwG.jpg	
823235841409642497	53	sara	I saw a sign yesterday: "Ask me about my late term abortion. Bring tissues.". It stayed with me all day... 	en	32	1	4		2017-01-22T18:28:14.000Z	632	92,038		blob:https://twitter.com/3250c578-10c5-47b3-9ff1-1b42cbc30a82	https://pbs.twimg.com/ext_tw_video_thumb/823235796421451777/pu/img/jeYSZblwY2T0xMrn.jpg	
823174274735337472	53	sara	Morning update on march count in US: Low estimate: 3,673,114 High (not highest) est: 4,607,902 	en	203	6	232	djpressman	2017-01-22T14:23:35.000Z	632	92,038				
823197912536469505	53	sara	Remember when "Wag The Dog" was merely a movie and not our reality? 	en	147	6	42	crystale	2017-01-22T15:57:31.000Z	632	92,038				
822297531543498752	53	sara	Thank you @barackobama . I felt true joy when you were elected, and am filled with pride and respect for all you have done. 	en	28	1	2		2017-01-20T04:19:43.000Z	632	92,038				
821770812231335936	53	sara	Taking it in on one last walk through the People's House. 	en	210940	3758	81325	FLOTUS44	2017-01-18T17:26:44.000Z	632	92,038		blob:https://twitter.com/04b18699-0eb7-430b-978d-0fad42e3729d	https://pbs.twimg.com/media/C2eEKsAUQAAQ0ub.jpg	
821499447616139266	53	sara	After January 20, 2017: @POTUS → @BarackObama @VP → @JoeBiden Learn more: 	en	2469	195	2457	ObamaWhiteHouse	2017-01-17T23:28:25.000Z	632	92,038				
820333066111492096	53	sara			19	2	1		2017-01-14T18:13:38.000Z	632	92,038				https://pbs.twimg.com/media/C2JokJQUcAAYd2N?format=jpg&amp;name=360x360
819222357214658561	53	sara	Retweet if you care about @realDonaldTrump 's tax returns 	en	41579	3232	115528	RonWyden	2017-01-11T16:40:05.000Z	632	92,038				
819021151397507072	53	sara	OH: "If Trump's twitter account was hacked, and started sending batshit tweets, how would we know?" 	en	48	2	13		2017-01-11T03:20:33.000Z	632	92,038				
816890495154536448	53	sara	I seek the truth in my holiday gifts. 	en	18	0	2		2017-01-05T06:14:05.000Z	632	92,038				https://pbs.twimg.com/media/C1Ytj2aUUAI4Ka5?format=jpg&amp;name=360x360
798169781027373056	53	sara	These are some Breitbart headlines. Their white nationalist CEO is now Trump's top White House strategist. Pay attention. 	en	9400	541	12704	GeorgeTakei	2016-11-14T14:24:39.000Z	632	92,038				https://pbs.twimg.com/media/CxOrLsLXUAASunR?format=jpg&amp;name=360x360
797629046477717504	53	sara	When we were sent to the camps, there were also many good people who offered to look after our farms, homes, pets. It gave us much hope. 	en	4376	126	1126	GeorgeTakei	2016-11-13T02:35:58.000Z	632	92,038				
796854326652059648	53	sara	Dear Twitter: Did you know that 33 Senate seats and EVERY SINGLE US HOUSE OF REPRESENTATIVES SEAT IS UP IN 2018? 468 seats y'all. Let's go. 	en	19188	291	12621	verso	2016-11-10T23:17:30.000Z	632	92,038				
796927119410548736	53	sara	You know, when you really think about it, I don't recommend you think about it. 	en	23966	433	7195	StephenAtHome	2016-11-11T04:06:46.000Z	632	92,038				
796229041221054464	53	sara	Tomorrow's weather: 	en	24	2	5		2016-11-09T05:52:51.000Z	632	92,038				https://pbs.twimg.com/media/CwzGFntUcAATx5L?format=jpg&amp;name=360x360
796204177055694850	53	sara	Live from the Canadian border. 	en	19872	220	22156	Rajio	2016-11-09T04:14:03.000Z	632	92,038		https://video.twimg.com/tweet_video/CwyvbkiUkAAWiuK.mp4	https://pbs.twimg.com/tweet_video_thumb/CwyvbkiUkAAWiuK.jpg	
796156680169922560	53	sara	#quotes 	und	11	0	6		2016-11-09T01:05:19.000Z	632	92,038				https://pbs.twimg.com/media/CwyERzhUoAAQmRD?format=jpg&amp;name=360x360
795099021455069185	53	sara	Hillary Clinton Appears to Gain Late Momentum on Surge of Latino Voters, via @nytimes http://www.nytimes.com/2016/11/06/us/politics/hillary-clinton-donald-trump-campaign.html?smprod=nytcore-iphone&amp;smid=nytcore-iphone-share 	en	26	3	10		2016-11-06T03:02:33.000Z	632	92,038				
789618070327271424	53	sara	Got the Pixel. Why does it have its own special cord? Why Google? 	en	22	5	1		2016-10-22T00:03:13.000Z	632	92,038				
788916105297457153	53	sara	Clinton is right, btw -- the "open borders" remark was about energy trading. 	en	3402	91	4060	daveweigel	2016-10-20T01:33:51.000Z	632	92,038				https://pbs.twimg.com/media/CvLLAqJW8AAAez_?format=jpg&amp;name=360x360
788933012859740162	53	sara	Trump Doesn't Get Roe v. Wade 	en	19	1	5		2016-10-20T02:41:02.000Z	632	92,038				
788927235759767552	53	sara	Donald Trump is the least qualified person to become president in the history of our country. Go vote! #debatenight 	en	27250	1193	19309	BernieSanders	2016-10-20T02:18:05.000Z	632	92,038				
788926517329952768	53	sara	One of these candidates knows the facts, the stakes and the plans. The other is your uninformed, drunk relative who never, ever shuts up. 	en	8680	179	3591	GeorgeTakei	2016-10-20T02:15:13.000Z	632	92,038				
788929615246954496	53	sara	Everything is Hillary's fault. Last week our kids got the stomach flu. Her fault. She shouldn't have let it happen. 	en	21	2	2		2016-10-20T02:27:32.000Z	632	92,038				
1288710748990877703	56	kati	The good news is that the Giants won mere minutes after I said this. The bad news is that I have no self control and I’ve spent the past 50 minutes rewatching the walk off homerun every time it’s been RTd in my twitter feed. 	en	0	0	0		2020-07-30T05:39:20.000Z	413	2,907				
1288696977706770434	56	kati	I want to go to bed, but I know that when this dumpster fire of a season comes to a screeching halt, I’ll regret every inning that I missed. 	en	0	1	0		2020-07-30T04:44:36.000Z	413	2,907				
1287779693672845313	56	kati	Now, think about the baseball situation today but imagine it's classrooms &amp; kids and not dugouts and adults. 	en	237	6	61	OracleSeagull	2020-07-27T15:59:39.000Z	413	2,907				
1286846387557040128	56	kati	Kruk and Kuip are broadcasting from adjacent booths at Oracle Park. Thankfully, they have cutouts of each other to keep them company. 	en	942	15	132	extrabaggs	2020-07-25T02:11:01.000Z	413	2,907				
1286518498085101568	56	kati	I was not in favor of sports returning, but that doesn’t mean I’m not thoroughly enjoying getting to skip the “what should we watch tonight” conversation that ensues in the absence of baseball. 	en	0	0	0		2020-07-24T04:28:06.000Z	413	2,907				
1283080471585239040	56	kati	New slogan suggestion- “Orange County: the Florida of the West” 	en	1	0	0		2020-07-14T16:46:37.000Z	413	2,907				
1283080267192647680	56	kati	I feel bad for the teachers who will inevitably get the blame when their union says, “hell no.” 	en	0	0	0		2020-07-14T16:45:48.000Z	413	2,907				
1281745189581623297	56	kati	Finally tracked down the real info we’ve all been looking for... Buster Posey’s new twins are named Ada and Livvi 	en	1	0	0		2020-07-11T00:20:41.000Z	413	2,907				
1280910271226265610	56	kati	The terf acronym is obviously inaccurate. Has anyone proposed something better? How do we like turd: trans undermining reactionary dirtbag? 	en	10	2	2	SarahM	2020-07-08T17:03:01.000Z	413	2,907				
1278788108276781058	56	kati	I’m on day “partner mistakes my application of tinted lip balm as getting dolled up” of quarantine 	en	1	0	0		2020-07-02T20:30:18.000Z	413	2,907				
1275239545194217473	56	kati	I like to live life on the edge, by which I mean I like to make croutons with the broiler where the difference between perfection and inedible garbage is about .2469 seconds 	en	1	0	0		2020-06-23T01:29:35.000Z	413	2,907				
1273805759189377024	56	kati	I never would’ve thought to update my profile picture to include a mask, but then Aubrey Huff made fun of people wearing masks in their pictures. Anyway, that guy sucks, so now here we are. 	en	9	2	1		2020-06-19T02:32:13.000Z	413	2,907				
1273801710431907842	56	kati	Send help. Clinton is now taking perfectly healthy cauliflower and FRYING IT. 	en	1	0	0		2020-06-19T02:16:08.000Z	413	2,907				
1273429159134367745	56	kati	Me: The quarantine 15 is no joke, we need to start eating better. Clinton: For dinner tonight the chef has prepared French fries, sweet potato fries, and onion rings. Enjoy. 	en	3	2	0		2020-06-18T01:35:45.000Z	413	2,907				
1270513470920785920	56	kati	Perhaps having a calendar as my phone screen background is not actually helpful, seeing as I am just now realizing, 9 days into the month, that it’s outdated. 	en	2	0	0		2020-06-10T00:29:51.000Z	413	2,907				
1266422013947785229	56	kati	"who knelt" 	en	3558	55	525	deray	2020-05-29T17:31:51.000Z	413	2,907				
1266408978776338433	56	kati	I’m going to match $300 in donations today to Minnesota charities on the ground. Turn your $5 into $10, your $10 into $20, and so on just by DMing me a receipt. Every bit helps. 	en	4	0	0		2020-05-29T16:40:03.000Z	413	2,907				
1261707199128039424	56	kati	Sometimes Clinton’s teacher side really comes out while he’s playing video games. Just overheard, “Don’t, cry Mario. He’s a supernatural ghost, there was a good chance he was going to win. Let’s reset our goals.” 	en	2	0	1		2020-05-16T17:16:52.000Z	413	2,907				
1260414752691384321	56	kati	Anyone else feel like the biggest revelation from The Last Dance is that Phil Jackson wore jeans to every. single. practice.? JEANS! 	en	0	0	0		2020-05-13T03:41:09.000Z	413	2,907				
1258210157177319426	56	kati	When someone tells you to “think rationally” ask yourself if they are telling you to detach from your emotions. They probably are. Watch out. Our emotions are more intelligent than our brains. #stayinyourheart 	en	1188	8	112	LauraHopeGill	2020-05-07T01:40:52.000Z	413	2,907				
1258458267174354945	56	kati	I know lots of other people have had to apologize on work calls for their dogs barking- anyone else also have to apologize for their husbands barking back? ((🙄)) 	en	1	0	0		2020-05-07T18:06:46.000Z	413	2,907				
1258087385306263553	56	kati	My shelter in place diet consists mostly of eating avocado toast for breakfast and guacamole for dinner so, in some respects, I’m thriving. 	en	2	0	0		2020-05-06T17:33:01.000Z	413	2,907				
1247356742360379393	56	kati	Not sure if the lesson of self isolation is “marry someone you don’t mind being trapped inside with for months” or “marry someone who makes excellent gin and tonics.” I’m pretty sure I’ve done both (but it might be the gin and tonics speaking) 	en	2	3	0		2020-04-07T02:53:16.000Z	413	2,907				
1245885205702828033	56	kati	Wedding planning advice for anyone whose venue is BYOB: buy twice as much wine as they say you’ll need. Best case scenario: you have a hefty stash in the event of self isolation. 	en	1	0	0		2020-04-03T01:25:55.000Z	413	2,907				
1245383943043444736	56	kati	Social distancing isn’t an option in homeless shelters throughout the Bay Area, but thanks to a rag-tag bunch getting hand sanitizer is. 	en	0	0	0		2020-04-01T16:14:04.000Z	413	2,907				
1243368694824091650	56	kati	Good news, in 2020 we’ll all be able to say our teams played October baseball. Orange October here we come. 	en	0	0	0		2020-03-27T02:46:12.000Z	413	2,907				
1243200634137935872	56	kati	One thing I’ve learned so far in quarantine is that my husband refuses to microwave anything for 45 seconds, he always does 44. When I asked him why, he said, “For Obama.” 	en	568365	8995	84702	Kendragarden	2020-03-26T15:38:23.000Z	413	2,907				
1240877078314024961	56	kati	I appreciate everyone’s support on the dog front. I am now ISO a new husband, preferably let one with an affinity for Great Danes. 	en	1	2	0		2020-03-20T05:45:24.000Z	413	2,907				
1240756322515079168	56	kati	ISO someone to help me convince Clinton we should rescue this 2 year old Great Dane 	en	5	5	0		2020-03-19T21:45:34.000Z	413	2,907				https://pbs.twimg.com/media/ETgNS0eU8AADhb4?format=jpg&amp;name=360x360
1240337965970100225	56	kati	The trick to following the “always get dressed for work” rule when working from home is to have a pair of work sweatpants and a pair of lounge sweatpants. You’re welcome. 	en	1	0	0		2020-03-18T18:03:10.000Z	413	2,907				
1227975049426038784	56	kati	Hunter Strickland gave a more sincere apology when he punched a door. 	en	912	11	104	PavlovicNBCS	2020-02-13T15:17:21.000Z	413	2,907				
1228150529550733318	56	kati	Ordered a quesadilla and it didn’t even come with a minuscule garnish of guacamole. Is this what life is like outside of California? 	en	1	0	0		2020-02-14T02:54:38.000Z	413	2,907				
1226167068682141696	56	kati	Now that GOT is over, when will it stop wrecking my crossword puzzle time? 	en	0	0	0		2020-02-08T15:33:04.000Z	413	2,907				
1224169715712442368	56	kati	Is it appropriate to send an email ahead of work tomorrow warning people that I don’t want to hear about the Super Bowl tomorrow? 	en	4	0	0		2020-02-03T03:16:18.000Z	413	2,907				
1216853105599369216	56	kati	I tried to place a hold on Little Women at the library so I can read it by my book club meeting (Feb 5). It says it’s currently checked out and was due August 29, 2017 so it’s not looking good. 	en	4	1	0		2020-01-13T22:42:43.000Z	413	2,907				
1215483379077931008	56	kati	Name a place where you can feel more emotions in 2 minutes than Petsmart. Fell in love with a chameleon: happy. Saw it move it’s eyes different directions: terrified. Watched a kitty meow at me knowing I can’t bring it home: heartbreak. 	en	2	0	0		2020-01-10T03:59:54.000Z	413	2,907				
1210800279790030850	56	kati	DUBS WIN 	en	18268	160	3691	warriors	2019-12-28T05:50:56.000Z	413	2,907		blob:https://twitter.com/7c00a98e-e8f7-4a46-9d44-5ae2d44c3628	https://pbs.twimg.com/amplify_video_thumb/1210799685373267969/img/HexyuBmic4lQW7Rw.jpg	
1208930778186301442	56	kati	In need of carry on suitcase recs. Preferably with wheels that don't break off. Preferably from a company that doesn't have unbelievably terrible customer service (i.e. staying far away from @away ) 	en	0	1	0		2019-12-23T02:02:13.000Z	413	2,907				
1206359818111336448	56	kati	I checked my bag with @jetblue for the second time in 6 months and for the second time my wheel was broken off. This doesn’t happen with other airlines. What gives? 	en	0	0	0		2019-12-15T23:46:08.000Z	413	2,907				https://pbs.twimg.com/media/EL3Z244UEAAmy1l?format=jpg&amp;name=360x360
1201275329110634497	56	kati	My @hulu account got hacked and hijacked which is not only frustrating (I got locked out and they added $60 worth of plans to my account), it’s also creepy (my account info shows my name, date of birth, and email address). 	en	0	2	0		2019-12-01T23:02:11.000Z	413	2,907				
1190309218756120576	56	kati	First time ever feeling glad that we didn’t upgrade to the exit row. Probably the closest I’ve seen to this 6’10” giant fitting on an airplane without having to shell out more money for it @exitrow4thetall 	en	1	0	0		2019-11-01T16:46:47.000Z	413	2,907				https://pbs.twimg.com/media/EITT4buWsAAYFbW?format=jpg&amp;name=small
1185078616020795392	56	kati	C just tried to romantically suggest that we set the alarm for 5:00am so we can go on a sunrise walk. I said I’d love to go on a sunrise walk, failing to remind him that the sun rises at 7:20 now. 	en	1	0	0		2019-10-18T06:22:14.000Z	413	2,907				
1182509115953696768	56	kati	In an effort to remain humble, I must admit that they were right. I was stuffed halfway through my order- I couldn’t even finish it! Luckily I wasn’t missing out (turns out pineapple doesn’t belong on pizza or in sushi) 	en	0	1	0		2019-10-11T04:11:57.000Z	413	2,907				
1182148673150406656	56	kati	In trying times, it’s nice to know that some things never change. And by some things, I mean Kershaw choking in the postseason. 	en	2	0	0		2019-10-10T04:19:41.000Z	413	2,907				
1182029103450320897	56	kati	Ordered sushi for myself and it came with 2 sets of chopsticks. What are they trying to tell me? 	en	1	1	0		2019-10-09T20:24:33.000Z	413	2,907				
1175561353542557696	56	kati	#1 rule of San Francisco summer: if you can wear shorts/skirts/dresses you do. #2 rule: if you have a dog, you bring them. 	en	2	0	0		2019-09-22T00:04:02.000Z	413	2,907				
1172606423710068736	56	kati	Huge shoutout to @stasherbag for donating bags to the snack corner in Clinton's classroom! 	en	1	0	0		2019-09-13T20:22:12.000Z	413	2,907				https://pbs.twimg.com/media/EEXvU3_UYAAlTMI?format=jpg&amp;name=360x360
1169450286768766977	56	kati	Hell hath no furry like a woman trying to get to the bathroom at intermission. 	en	0	0	0		2019-09-05T03:20:50.000Z	413	2,907				
1165805649462038528	56	kati	Me at 7pm in college: I should take a nap now so I have time to take a shower and blow dry my hair before we go out Me at 7pm now: We need to eat dinner right now so I have 2 hours to be upright before bed so I don't get acid reflux 	en	0	0	0		2019-08-26T01:58:21.000Z	413	2,907				
1165456266291843072	56	kati	Is it an ump? Is it a camera operator? Is it a player? These players weekend uniforms are not working from the nosebleeds, they better look really cool on TV. 	en	2	1	0		2019-08-25T02:50:01.000Z	413	2,907				
1165068325623173120	56	kati	In case anyone wants to know how @lyft followed up on this: they told me that I wasn’t charged more than my estimate while failing to acknowledge that wasn’t my concern (after they made me provide the names of my drivers and the times, in order to help me at all) 	en	0	1	0		2019-08-24T01:08:29.000Z	413	2,907				
1159289561307942912	56	kati	After a lot of self reflection I've finally come to terms with the fact that I might as well unwrap the whole burrito because I'm always going to eat past the saving point, but I'm still never going to finish the last inch. 	en	0	0	0		2019-08-08T02:25:44.000Z	413	2,907				
1155266586221142016	56	kati	Actual question I'd like an answer to: Are people in Europe perpetually dehydrated? Are they drinking enough water at home to never drink water in public? Why do they only pour 3 cm of water in your cup when you buy it? I need answers. 	en	1	0	0		2019-07-27T23:59:52.000Z	413	2,907				
1154044227195568129	56	kati	Me: I’ve been eating terribly. I need to get a salad. Also me: orders a salad with ice cream on it. To be fair, I thought that “honey ice cream” was a bad menu translation. It was not. 	en	0	0	0		2019-07-24T15:02:39.000Z	413	2,907				
1151664171341078529	56	kati	Happy pooch at #picanteberkeley 	en	4	1	1		2019-07-18T01:25:09.000Z	413	2,907				https://pbs.twimg.com/media/D_uIc__UYAE9S2F?format=jpg&amp;name=360x360
1146686441658863616	56	kati	11:30 - "I have a lot of room left in my suitcase" 12:30 - "I need a second suitcase" One hour later and I've added 4 pairs of shoes to the mix. 	en	2	0	0		2019-07-04T07:45:26.000Z	413	2,907				
1145443241015144448	56	kati	Well boys, time to build out our bench. 	en	3	0	1		2019-06-30T21:25:24.000Z	413	2,907				
1142110918970466304	56	kati	The day after the draft should be a work holiday so we can all stay home crying while we watch videos of 19 year old men thanking their moms #NBADraft19 	en	1	1	0		2019-06-21T16:43:57.000Z	413	2,907				
1142108945495887877	56	kati	I know that pencils weren’t invented for seating charts, but I’m really glad that pencils were invented, because seating charts ((🤯)) 	en	2	0	0		2019-06-21T16:36:06.000Z	413	2,907				
1140022849429573632	56	kati	How much @E40 can I request that the dj play at our wedding? 	en	3	1	0		2019-06-15T22:26:42.000Z	413	2,907				
1136475008291655681	56	kati	Someone please teach these @NBA refs what goaltending is. 	en	3	0	0		2019-06-06T03:28:51.000Z	413	2,907				
1136080076171227136	56	kati	In today’s edition of cauliflower taking over everything: I’m eating leftover curried cauliflower over leftover cauliflower rice (and TBH I’m loving it) 	en	1	0	0		2019-06-05T01:19:32.000Z	413	2,907				
1135231857488883712	56	kati	Planning a wedding has really opened my eyes to a lot. Today it’s the lack of men’s dress socks in the size 14-17 range. 	en	1	0	0		2019-06-02T17:09:01.000Z	413	2,907				
1134684620673314817	56	kati	In the backseat of a Lyft and my driver just pointed out the emergency exit (spoiler: it’s the door right next to me). What kind of mandatory training did Lyft just push? 	en	1	0	0		2019-06-01T04:54:29.000Z	413	2,907				
1133968260611727360	56	kati	2 weeks late but a sneak at the amazing bridal shower my sister threw me! 	en	1	0	0		2019-05-30T05:27:56.000Z	413	2,907				
1133967913029816320	56	kati	Reasons C is insisting he needs to eat ice cream before bed: - His body needs more calories - He'll get sick if he doesn't eat enough - His suit won't fit if he loses weight - He needs to make room in the freezer for more ice cream 	en	1	0	0		2019-05-30T05:26:33.000Z	413	2,907				
1119860191862775808	56	kati	Clinton, on creating passive income: "Maybe you should write a book of short stories, like Chicken Strip for the Soul." 	en	2	0	0		2019-04-21T07:07:30.000Z	413	2,907				
1119857743446155264	56	kati	"Let me get a drag on that," I said as Clinton sniffed his new leather shoes. 4/20 looks a little different in your late twenties. 	en	0	0	0		2019-04-21T06:57:46.000Z	413	2,907				
1119023826338062336	56	kati	Well, I’ll be hitting my local bookstore tonight. 	en	0	0	0		2019-04-18T23:44:05.000Z	413	2,907				
1119021998678478848	56	kati	Does it even matter if Clinton’s haircut looks good? This place has a dog. 	en	1	1	1		2019-04-18T23:36:49.000Z	413	2,907				https://pbs.twimg.com/media/D4eQiGgUcAAR7JL?format=jpg&amp;name=360x360
1118957685368475648	56	kati	I thought I was being helpful sending C some haircut photos to serve as inspiration for his haircut this afternoon, yet instead of a simple thanks I get “Jake Gylenhaal has a different haircut in every photo” and “No haircut will turn me into him.” ((Face with rolling eyes)) 	en	3	0	0		2019-04-18T19:21:16.000Z	413	2,907				
1117851637748363264	56	kati	The internet is a weird place when people use tragedy to share their old vacation photos. 	en	4	1	0		2019-04-15T18:06:13.000Z	413	2,907				
1117246954243624960	56	kati	What’s the record for passes to nobody in a game? 	en	0	0	0		2019-04-14T02:03:25.000Z	413	2,907				
1114258742399234048	56	kati	"Infielder and sometimes pitcher, Pablo Sandoval." -John Miller #SFGOpeningDay 	en	2	0	0		2019-04-05T20:09:20.000Z	413	2,907				
1113824524980514817	56	kati	March blew by so fast I didn’t even have a chance to wish myself a happy 13th Twitterversary ((Birthday cake)) 	en	1	0	0		2019-04-04T15:23:55.000Z	413	2,907				
1109961745789935616	56	kati	If the Liberty game looks empty is because everyone is out watching Duke 	en	0	0	0		2019-03-24T23:34:36.000Z	413	2,907				https://pbs.twimg.com/media/D2dgUlAVYAEKbH5?format=jpg&amp;name=360x360
1109955839605923840	56	kati	Nothing like a warm shower to show you exactly where you're sunburned 	en	0	1	0		2019-03-24T23:11:08.000Z	413	2,907				
1109228975040024576	56	kati	Turns out the madness in March Madness is how pissed off people get when they close all the bathrooms before the game ends @marchmadness #MarchMadness2019 @NCAA #NCAA 	en	0	0	0		2019-03-22T23:02:50.000Z	413	2,907				
1109222047710744577	56	kati	Came for UCI, stayed for a Jordan Bell sighting @1jordanbell 	en	1	0	0		2019-03-22T22:35:19.000Z	413	2,907				https://pbs.twimg.com/media/D2S_kmIUcAA9FtK?format=jpg&amp;name=360x360
1109182749431095296	56	kati	@ March Madness and it's the closest I've ever seen to Clinton fitting in height-wise. He •almost• looks normal. 	en	0	0	0		2019-03-22T19:59:09.000Z	413	2,907				
1108567021644439553	56	kati	Me at the first stage of wedding planning: "I don't want to DIY anything. I'd rather it be simple." Cut to me one year later contemplating a wrist brace after making 150 wax seals. 	en	4	0	0		2019-03-21T03:12:28.000Z	413	2,907				
1106318366430552064	56	kati	Not just a tall person joke, I quite literally needed a ladder 	en	0	0	0		2019-03-14T22:17:07.000Z	413	2,907				https://pbs.twimg.com/media/D1pusHvVAAEOC_v?format=jpg&amp;name=360x360
1106318165087121408	56	kati	Clinton asked me to bring him his bowling shoes and I agreed before realizing I'd need a ladder to reach them 	en	1	0	0		2019-03-14T22:16:19.000Z	413	2,907				https://pbs.twimg.com/media/D1pugR_UkAEbh7G?format=jpg&amp;name=360x360
1096503622043602946	56	kati	“I think he understands you gotta go to work and pay the bills.” - Klay on Rocco ((Face with tears of joy)) ((Face with tears of joy)) ((Face with tears of joy)) 	en	3360	31	586	NBCSWarriors	2019-02-15T20:16:50.000Z	413	2,907		blob:https://twitter.com/4a3a605b-2c4e-4f57-968d-4891cf785c59	https://pbs.twimg.com/ext_tw_video_thumb/1096503550232809472/pu/img/su4eCqk054FUW093.jpg	
1096960378221645825	56	kati	It bothers me how much it bothers me that Steph Curry did not win the 3 point contest. Is there therapy for this? I may need therapy on top of my therapy. 	en	0	0	0		2019-02-17T02:31:49.000Z	413	2,907				
1092257790217863168	56	kati	Yeah, yeah, yeah. Montana is still the GOAT. 	en	1	0	0		2019-02-04T03:05:25.000Z	413	2,907				
1091519447888613376	56	kati	Clinton: "Builders never consider tall people but that's okay, I can rise above it." Tall people humor. 	en	1	0	0		2019-02-02T02:11:30.000Z	413	2,907				
1085987269213773824	56	kati	Me: I want someone to love me like Barack loves Michelle C: You are my favorite person in the whole world. I'm so proud of who you are and I love you so much. Me: I guess what I really meant was that I want Barack to love me like he loves Michelle ((🤷🏻‍♀️)) 	en	2	1	0		2019-01-17T19:48:36.000Z	413	2,907				
1085783064935051266	56	kati	What’s that ole saying they have in The Bay? “Steph gonna Steph”? Oh yes that. Steph, sho is, gonna Steph. 	en	1799	27	242	ROSGO21	2019-01-17T06:17:10.000Z	413	2,907				
1085782259339276289	56	kati	Steph Curry is the first player in NBA history to make 8 threes in 3 straight games. 	en	5237	71	1249	SportsCenter	2019-01-17T06:13:58.000Z	413	2,907				https://pbs.twimg.com/media/DxF5NdjUYAEXeWh?format=jpg&amp;name=360x360
1085782426071121921	56	kati	Not to mention that 38 of those 115 points came on free throws (that's 33%) 	en	0	0	0		2019-01-17T06:14:37.000Z	413	2,907				
1085782112320380928	56	kati	Is this supposed to be impressive or embarrassing? #ballhog 	en	0	1	0		2019-01-17T06:13:23.000Z	413	2,907				
1085780200472817664	56	kati	These Draymond threes ((Splashing sweat symbol)) ((👌🏻)) 	en	0	0	0		2019-01-17T06:05:47.000Z	413	2,907				
1084826572727742464	56	kati	SO. SMOOTH. #SCtop10 	en	43156	172	8076	SportsCenter	2019-01-14T14:56:24.000Z	413	2,907		blob:https://twitter.com/565ded63-0504-4ce0-be5a-3e7038ac6e24	https://pbs.twimg.com/ext_tw_video_thumb/1084826524988121088/pu/img/hW7mHXru_4ZzBo7I.jpg	
1083756509052497922	56	kati	Some pretty incredible Willie Mays footage. @SFGiants 	en	773	23	207	Baseballography	2019-01-11T16:04:21.000Z	413	2,907		blob:https://twitter.com/0e7ad429-3c4d-4f18-ab50-5c687de98498	https://pbs.twimg.com/ext_tw_video_thumb/1083756382048972800/pu/img/xcJKKWIQSSYzLKxJ.jpg	
1084303348944125953	56	kati	Can you tell that all the breaks in a football game bore me? #RugbyIsBetter 	en	0	1	0		2019-01-13T04:17:18.000Z	413	2,907				
1084302005428924417	56	kati	At @warriors games I love coming up with job titles for the guy who mops up players sweat when they fall (In Game Court Maintenance Manager). The football equivalent is the guy who squirts water in people's mouths. "Water boy" is out. Give me your best. 	en	0	1	0		2019-01-13T04:11:58.000Z	413	2,907				
1084301147509125120	56	kati	In a similar vein, I love rooting against the Yankees, and they're not even in my division. (Yeah, I'm doing that thing where I group myself with my favorite team i.e. "we can do this", "my division". Sue me) @SFGiants 	en	0	0	0		2019-01-13T04:08:33.000Z	413	2,907				
1084300762635632640	56	kati	Me: I could never root for a team from LA. *Cowboys v Rams* Me: JARED GOFF I BELIEVE IN YOU, GET EM BOY, GO DO THIS THING. Why is it so fun to root against the Cowboys? 	en	1	0	0		2019-01-13T04:07:01.000Z	413	2,907				
1076760960965107712	56	kati	"I'm going to Uber eats Yogurtland. I want 6 ounces of chocolate, 4 ounces of vanilla, and 6 gummy bears." 	en	2	0	0		2018-12-23T08:46:33.000Z	413	2,907				
1293016476539072514	57	SarahM	“KQED's science department took the biggest hit among the organization's content divisions, losing three journalists who have helped lead KQED’s coronavirus coverage.” Media economics stay brutal. 	en	40	0	31	s_m_i	2020-08-11T02:48:45.000Z	1,491	17,930				
1292511186236223488	57	SarahM	An infuriating example of the difference that difference makes. 	en	10426	23	2428	sandylocks	2020-08-09T17:20:55.000Z	1,491	17,930				
1292429955419299841	57	SarahM	It is time to jettison “election night coverage.” We should have learned our lesson in 2000, when the urgency to declare a winner undermined our ability to have a fair process. But we didn’t change our ways/2 	en	632	8	136	julianzelizer	2020-08-09T11:58:08.000Z	1,491	17,930				
1292430535680303105	57	SarahM	Question for social scientists/data folks: How would one assess how many white people have died of Covid due to secondary impact of racial resentment-driven public policy? Which states didn't get medicaid expansion is linked to racial resentment. But our entire last elex was too. 	en	37	5	7	farai	2020-08-09T12:00:26.000Z	1,491	17,930				
1290083389995802625	57	SarahM	What I do care about is the Upper West Siders, who voted for Hillary and were up in arms about Amy Cooper, but are now leading the charge against providing housing for those who need it most—during an unprecedented global pandemic. https://www.westsiderag.com/2020/07/27/locals-express-frustration-and-confront-councilmember-as-hotel-becomes-homeless-shelter 	en	714	24	148	SammyKoppelman	2020-08-03T00:33:43.000Z	1,491	17,930				
1291580552022315009	57	SarahM	Watched this last night. I strongly recommend it for your heart and your head 	en	2	1	0		2020-08-07T03:42:54.000Z	1,491	17,930				
1291573717416529920	57	SarahM	Chief Justice Bernette Johnson in dissent: "If he lives another 20 years, Louisiana taxpayers will have paid almost one million dollars to punish Mr. Bryant for his failed effort to steal a set of hedge clippers." 	en	979	9	305	ScottHech	2020-08-07T03:15:45.000Z	1,491	17,930				
1291571576903786499	57	SarahM	TODAY: A 63 y/o Black man will be caged the rest of his life for stealing hedge clippers. The Louisiana Supreme Court upheld the sentence. The lone dissent was Chief Justice Bernette Johnson. The only female &amp; Black person on court. The rest are white men. 	en	6808	420	5620	ScottHech	2020-08-07T03:07:14.000Z	1,491	17,930				
1291358450925142016	57	SarahM	Are you treadmill-desk curious? I talk here about how I've: * Set one up cheaply * Done it expensively * Done it in an apt where I don't have room for a desk at all 	en	9	0	4		2020-08-06T13:00:21.000Z	1,491	17,930				
1291187153217650691	57	SarahM	Real talk from @sarahm about her treadmill desk. You're going to want one even more than you already do. 	en	16	1	4	tonystubblebine	2020-08-06T01:39:41.000Z	1,491	17,930				
1291211798708981760	57	SarahM	I walked 10.68 miles today without noticing. Here's a quick rundown of how a treadmill work station in my small apartment makes that possible: 	en	83	5	17		2020-08-06T03:17:37.000Z	1,491	17,930				
1291021488536068096	57	SarahM	Pro tip: Don't suggest dual Babyfoot for Date Night Quarantine Edition unless you want to * Watch your partner peel their feet on the sofa * Find skin flakes everywhere * Get texted pics of piles of skin * Be told w/glee, "I'm addicted to peeling! We're doing this every month!" 	en	17	4	0		2020-08-05T14:41:23.000Z	1,491	17,930				
1290873053535248384	57	SarahM	Wow, this thread I find that even when I know information about prison systems--even when I've read about individual states--I can still be shocked by the details 	en	2	0	1		2020-08-05T04:51:33.000Z	1,491	17,930				
1289653385130516481	57	SarahM	I just realized that if things go *well,* we not only have to get through the next few months, we also have to endure election night itself 	en	11	3	0		2020-08-01T20:05:02.000Z	1,491	17,930				
1288577925910945794	57	SarahM	Have organizing experience w/ radical Media &amp; Communications work &amp; strategy? Want to build a world w/o policing, imprisonment &amp; surveillance? #CriticalResistance is hiring a Natl #Media &amp; #Communications Director! #ApplyToday #AbolitionNow 	en	63	1	40	C_Resistance	2020-07-29T20:51:32.000Z	1,491	17,930				
1289178235142471680	57	SarahM	NEW: The Postal Service is experiencing days-long backlogs of mail across the country after a top Trump donor running the agency put in place new procedures described as cost-cutting efforts, raising alarms for November election. From me &amp; @jacobbogage : 	en	1410	76	1283	myhlee	2020-07-31T12:36:57.000Z	1,491	17,930				
1288961664201535489	57	SarahM	This is important: Trump's attempts to manipulate the USPS has already resulted in mail slowdowns, in part because mail carriers can no longer get overtime pay. It's only going to get worse, so request your ballots *as soon as your state allows it* 	en	1589	24	1032	andizeisler	2020-07-30T22:16:23.000Z	1,491	17,930				
1288277964543725568	57	SarahM	This is terrifying. And here’s the thing: This happens everyday in Black &amp; Brown communities. People feel incarcerated. Scared to walk outside. NYPD out in plain clothes. Unmarked vehicles. Homes raided. Stopped. Thrown in vans. “Why are you arresting him!” 	en	3719	269	2097	ScottHech	2020-07-29T00:59:36.000Z	1,491	17,930				
1288261543633866755	57	SarahM	this is...kidnapping 	en	170024	14327	69076	chrislhayes	2020-07-28T23:54:21.000Z	1,491	17,930				
1288276738678632453	57	SarahM	Trump’s thugs have arrived in NYC What I want to know @NYCMayor is why the NYPD is eagerly helping them kidnap innocent protestors. Are you now working hand in hand with Trump &amp; ICE to terrorize NYers? 	en	2614	314	936	CynthiaNixon	2020-07-29T00:54:44.000Z	1,491	17,930				
1288253381883113475	57	SarahM	NYC is taking after Portland - a trans femme protestor was pulled into an unmarked van at the Abolition Park protest - this was at 2nd Ave and 25th Street 	en	111136	10485	92044	MichelleLhooq	2020-07-28T23:21:55.000Z	1,491	17,930		blob:https://twitter.com/e5d8920c-8eb5-4636-b49c-8666d3e025b0	https://pbs.twimg.com/ext_tw_video_thumb/1288253233903865862/pu/img/6rlG7LX4RcWcCUYo.jpg	
1288195088762523648	57	SarahM	OOP, just got my whole life. 	en	2135	23	338	theferocity	2020-07-28T19:30:17.000Z	1,491	17,930				
1286724571802918912	57	SarahM	do I know anyone who will be teaching a class on government tech or civic tech this year? I know the September release of my book might be a little late for fall courses, but I'm curious if it could be of use, &amp; I'm curious if me talking with your students could be of use. 	en	66	24	33	cydharrell	2020-07-24T18:06:58.000Z	1,491	17,930				
1286020758469324801	57	SarahM	This is so smart and cool ((✨)) h/t @triciawang 	en	2	0	0		2020-07-22T19:30:16.000Z	1,491	17,930				
1285546695435194368	57	SarahM	So grateful to you all there for pushing back like this. 	en	1373	5	172	alexanderchee	2020-07-21T12:06:31.000Z	1,491	17,930				
1285649723072937984	57	SarahM	Listen to Cyd. Cyd knows what she's talking about. 	en	8	0	4	nkkl	2020-07-21T18:55:54.000Z	1,491	17,930				
1285740091080613892	57	SarahM	Just contributed! Who can join me tonight to unlock this matching contribution for our comrade Peyman? http://bit.ly/PeymanFund 	en	2	1	3	schlemieli	2020-07-22T00:55:00.000Z	1,491	17,930				
1285587742500491267	57	SarahM	How is it possible to believe in the justice of this system when treason gets you released and late homework gets you locked up?! 	en	2853	40	1258	DrPhilGoff	2020-07-21T14:49:37.000Z	1,491	17,930				
1285683660642045952	57	SarahM	They incarcerated a teenage girl for not doing her online homework. And then this judge had the nerve to say to her, “I think you are exactly where you are supposed to be,” adding, “You are blooming there, but there is more work to be done.” This country. 	en	992	78	545	JamilSmith	2020-07-21T21:10:46.000Z	1,491	17,930				
1285740122227580928	57	SarahM	Civic tech practitioners, I worked with Cyd for the federal government, and I can say with certainty: you need this ((⏬)) ((⏬)) ((⏬)) ((⏬)) 	en	25	1	4		2020-07-22T00:55:07.000Z	1,491	17,930				
1285393326863155201	57	SarahM	A 15 YEAR OLD GIRL HAS BEEN JAILED FOR THE LAST 2 MONTHS FOR NOT DOING HER HOMEWORK. A 15 YEAR OLD GIRL HAS BEEN JAILED FOR THE LAST 2 MONTHS FOR NOT DOING HER HOMEWORK. A 15 YEAR OLD GIRL HAS BEEN JAILED FOR THE LAST 2 MONTHS FOR NOT DOING HER HOMEWORK. 	en	147359	1569	78786	ScottHech	2020-07-21T01:57:05.000Z	1,491	17,930				
1285366594332393472	57	SarahM	((👇🏼)) ((👇🏼)) ((👇🏼)) 	und	1	0	0		2020-07-21T00:10:51.000Z	1,491	17,930				
1284611496073465861	57	SarahM	I want the cops who killed Breonna Taylor to be fired, stripped of their pensions, all benefits (to them &amp; their dependents) and prohibited from getting another job in “law enforcement”. Their name are: Jonathan Mattingly Brett Hankison Myles Cosgrove 	en	8805	21	4955	LeslieMac	2020-07-18T22:10:22.000Z	1,491	17,930				
1284121827263090691	57	SarahM	If you're just now finding out about what's going in in Portland, please know that the people of Portland have been protesting every night for over a month, despite constant violence from the police, neo-nazis, and now the feds. If you're able, here are some ways you can help: 	en	102064	69	65558	AlexaRSoares	2020-07-17T13:44:36.000Z	1,491	17,930				
1284534911743913985	57	SarahM	Ok, Internet. Let’s do something good today and demand @enterprise shuts down the pipeline of rental cars to the unidentified federal agents kidnapping people off the streets in Portland. 	en	7918	265	5598	baddestmamajama	2020-07-18T17:06:03.000Z	1,491	17,930				
1284348261017559040	57	SarahM	I’m finding myself in the deepest gratitude that John Lewis and CT Vivian got the chance to become elders. To pass on the wisdom. To pray for us. Grow us. Lead us. They chose freedom work that easily shortens one’s life. And we got to keep them for a while. What a blessing. 	en	23655	58	3393	MsPackyetti	2020-07-18T04:44:22.000Z	1,491	17,930				
1284342516633018369	57	SarahM	honor his memory by restoring the voting rights act and introducing a constitutional amendment guaranteeing the right to vote 	en	11600	39	3016	jbouie	2020-07-18T04:21:32.000Z	1,491	17,930				
1284342513902522370	57	SarahM	it cannot be overstated what john lewis &amp; his generation accomplished. the civil rights movement toppled Jim Crow segregation and authoritarianism, expanded &amp; strengthened democracy across the country, &amp; inspired movements for rights and liberation both here &amp; around the world. 	en	22783	42	4564	jbouie	2020-07-18T04:21:31.000Z	1,491	17,930				
1284325903368105985	57	SarahM	well done, Mr. John Lewis. Rest well. 	en	2293	12	812	Nettaaaaaaaa	2020-07-18T03:15:31.000Z	1,491	17,930				
1284247139506429952	57	SarahM	A lot of feds are dismayed by the admin's response to the protests. If you're one, text me securely via Signal at (202)510-1268. 	en	5851	49	1470	kenklippenstein	2020-07-17T22:02:32.000Z	1,491	17,930				
1284334321562791936	57	SarahM	Best way we can honor John Lewis is to keep making Good Trouble and keep fighting for Black people. 	en	2930	13	698	LeslieMac	2020-07-18T03:48:58.000Z	1,491	17,930				https://pbs.twimg.com/media/EdLfQcjXYAIbgHq?format=jpg&amp;name=360x360
1283996368932143106	57	SarahM	Holy shit 	en	9	2	0		2020-07-17T05:26:04.000Z	1,491	17,930				
1282919244167090176	57	SarahM	It just shows so clearly that Cuomo is basically Trump with nipple rings Nothing about this is a good look 	en	4	1	0		2020-07-14T06:05:57.000Z	1,491	17,930				
1282919003485241344	57	SarahM	I don't have a better way to say it. This poster is very fucking upsetting 	en	5	1	0		2020-07-14T06:05:00.000Z	1,491	17,930				
1282787123146272768	57	SarahM	I want @wirecutter to hire me to set up a team of disabled ppl with varying accessibility needs to test out accessibility of...basically everything they rate. I luv the site &amp;refer to it often but it's a missing piece &amp; I think even ableds would find it interesting. Do you agree? 	en	1116	37	243	mssinenomine	2020-07-13T21:20:57.000Z	1,491	17,930				
1282425596732215301	57	SarahM	Hello world!! Does everyone currently using the rise in shootings in various cities to peddle the false narrative that this is why we need police realize that WE ARE CURRENTLY SPENDING BILLIONS ON POLICING AND THEY ARE NOT PREVENTING THESE SHOOTINGS? 	en	1138	16	392	ScottHech	2020-07-12T21:24:23.000Z	1,491	17,930				
1282478061775130626	57	SarahM	It's notable that the article manages not to talk about race. Nor does it ask why the tech mogul is funding technology instead of, say, giving money to people so they don't see theft as a good option It takes policing at face value--elevates it, even. What a mess 	en	2	1	0		2020-07-13T00:52:51.000Z	1,491	17,930				
1282477245257457664	57	SarahM	It's not an act aligned with abolition, as the article mistakenly suggests, to have rich people fund a private network of policing More policing is more policing...not less 	en	4	1	0		2020-07-13T00:49:37.000Z	1,491	17,930				
1282476671946424322	57	SarahM	I've seen a lot of people praising this story for being "even handed." Where to even begin? An uncritical story about how a tech mogul can buy better surveillance technology than the police have, and cite no dissenting views, is not "balanced" 	en	13	1	6		2020-07-13T00:47:20.000Z	1,491	17,930				
1282408806039744512	57	SarahM	happened on this really nice article by @emolyfong, for students who want to get into #civictech 	en	18	1	5	cydharrell	2020-07-12T20:17:40.000Z	1,491	17,930				
1282016629413552131	57	SarahM	During tail end of the enslavement era, private citizens were empowered and trained to violently “arrest” runaways. Our unjust present is our unjust past. Our unjust past is our unjust present. 	en	11820	126	6378	DrIbram	2020-07-11T18:19:17.000Z	1,491	17,930				
1282399355446669315	57	SarahM	Real question: Is there software for tracking all the people who need to be listed in movie credits? I always picture an assistant with a spreadsheet hoping they don't miss anyone. That can't be how it's done, right...? 	en	5	10	3		2020-07-12T19:40:06.000Z	1,491	17,930				
1282398937392066567	57	SarahM	We just watched The Old Guard. It was long for a pilot, but we're ready for ep 2 	en	6	0	1		2020-07-12T19:38:27.000Z	1,491	17,930				
1282396508483194882	57	SarahM	There are a *lot* stories that can help you understand why Camden is not a progressive model (despite today's NYT story) Here's one: 	en	0	0	0		2020-07-12T19:28:48.000Z	1,491	17,930				
1282395736206868480	57	SarahM	I learned about Camden policing reforms by reading up on it last month. It's truly not defunding the police and investing in the community. It's police violence with a new tech stack If today's NYT story about Camden makes you think reform can work, I get it, but please research 	en	3	1	1		2020-07-12T19:25:43.000Z	1,491	17,930				
1282382610262642689	57	SarahM	The NYT has a story today suggesting police reforms in Camden might be a model for other cities, and saying that they've tried things activists have asked for. In fact, a large body of work debunks Camden as a model, and defund activists decry the approach 	en	2	1	0		2020-07-12T18:33:34.000Z	1,491	17,930				
1282323343883096072	57	SarahM			44220	173	14232	kenklippenstein	2020-07-12T14:38:04.000Z	1,491	17,930				https://pbs.twimg.com/media/Ecu6SNEXoAAjyhx?format=jpg&amp;name=240x240 https://pbs.twimg.com/media/Ecu6SNFWoAEzHMV?format=jpg&amp;name=240x240
1282349817923014658	57	SarahM	Big same (I will be unsurprised if I come to regret using this format to RT) 	en	3	0	0		2020-07-12T16:23:16.000Z	1,491	17,930				
1282347078858006528	57	SarahM	We can say this about the media coverage of Trump's mask: finally, intense focus on what a man in power is wearing Perhaps major papers will publish his chocolate chip cookie recipe next 	en	15	0	1		2020-07-12T16:12:23.000Z	1,491	17,930				
1282125317126193163	57	SarahM	I know Trump wore a mask today but there are still millions of people caged, over a quarter pretrial, most on bail they can’t afford, trapped across the country in Petri dishes for COVID that will kill &amp; infect them &amp; spread to communities. We are letting leaders let this happen. 	en	196	5	82	ScottHech	2020-07-12T01:31:10.000Z	1,491	17,930				
1282138826807422976	57	SarahM	There are over 100,000 people on federal probation/supervision. Out of prison but still not free. Trump should commute all of their sentences tonight. 	en	184	3	41	ScottHech	2020-07-12T02:24:51.000Z	1,491	17,930				
1282129649561153537	57	SarahM	There are 78,000 people in federal prison right now for drug offenses. Trump could commute all of their sentences tonight. 	en	1707	23	461	ScottHech	2020-07-12T01:48:23.000Z	1,491	17,930				
1282136301903335424	57	SarahM	Props to whoever is projecting the BLM symbol across the street from a police station 	en	11	1	1	JasonShen	2020-07-12T02:14:49.000Z	1,491	17,930				https://pbs.twimg.com/media/EcsQKxdX0AMs-TS?format=jpg&amp;name=360x360
1282062726924242944	57	SarahM	This is one of the most cogent arguments I’ve seen for defunding police depts and makes a powerful statement about the immorality of paying police and teachers who don’t live in the cities they serve: City budgets in places with poor schools, services, fund the suburban good life 	en	25116	391	8841	nhannahjones	2020-07-11T21:22:28.000Z	1,491	17,930				
1282066862977646592	57	SarahM	If you watch one thing online today that should actually stay in your head forever, watch this. 	en	163791	1111	58433	ava	2020-07-11T21:38:54.000Z	1,491	17,930				
1281076008364343296	57	SarahM			245803	1634	102550	KingBach	2020-07-09T04:01:36.000Z	1,491	17,930		blob:https://twitter.com/a1cef6ea-60db-40c3-932d-c60e3a54262c	https://pbs.twimg.com/ext_tw_video_thumb/1281075930195128320/pu/img/14o435FcReICDNoH.jpg	
1281924700311093249	57	SarahM	As a leader you'll face uncomfortable situations: managing underperformance, addressing harmful behaviour, and even letting people go. @frantziful &amp; @SarahM co-host #LeadDevTogether Part 4 to help you navigate the difficult conversations. Learn more ((Rightwards arrow)) https://wvnts.co/3gFm9zk 	en	4	0	7	TheLeadDev	2020-07-11T12:14:00.000Z	1,491	17,930				https://pbs.twimg.com/media/EckquDrX0AQLCki?format=png&amp;name=360x360
1281795992170442752	57	SarahM	ARE WE PAYING ATTENTION TO WHAT IS HAPPENING 	en	9977	134	7076	ed_solomon	2020-07-11T03:42:33.000Z	1,491	17,930				
1281759546113957889	57	SarahM	We still want justice for Breonna Taylor 	en	57138	39	31773	angiecthomas	2020-07-11T01:17:44.000Z	1,491	17,930				
1281729963679518720	57	SarahM	Dismiss them all. Every single charge. And then compensate them for the trauma of arrest, lost jobs and housing, and any other injury suffered. 	en	339	5	124	ScottHech	2020-07-10T23:20:11.000Z	1,491	17,930				
1281602227409477632	57	SarahM	Apply to receive up to $1,000 from our Action Fund to support Black #directaction practitioners! The money can be used for supplies, safety equipment, trainers, medics, or anything needed to help you plan your actions. http://bit.ly/directactionfund ((Camera)) : @MelDCole 	en	34	1	47	BlkDirectAction	2020-07-10T14:52:36.000Z	1,491	17,930				https://pbs.twimg.com/media/EckqHpcWAAEdb3Y?format=png&amp;name=360x360
1281630402449420290	57	SarahM	Trending topics on on this here site are like internet comments: you'd be well advised to avoid them 	en	12	0	1		2020-07-10T16:44:34.000Z	1,491	17,930				
1281343186946846721	57	SarahM	really interesting, remote capable Director of Eng job at a modernizing federal vendor, on a team with my friend @joshuasbailes #civictech 	en	3	1	5	cydharrell	2020-07-09T21:43:16.000Z	1,491	17,930				
1281032082144165888	57	SarahM	Thread. 	en	391	5	241	polotek	2020-07-09T01:07:03.000Z	1,491	17,930				
1280910271226265610	57	SarahM	The terf acronym is obviously inaccurate. Has anyone proposed something better? How do we like turd: trans undermining reactionary dirtbag? 	en	10	2	2		2020-07-08T17:03:01.000Z	1,491	17,930				
1280871738989936640	57	SarahM	You have a fundamental right to contraception care and coverage. This isn't new. This isn't even radical. It's the bare minimum. Contraception is health care and your insurance company should have to cover it. Today's reckless Supreme Court decision endangers that for millions. 	en	862	15	295	laurenarankin	2020-07-08T14:29:54.000Z	1,491	17,930				
1280877076975886337	57	SarahM	“...96 elderly male prisoners have been transferred to the isolated Adirondack prison. @NYGovCuomo announced the plan as a way to ensure safety for aging incarcerated people, who are particularly vulnerable to #COVID19 complications.” OR YOU COULD JUST RELEASE THEM. #freethemnow 	en	165	4	61	tiffany_caban	2020-07-08T14:51:07.000Z	1,491	17,930				
1280715778271166466	57	SarahM	Late to the party but the dumbest thing about that Harper's Letter is framing online disagreement and academic squabbles as the quintessential free speech issue rn at a time when cops are beating and jailing protesters. Militarized police are a free speech issue. 	en	5559	31	1228	katewillett	2020-07-08T04:10:10.000Z	1,491	17,930				
1280617469367943168	57	SarahM	My immediate reaction to the Harper's letter was remembering all those studies about how privileged voices always overestimate the extent to which marginalized voices dominate any particular conversation. 	en	5559	29	1199	BenjaminEPark	2020-07-07T21:39:32.000Z	1,491	17,930				
1289248388525879296	58	Darkside	Though her skin has been tarnished, weathered, and tested, her core still shines bright! ((🗽)) 	en	11	1	1		2020-07-31T17:15:43.000Z	792	4,642				
1289245593039015936	58	Darkside	This amazing piece of art came all the way from Australia today!!! It’s amazing thank you @JackOfthedust 	en	27	9	2		2020-07-31T17:04:37.000Z	792	4,642				
1204766078468911106	58	Darkside	Twitter is funding a small independent team of up to five open source architects, engineers, and designers to develop an open and decentralized standard for social media. The goal is for Twitter to ultimately be a client of this standard. ((🧵)) 	en	51050	2099	19011	jack	2019-12-11T14:13:11.000Z	792	4,642				
1288221450990739456	58	Darkside	Legalize marijuana nationwide and expunge records for cannabis-related offenses. 	en	201445	5171	47943	Ilhan	2020-07-28T21:15:02.000Z	792	4,642				
1287975730966650880	58	Darkside	Maybe @NYGovCuomo could give you some lessons on how to lead a state! 	en	8	0	1		2020-07-28T04:58:38.000Z	792	4,642				
1287971440046866432	58	Darkside	1.28 remember that number @GovParsonMO you did nothing to slow this!!! You made Missouri number 1 congratulations... #NoOneVotedForYou #MaskUpMO 	en	12	2	2		2020-07-28T04:41:35.000Z	792	4,642				
1287434846898393088	58	Darkside	Hey @GovParsonMO try being a leader and put some attention on fixing the COVID-19 crisis with in your state!! This is your problem https://rt.live/us/MO #NoOneVotedForYou but you can step up and save lives! #maskupmo 	en	10	0	0		2020-07-26T17:09:21.000Z	792	4,642				
1286278847558819840	58	Darkside	There should be a national mask mandate. 	en	177478	20071	29253	NYGovCuomo	2020-07-23T12:35:49.000Z	792	4,642				
1285294033204641793	58	Darkside	Dear @GovParsonMO , you are a thick-headed buffoon, you’re putting your state’s children, teachers and parents at risk!! All for your impeached crony, who couldn’t point Missouri out on a map! #NoOneVotedForYou you seem to be happy with the carnage YOU will be creating! L 	en	25	1	4		2020-07-20T19:22:31.000Z	792	4,642				
1283593097759219712	58	Darkside	BLACK. LIVES. MATTER. BLACK. LIVES. MATTER. BLACK. LIVES. MATTER. BLACK. LIVES. MATTER. BLACK. LIVES. MATTER. BLACK. LIVES. MATTER. BLACK. LIVES. MATTER. BLACK. LIVES. MATTER. BLACK. LIVES. MATTER. BLACK. LIVES. MATTER. BLACK. LIVES. MATTER. BLACK. LIVES. MATTER. 	en	27468	334	7686	common	2020-07-16T02:43:37.000Z	792	4,642				
1283542253932351490	58	Darkside	HEY GOP CONGRESS: You can all STOP pretending like you didn't see the "president" pimping the Goya shit from the Oval Office. That's illegal. This is STILL a nation of laws, whether you admit it or not. 	en	14430	879	5756	mmpadellan	2020-07-15T23:21:35.000Z	792	4,642				
1283133434437734400	58	Darkside	We ride with @BubbaWallace ((🏁)) 	en	7334	2124	1343	CashApp	2020-07-14T20:17:04.000Z	792	4,642				
1282806428923830274	58	Darkside	Doing something I haven’t done in YEARS (24 years) #gleamingthecube 	en	25	5	0		2020-07-13T22:37:40.000Z	792	4,642				
1282709632499306496	58	Darkside	President Trump is attacking science. He is denying reality and jeopardizing public health. It is gross negligence. 	en	127083	13360	27569	NYGovCuomo	2020-07-13T16:13:02.000Z	792	4,642				
1278847580965756929	58	Darkside	Americans under Donald Trump have been banned from entering into Europe. Because we are diseased. Yes my friends, in 3 short years this reality show clown has turned us into a ‘Shithole Country’. 	en	146490	2624	31238	perlmutations	2020-07-03T00:26:37.000Z	792	4,642				
1279039139267194880	58	Darkside	Wearing a mask is about respect. It shows you stand up when it counts. It shows you have joined the battle. It shows you care about your country. I can’t think of a more patriotic thing. 	en	94944	6249	18642	NYGovCuomo	2020-07-03T13:07:48.000Z	792	4,642				
1278429376875503623	58	Darkside	Wearing a mask is a sign of toughness. Of resolve. A sign of someone who gives a damn. Who wants to solve a problem. Who takes responsibility. I think that’s a beautiful thing. 	en	115671	12978	24819	GavinNewsom	2020-07-01T20:44:50.000Z	792	4,642				
1277698709279694850	58	Darkside	When will all the wrongful death suits be filed against the trump administration!?! #WearAMask #WorstPresidentInHistory 	en	11	0	2		2020-06-29T20:21:25.000Z	792	4,642				
1277354782227722240	58	Darkside	At this point, wearing a Mask in public is more of an IQ test.. 	en	619343	4928	118440	FINALLEVEL	2020-06-28T21:34:46.000Z	792	4,642				
1277309677911420929	58	Darkside	Trump retweet’s a white man screaming WHITE POWER and you’re gonna vote for that? And you’re OFFENDED that you OFFEND ME????? ((🖕🏽)) #RacistInChief 	en	153211	2472	22179	Pink	2020-06-28T18:35:33.000Z	792	4,642				
1276891652569866245	58	Darkside	In the middle of a global pandemic, the Trump admin wants the Supreme Court to strike down the entire Affordable Care Act. They have no plans to replace it. 20 million Americans will lose their health care. It's morally bankrupt and reckless. 	en	48640	2490	11842	NYGovCuomo	2020-06-27T14:54:28.000Z	792	4,642				
1276329989554810881	58	Darkside	Found this oldie @twitter shirt in my dresser. Circa 2006 I think. #ThrowbackThursday 	en	43	2	4		2020-06-26T01:42:37.000Z	792	4,642				https://pbs.twimg.com/media/EbZvW80X0AARO-e?format=jpg&amp;name=360x360
1276285305528737792	58	Darkside	Washington DC and Puerto Rico should be states. PASS IT ON. 	en	39564	779	11790	mmpadellan	2020-06-25T22:45:03.000Z	792	4,642				
1276246112614199296	58	Darkside	“Snatch back your brain zombie!” 	en	2	0	0		2020-06-25T20:09:19.000Z	792	4,642				
1276189351341326340	58	Darkside	It’s easy and it’s not only about you it’s about protecting you fellow humans. Love thy Nieghbor! Be a hero! 	en	35	2	3		2020-06-25T16:23:46.000Z	792	4,642				
1275188811128078338	58	Darkside	We couldn't agree more, @TwitterSports . 	en	4185	52	393	NASCAR	2020-06-22T22:07:59.000Z	792	4,642				https://pbs.twimg.com/media/EbJhHQ7WsAge5xH?format=png&amp;name=360x360
1274767043028549632	58	Darkside			224536	145	148463	engineering_bae	2020-06-21T18:12:01.000Z	792	4,642				https://pbs.twimg.com/media/EbDh3hCWkAAgiYr?format=jpg&amp;name=360x360
1274721364256178176	58	Darkside	Happy Father’s Day thank you for showing us what a great dad is supposed to be like!! Love you @Tim535353 #FathersDay 	en	92	6	5		2020-06-21T15:10:31.000Z	792	4,642				https://pbs.twimg.com/media/EbC4UqxX0AENACo?format=jpg&amp;name=360x360
1270366524969123840	58	Darkside	“Make every detail perfect and limit the number of details to perfect.”—Jack Dorsey @jack . Love such clarity. More powerful than pragmatists will ever recognize 	en	878	13	148	vkhosla	2020-06-09T14:45:56.000Z	792	4,642				
1268559506809786368	58	Darkside	White supremacy won’t die until White people see it as a White issue they need to solve rather than a Black issue they need to empathize with. 	en	100454	402	44004	TeachMrReed	2020-06-04T15:05:29.000Z	792	4,642				
1268827422469873664	58	Darkside	As I finally lay down for bed my heart is filled with joy! My city will see brighter days. Together we will win! #STLMade 	en	234	7	33	RepSheenBean	2020-06-05T08:50:05.000Z	792	4,642				https://pbs.twimg.com/media/EZvHzPpWoAA0ENO?format=jpg&amp;name=240x240 https://pbs.twimg.com/media/EZvHzP0XkAEe5ZK?format=jpg&amp;name=240x240 https://pbs.twimg.com/media/EZvHzPyWsAEaauG?format=jpg&amp;name=240x240 https://pbs.twimg.com/media/EZvHzPyXsAUf_yT?format=jpg&amp;name=240x240
1268632374197268480	58	Darkside	Stan's Soapbox, 1968. 	en	27875	179	10098	TheRealStanLee	2020-06-04T19:55:02.000Z	792	4,642				https://pbs.twimg.com/media/EZsWa8VXgAEX5fr?format=jpg&amp;name=small
1268613622227505155	58	Darkside	This!!! 	en	36	6	9		2020-06-04T18:40:31.000Z	792	4,642				
1267816037992587264	58	Darkside			15	0	3		2020-06-02T13:51:12.000Z	792	4,642				https://pbs.twimg.com/media/EZgv9reU0AUJxEu?format=jpg&amp;name=small
1267628195802517504	58	Darkside	Thank you Bernard Shaw. 	en	309	10	94	kenjeong	2020-06-02T01:24:47.000Z	792	4,642		blob:https://twitter.com/b7b51cce-a8aa-4a38-8fb1-ea8d0446913e	https://pbs.twimg.com/media/EZdyKVDWsAgEevw.jpg	
1267228955733626880	58	Darkside	This! 	en	10	1	0		2020-05-31T22:58:21.000Z	792	4,642				
1267154755333369857	58	Darkside	Black lives matter. 	en	104	3	24	IFC	2020-05-31T18:03:30.000Z	792	4,642				https://pbs.twimg.com/media/EZXWc5pWkAAx_2i?format=jpg&amp;name=360x360
1266829242353893376	58	Darkside	To be silent is to be complicit. Black lives matter. We have a platform, and we have a duty to our Black members, employees, creators and talent to speak up. 	en	1097157	8698	229227	netflix	2020-05-30T20:30:02.000Z	792	4,642				
1266441271754788864	58	Darkside			24	1	10	andyvitale	2020-05-29T18:48:23.000Z	792	4,642				https://pbs.twimg.com/media/EZNNjagWsAUqGmI?format=jpg&amp;name=360x360
1266462259112443905	58	Darkside	I got sorted into Slytherin in the official @wizardingworld Sorting Ceremony. #Slytherin https://www.wizardingworld.com/outcome/slytherin 	en	2	0	0		2020-05-29T20:11:46.000Z	792	4,642		https://video.twimg.com/tweet_video/EZNgtZ4XkAIrK3k.mp4	https://pbs.twimg.com/tweet_video_thumb/EZNgtZ4XkAIrK3k.jpg	
1266419550716719105	58	Darkside	Definitely vote, Missouri: https://www.sos.mo.gov/elections/goVoteMissouri/howtovote#Absentee 	ht	2788	350	524	jack	2020-05-29T17:22:04.000Z	792	4,642				
1265994502789005312	58	Darkside	TODAY join us over lunch for a #virtual roundtable on getting your #mobilecustomerexperience right - and why it's more important than ever. Register now: https://rb.gy/dybi0s #mobileCX #userexperience #mobileappdevelopment #webinar #customerexperience 	en	4	0	3	1904Labs	2020-05-28T13:13:05.000Z	792	4,642				
1266022612452495361	58	Darkside	Happy birthday @MarketingMyWay 	en	3	1	1		2020-05-28T15:04:47.000Z	792	4,642		https://video.twimg.com/tweet_video/EZHQ2UyWoAEld7l.mp4	https://pbs.twimg.com/tweet_video_thumb/EZHQ2UyWoAEld7l.jpg	
1265754693394993152	58	Darkside	"What happened to that American spirit?" While visiting Washington, D.C. on Wednesday, New York Gov. Andrew Cuomo slammed the "toxic" and "hyper-partisan" reactions from lawmakers who don't want to help other states during the pandemic. https://cbsn.ws/2B3mTi9 	en	9055	817	3005	CBSNews	2020-05-27T21:20:10.000Z	792	4,642		blob:https://twitter.com/b79f22e0-7a0f-4b06-a3d1-09b8e50d0257	https://pbs.twimg.com/media/EZDdLr1XsAclsls.jpg	
1263639519825403904	58	Darkside	I decided to start rewatching @StarTrek #deepspacenine 	en	12	2	1		2020-05-22T01:15:13.000Z	792	4,642		https://video.twimg.com/tweet_video/EYlZcUSWsAM5lMn.mp4	https://pbs.twimg.com/tweet_video_thumb/EYlZcUSWsAM5lMn.jpg	
1263418248508342272	58	Darkside			7390	24	1905	archillect	2020-05-21T10:35:58.000Z	792	4,642				https://pbs.twimg.com/media/EYiQM4FXQAIh7Dc?format=jpg&amp;name=360x360
1261918760702824454	58	Darkside			16383	37	4296	archillect	2020-05-17T07:17:32.000Z	792	4,642				https://pbs.twimg.com/media/EYM8bKIWsAE2rSq?format=jpg&amp;name=360x360
1261801788916879360	58	Darkside	A little bit of calm before the rain. 	en	39	5	1		2020-05-16T23:32:44.000Z	792	4,642				https://pbs.twimg.com/media/EYLSCOTXsAAmQRV?format=jpg&amp;name=360x360
1261336330933600259	58	Darkside			8001	26	1701	archillect	2020-05-15T16:43:10.000Z	792	4,642				https://pbs.twimg.com/media/EYEqtSPWoAAP9hR?format=jpg&amp;name=360x360
1259474206548537345	58	Darkside	Happy Mother’s Day!! You always knew the proper time to tell people who were terrified of heights, stories about people falling off tops of mountains ((Rolling on the floor laughing)) I love you mom @marciadorsey #MothersDay ((Camera with flash)) : @Tim535353 	en	50	5	5		2020-05-10T13:23:45.000Z	792	4,642				https://pbs.twimg.com/media/EXqNHLAXQAAVzVD?format=jpg&amp;name=360x360
1259145218147995650	58	Darkside	Happy barfday @jeffroatlarge 	en	8	2	0		2020-05-09T15:36:28.000Z	792	4,642		https://video.twimg.com/tweet_video/EXlh5VEXgAAtIzQ.mp4	https://pbs.twimg.com/tweet_video_thumb/EXlh5VEXgAAtIzQ.jpg	
1257687779569516545	58	Darkside	#Music unites us even while apart. To that end, join us Mon, 5/11 at 8pm, for a #liveconcert by @BethBombara , local Missourian and award-winning vintage folk musician, brought to you by @LiftingtheLou and @1904Labs . 100% of donations from the event will go to @MissionStLouis . 	en	6	0	5	LiftingtheLou	2020-05-05T15:05:08.000Z	792	4,642				https://pbs.twimg.com/media/EXQ0No_XkAYtOLW?format=png&amp;name=360x360
1257687994410156036	58	Darkside	#Music unites us even while apart. To that end, join us Mon, 5/11 at 8pm, for a #liveconcert by @BethBombara , local Missourian and award-winning vintage folk musician, brought to you by @LiftingtheLou and @1904Labs . 100% of donations from the event will go to @MissionStLouis . 	en	13	0	8	1904Labs	2020-05-05T15:05:59.000Z	792	4,642				https://pbs.twimg.com/media/EXQ0j-wXsAgJmN0?format=png&amp;name=360x360
1256991364149116929	58	Darkside	It’s a simple ask! I will wear a mask to honor them! #HealthcareHeroes 	en	20	1	4		2020-05-03T16:57:49.000Z	792	4,642				
1256922023995084801	58	Darkside	Happy birthday dad love you @Tim535353 	en	66	4	0		2020-05-03T12:22:17.000Z	792	4,642				https://pbs.twimg.com/media/EXF76sUXQAcjycX?format=jpg&amp;name=360x360
1255463846027894788	58	Darkside	Pence’s failure to wear a mask sets a horrible example and underlines a largely unspoken problem: the idea that REAL MEN DON’T WEAR FACEMASKS. Going barefaced isn’t macho; it’s stupid. 	en	94424	2890	14459	StephenKing	2020-04-29T11:48:00.000Z	792	4,642				
1255490789754449922	58	Darkside	HCDAGILE for Data Projects ***Virtual Meetup*** TOMORROW Thursday, April 30th Noon-1pm CST https://1904labs.com/our-culture/events/hcdagile-for-data-virtual-meetup/ #data #ux #hcd #agile #hcdagile #meetup @1904Labs @Darkside @LauraT1904Labs @loistweet @dgcooley @andyvitale @chrisfeix @davegray @nrose @indiyoung #virtual #rt 	en	5	0	3	marthavalenta	2020-04-29T13:35:04.000Z	792	4,642				
1255161560953171968	58	Darkside	Happy birthday little brother I love you @andrew 	en	68	7	5		2020-04-28T15:46:50.000Z	792	4,642				https://pbs.twimg.com/media/EWs6yOCXsAEZLXM?format=jpg&amp;name=360x360
1253794862924734467	58	Darkside	Can we move November’s vote to next week? 	en	26	1	4		2020-04-24T21:16:04.000Z	792	4,642				
1253760000016580610	58	Darkside	CORE’s open source #COVID19 testing playbook for local and state governments, NGOs, and community orgs. All their learnings from administering tests in California. Also: Sean Penn is an incredible human and warrior. https://static1.squarespace.com/static/5c61c6ea01232c3fff66df40/t/5ea3030df506d755a7b174ad/1587741476158/SMALL_CORE_+COVID-19+Response+Manual+copy.pdf 	en	578	84	128	jack	2020-04-24T18:57:32.000Z	792	4,642				
1253710953780146176	58	Darkside	For all we know it's only halftime. How fast the infection goes down depends on what we do now. If we rush back to business as usual the virus will spike fast and furious. We have to be smart. 	en	18365	685	3021	NYGovCuomo	2020-04-24T15:42:38.000Z	792	4,642				
1253700694625968129	58	Darkside	not sure why we need to be the ones to tell you this, but don’t drink bleach. 	en	15622	715	4288	BurgerKing	2020-04-24T15:01:52.000Z	792	4,642				
1250920494305554432	58	Darkside	Are thieves essential workers? #STLCITY #CherokeeST @SLMPD 	en	17	6	3		2020-04-16T22:54:21.000Z	792	4,642		blob:https://twitter.com/de5626e1-b498-40e5-8801-5008f698ad6b	https://pbs.twimg.com/ext_tw_video_thumb/1250920460482678785/pu/img/uSM1fLm5oFe-GK-2.jpg	
1248389592832598024	58	Darkside	((Blue heart)) ((Folded hands)) ((Man bowing deeply)) . ((Woman health worker)) ((Health worker)) ((Man health worker)) . #LightItBlue 	und	10	0	1		2020-04-09T23:17:27.000Z	792	4,642				
1248352853653164035	58	Darkside	The generations that stormed the beaches and marched for civil rights are most at risk right now. They're asking you to sacrifice by staying home. Do you part. 	en	14677	355	3725	NYGovCuomo	2020-04-09T20:51:28.000Z	792	4,642		blob:https://twitter.com/c7ddb903-1202-41f4-9312-631fbef8e761	https://pbs.twimg.com/amplify_video_thumb/1248349108538150913/img/bEzpGqlGwsYnEKYf.jpg	
1247619403459571712	58	Darkside	I’ve been looking up to this guy my whole life! I’m so proud and thankful for you big brother, you never cease to amaze me! ((Red heart)) 	en	235	9	20		2020-04-07T20:17:00.000Z	792	4,642				
1245906821656858624	58	Darkside	This is why I love my city of #StLouiscity 	en	75	4	15		2020-04-03T02:51:48.000Z	792	4,642				
1243927721304109056	58	Darkside	Great recognition from @BrookingsInst of the groundbreaking, LOCAL work happening at @CortexSTL in the fight against #COVID19 . In @STLCityGov we are fortunate to have institutions like @SLU_Official working toward infectious disease vaccines. #stlmade 	en	54	0	17	LydaKrewson	2020-03-28T15:47:34.000Z	792	4,642				
1243256628809322496	58	Darkside	People need help immediately. The technology exists to get money to most people today (even to those without bank accounts). Square and many of our peers can get it done. US government: let us help. 	en	25246	1548	6031	jack	2020-03-26T19:20:53.000Z	792	4,642				
1243213522030510081	58	Darkside	Get it Markers!!!!! ((Green heart)) 	en	6	1	0		2020-03-26T16:29:36.000Z	792	4,642				
1241019979408998401	58	Darkside	While working from home I have the tv on. This morning’s background movie “Stand And Deliver” it’s on @STARZ 	en	5	1	0		2020-03-20T15:13:14.000Z	792	4,642		https://video.twimg.com/tweet_video/ETj9FydX0AAJHUk.mp4	https://pbs.twimg.com/tweet_video_thumb/ETj9FydX0AAJHUk.jpg	
1240131226268323842	58	Darkside	What a damning indictment of Fox News from the Post video team here. 	en	198148	6690	107957	KFILE	2020-03-18T04:21:39.000Z	792	4,642		blob:https://twitter.com/56cefe36-9191-4dec-93df-0b731dc44c30	https://pbs.twimg.com/media/ETWC4iBWAAYhc7E.jpg	
1240056993290821640	58	Darkside	Today, @realdonaldtrump said: “I’ve always known this is a pandemic. I’ve felt that it was a pandemic long before it was called a pandemic ... I’ve always viewed it as serious.” Really??? Let’s roll the tape. 	en	101786	3844	66395	jheil	2020-03-17T23:26:41.000Z	792	4,642		blob:https://twitter.com/cab3007f-ef4f-4f54-881d-e9754268ac89	https://pbs.twimg.com/media/ETWTyuVXgAA6vOq.jpg	
1240090203185963008	58	Darkside	@mikeparson we are trying to leave a voice mail but you mail box is full. You should figure that out! 	en	165	10	118	4HandsBrewingCo	2020-03-18T01:38:38.000Z	792	4,642				
1239660248207589383	58	Darkside	Here's an unexpected side effect of the pandemic - the water's flowing through the canals of Venice is clear for the first time in forever. The fish are visible, the swans returned. 	en	980020	5508	301520	ikaveri	2020-03-16T21:10:09.000Z	792	4,642				https://pbs.twimg.com/media/ETQoZK7U8AAX0r9?format=jpg&amp;name=240x240 https://pbs.twimg.com/media/ETQoaPPUEAA24iL?format=jpg&amp;name=240x240 https://pbs.twimg.com/media/ETQoZwwUcAAw6kx?format=jpg&amp;name=240x240 https://pbs.twimg.com/media/ETQoa4WUYAA1mRB?format=jpg&amp;name=240x240
1239811583938879497	58	Darkside	“stigma to be honest, is more dangerous then the virus itself!” 	en	12	1	0		2020-03-17T07:11:30.000Z	792	4,642				
1236719131791167488	58	Darkside	Great day for south city stoop sit’n #StLouisCity 	en	22	2	0		2020-03-08T18:23:12.000Z	792	4,642				https://pbs.twimg.com/media/ESm1fNgXQAYIzeo?format=jpg&amp;name=360x360
1235064764713201665	58	Darkside	With the historic Lemp Brewery as a backdrop the lines of this car really demand your focus. Nicely done @Tesla #modelXp100d wrapped by @stlautodetail1 ((Sign of the horns)) ((Battery)) 	en	22	2	0		2020-03-04T04:49:20.000Z	792	4,642				https://pbs.twimg.com/media/ESPU2m3X0AEgiPs?format=jpg&amp;name=360x360
1234620769155592194	58	Darkside			5	0	0		2020-03-02T23:25:04.000Z	792	4,642				https://pbs.twimg.com/media/ESJBA0sWsAY1Z6Z?format=jpg&amp;name=240x240 https://pbs.twimg.com/media/ESJBA0tXkAAZqnT?format=jpg&amp;name=240x240 https://pbs.twimg.com/media/ESJBA0tW4AAUdvX?format=jpg&amp;name=240x240 https://pbs.twimg.com/media/ESJBA0tW4AIgPwM?format=jpg&amp;name=240x240
1293140858611671041	59	Tim535353	GoodMorning 	en	11	4	1		2020-08-11T11:03:00.000Z	2,711	8,476				
1293011355604221952	59	Tim535353	GoodNight 	en	9	2	0		2020-08-11T02:28:24.000Z	2,711	8,476				
1292780101520809984	59	Tim535353	GoodMorning 	en	13	4	1		2020-08-10T11:09:29.000Z	2,711	8,476				
1292648890815205381	59	Tim535353	GoodNight 	en	14	3	1		2020-08-10T02:28:06.000Z	2,711	8,476				
1292453242882985985	59	Tim535353	Olio to host dinner to provide disaster relief in Beirut, Lebanon https://bit.ly/3gUSX8h 	en	3	0	2	stlmag_dining	2020-08-09T13:30:40.000Z	2,711	8,476				https://pbs.twimg.com/media/Ee-3PJQWkAE7-tA?format=jpg&amp;name=360x360
1292426254898135040	59	Tim535353	GoodMorning 	en	22	7	1		2020-08-09T11:43:25.000Z	2,711	8,476				
1292282071151411211	59	Tim535353	GoodNight 	en	12	5	0		2020-08-09T02:10:29.000Z	2,711	8,476				
1292216012394422277	59	Tim535353	Congrats 	en	8	3	1		2020-08-08T21:48:00.000Z	2,711	8,476				
1292092827506225152	59	Tim535353	GoodMorning 	en	19	6	2		2020-08-08T13:38:30.000Z	2,711	8,476				
1291936149829824513	59	Tim535353	GoodNight 	en	11	6	1		2020-08-08T03:15:55.000Z	2,711	8,476				
1291437439630708736	59	Tim535353	Introducing Talking Squarely, candid conversations with business owners about the issues impacting their lives, from navigating the pandemic to the changing rules of commerce. Listen wherever you get your podcasts. 	en	376	48	110	Square	2020-08-06T18:14:14.000Z	2,711	8,476				
1291686007209959432	59	Tim535353	GoodMorning 	en	18	6	2		2020-08-07T10:41:57.000Z	2,711	8,476				
1291561817966288896	59	Tim535353	GoodNight 	en	12	6	0		2020-08-07T02:28:28.000Z	2,711	8,476				
1291405157838684160	59	Tim535353	When it comes to conversations with government and state-affiliated media accounts on Twitter, we’re helping to make the experience more transparent. We'll now use two distinct profile labels for these types of accounts, so you can easily identify them and their Tweets. (1/2) 	en	6941	617	2827	TwitterSupport	2020-08-06T16:05:57.000Z	2,711	8,476				
1291337744669708288	59	Tim535353	GoodMorning 	en	18	5	1		2020-08-06T11:38:04.000Z	2,711	8,476				
1291207491146133507	59	Tim535353	GoodNight 	en	14	3	0		2020-08-06T03:00:30.000Z	2,711	8,476				
1291101710757371905	59	Tim535353	We are all awesome. That's it, that's the tweet. Pass it along. 	en	61	0	8	helenjstoddard	2020-08-05T20:00:10.000Z	2,711	8,476				
1290986569114025985	59	Tim535353	GoodMorning @carlquintanilla 	en	7	2	0		2020-08-05T12:22:38.000Z	2,711	8,476				
1290972847263961088	59	Tim535353	GoodMorning 	en	19	4	1		2020-08-05T11:28:06.000Z	2,711	8,476				
1290835982187663364	59	Tim535353	GoodNight 	en	14	3	2		2020-08-05T02:24:15.000Z	2,711	8,476				
1290598601857671172	59	Tim535353	GoodMorning 	en	18	5	1		2020-08-04T10:40:59.000Z	2,711	8,476				
1290469929054076928	59	Tim535353	GoodNight 	en	13	2	1		2020-08-04T02:09:41.000Z	2,711	8,476				
1290246908502396932	59	Tim535353	GoodMorning 	en	19	5	1		2020-08-03T11:23:29.000Z	2,711	8,476				
1290121330965192706	59	Tim535353	GoodNight 	en	10	2	0		2020-08-03T03:04:29.000Z	2,711	8,476				
1290004579862667264	59	Tim535353	. @AstroBehnken and @Astro_Doug have been lifted out of the water and are aboard the Go Navigator. Welcome home. #LaunchAmerica 	en	48831	518	10011	NASA	2020-08-02T19:20:33.000Z	2,711	8,476		blob:https://twitter.com/97c27595-daf3-4410-bb8f-d6af9334efa5	https://pbs.twimg.com/amplify_video_thumb/1290004183135870981/img/Js2ZUx6iF6YqbRRI.jpg	
1289881973813460993	59	Tim535353	GoodMorning 	en	15	5	0		2020-08-02T11:13:22.000Z	2,711	8,476				
1289763761666981890	59	Tim535353	GoodNight 	en	14	3	0		2020-08-02T03:23:38.000Z	2,711	8,476				
1289671453248552966	59	Tim535353	LIVE: They're coming home. #LaunchAmerica crew @AstroBehnken &amp; @Astro_Doug depart the @Space_Station aboard the @SpaceX Crew Dragon Endeavour, ahead of splashdown on Sunday, Aug. 2. Watch: https://twitter.com/i/broadcasts/1LyxBabggNyJN 	en	7529	226	3539	NASA	2020-08-01T21:16:50.000Z	2,711	8,476				
1289709384512274432	59	Tim535353	The view from inside the @SpaceX Dragon Endeavour, as @AstroBehnken &amp; @Astro_Doug monitor their departure from @Space_Station : 	en	20442	370	2896	NASA	2020-08-01T23:47:33.000Z	2,711	8,476		blob:https://twitter.com/ff7bed1d-f41e-4999-9849-bd65e53d6ea3	https://pbs.twimg.com/amplify_video_thumb/1289708473282748416/img/lTH_ioXosT9pj-YC.jpg	
1289705635186012160	59	Tim535353	Undocking sequence initiated for an on time departure at 7:34 p.m. EDT http://spacex.com/launches 	en	7122	67	1070	SpaceX	2020-08-01T23:32:39.000Z	2,711	8,476		blob:https://twitter.com/848ce51e-150c-4ac2-8310-2f033f2ff33b	https://pbs.twimg.com/amplify_video_thumb/1289705327093399552/img/-V09i-FlZ6RGoBm4.jpg	
1289260110913495042	59	Tim535353	Chinese fishing vessels looting seas around Galápagos Islands and endangering marine life. https://inews.co.uk/news/world/foreign-ships-china-looting-seas-galapagos-islands-sharks-hammer-head-ecuador-568381 #SOSGalapagos 	en	163	11	178	Seasaver	2020-07-31T18:02:18.000Z	2,711	8,476				
1289564260436045824	59	Tim535353	((🚨)) Happening today: @ulstl and @SLPS_INFO are hosting another food &amp; toiletries distribution drive-thru for families and individuals in need during #covid19 pandemic. It’s at 1330 Aubert Ave starting at noon. Free school supplies will also be available! 	en	26	5	17	LydaKrewson	2020-08-01T14:10:53.000Z	2,711	8,476				https://pbs.twimg.com/media/EeVz2_CXgAIQ0Qk?format=jpg&amp;name=360x360
1289529319304228864	59	Tim535353	GoodMorning 	en	15	5	0		2020-08-01T11:52:02.000Z	2,711	8,476				
1289387973545320448	59	Tim535353	GoodNight 	en	10	2	0		2020-08-01T02:30:23.000Z	2,711	8,476				
1289165318795993089	59	Tim535353	GoodMorning 	en	15	4	1		2020-07-31T11:45:38.000Z	2,711	8,476				
1289027127203987459	59	Tim535353	GoodMorning &amp; now GoodNight 	en	18	3	0		2020-07-31T02:36:30.000Z	2,711	8,476				
1288660231401156609	59	Tim535353	GoodNight 	en	14	2	0		2020-07-30T02:18:35.000Z	2,711	8,476				
1288427797317386240	59	Tim535353	GoodMorning 	en	12	8	1		2020-07-29T10:54:59.000Z	2,711	8,476				
1288302828356866048	59	Tim535353	GoodNight 	en	9	2	0		2020-07-29T02:38:24.000Z	2,711	8,476				
1288075668929028096	59	Tim535353	GoodMorning 	en	20	4	1		2020-07-28T11:35:45.000Z	2,711	8,476				
1287939520550309888	59	Tim535353	GoodNight 	en	10	3	0		2020-07-28T02:34:45.000Z	2,711	8,476				
1287924905103765511	59	Tim535353	Friends, @adamtbailey needs 17 more follows to reach his goal for 2020. Can you spare a follow for this delightful Tweep? 	en	10	4	3	helenjstoddard	2020-07-28T01:36:40.000Z	2,711	8,476				
1287705570015928320	59	Tim535353	GoodMorning 	en	15	4	1		2020-07-27T11:05:06.000Z	2,711	8,476				
1287585202173366272	59	Tim535353	GoodNight 	en	14	4	0		2020-07-27T03:06:49.000Z	2,711	8,476				
1287217494885834753	59	Tim535353	GoodNight 	en	13	1	0		2020-07-26T02:45:40.000Z	2,711	8,476				
1286980647878299650	59	Tim535353	GoodMorning 	en	17	3	0		2020-07-25T11:04:32.000Z	2,711	8,476				
1286849280871989248	59	Tim535353	GoodNight 	en	6	2	0		2020-07-25T02:22:31.000Z	2,711	8,476				
1286618104672464896	59	Tim535353	GoodMorning 	en	19	2	1		2020-07-24T11:03:55.000Z	2,711	8,476				
1286485244808437760	59	Tim535353	GoodNight 	en	12	1	0		2020-07-24T02:15:58.000Z	2,711	8,476				
1286404109625516033	59	Tim535353	@Square is trailblazing in an awesome way. There are now more women than men on the Square executive team (5 women to 3 men). Might be the highest market cap company to hold this honor. Kudos @jack and team! 	en	145	5	11	gokulr	2020-07-23T20:53:34.000Z	2,711	8,476				
1286286327638642688	59	Tim535353	"We were really pleased that the big surge we saw in March was able to hold all through the second quarter," says @NedSegal on $TWTR user growth. 	en	112	11	35	SquawkCNBC	2020-07-23T13:05:33.000Z	2,711	8,476		blob:https://twitter.com/13635a13-c7a2-4d99-9a00-d9a007941c7d	https://pbs.twimg.com/media/EdnOl8YWAAAwThP.jpg	
1286075918109167616	59	Tim535353	Might be more like 847am EDT but looking forward nonetheless! 	en	200	15	6	nedsegal	2020-07-22T23:09:27.000Z	2,711	8,476				
1286263535828271104	59	Tim535353	You can listen to the @twitter Q2 2020 earnings call here... 	en	74	3	9	nedsegal	2020-07-23T11:34:59.000Z	2,711	8,476				
1286255710938906624	59	Tim535353	Twitter’s Q2’20 shareholder letter is now available. Read it here: http://investor.twitterinc.com $TWTR 	en	76	2	20	TwitterIR	2020-07-23T11:03:53.000Z	2,711	8,476				
1286247938851770368	59	Tim535353	GoodMorning 	en	17	4	1		2020-07-23T10:33:00.000Z	2,711	8,476				
1286125626055892993	59	Tim535353	GoodNight 	en	8	1	0		2020-07-23T02:26:58.000Z	2,711	8,476				
1285895286502690816	59	Tim535353	GoodMorning 	en	18	5	1		2020-07-22T11:11:41.000Z	2,711	8,476				
1285763644450578434	59	Tim535353	GoodNight 	en	10	1	0		2020-07-22T02:28:35.000Z	2,711	8,476				
1284584098519015427	59	Tim535353	It's been reported to us that hundreds of Chinese fishing vessels are currently forming a line below the Galapagos Islands. We are watching the destruction of the ocean in real time. https://www.marinetraffic.com/en/ais/home/centerx:-87.9/centery:-3.3/zoom:6 	en	1256	147	1863	Seasaver	2020-07-18T20:21:30.000Z	2,711	8,476				https://pbs.twimg.com/media/EdPBFCAXsAUtp-w?format=jpg&amp;name=360x360
1285531680636309504	59	Tim535353	GoodMorning 	en	11	3	1		2020-07-21T11:06:51.000Z	2,711	8,476				
1285409844267286528	59	Tim535353	GoodNight 	en	10	1	0		2020-07-21T03:02:43.000Z	2,711	8,476				
1285174840564097024	59	Tim535353	GoodMorning 	en	17	6	1		2020-07-20T11:28:54.000Z	2,711	8,476				
1285035011444543488	59	Tim535353	GoodNight 	en	9	2	0		2020-07-20T02:13:16.000Z	2,711	8,476				
1284834369799180289	59	Tim535353	GoodMorning 	en	19	5	2		2020-07-19T12:55:59.000Z	2,711	8,476				
1284690808990564354	59	Tim535353	GoodNight 	en	12	3	0		2020-07-19T03:25:31.000Z	2,711	8,476				
1284462282152521728	59	Tim535353	Nice 	en	3	0	0		2020-07-18T12:17:26.000Z	2,711	8,476				
1284448033892073474	59	Tim535353	GoodMorning 	en	22	7	1		2020-07-18T11:20:49.000Z	2,711	8,476				
1284310470334308356	59	Tim535353	GoodNight 	en	11	4	0		2020-07-18T02:14:12.000Z	2,711	8,476				
1284083436471365634	59	Tim535353	GoodMorning 	en	14	7	1		2020-07-17T11:12:03.000Z	2,711	8,476				
1283959398977736704	59	Tim535353	GoodNight 	en	13	4	0		2020-07-17T02:59:10.000Z	2,711	8,476				
1283723210488451072	59	Tim535353	GoodMorning 	en	18	5	1		2020-07-16T11:20:38.000Z	2,711	8,476				
1283604012655357952	59	Tim535353	GoodNight 	en	13	2	0		2020-07-16T03:26:59.000Z	2,711	8,476				
1283346989611188225	59	Tim535353	GoodMorning 	en	16	5	1		2020-07-15T10:25:40.000Z	2,711	8,476				
1283221582031335430	59	Tim535353	GoodNight 	en	9	2	0		2020-07-15T02:07:20.000Z	2,711	8,476				
1283001565738147840	59	Tim535353	GoodMorning 	en	20	6	2		2020-07-14T11:33:04.000Z	2,711	8,476				
1282857919906799616	59	Tim535353	GoodNight 	en	13	3	0		2020-07-14T02:02:17.000Z	2,711	8,476				
1280272301083119616	60	andrew	"Is This Heaven? No, It's Iowa." The @MLB Field of Dreams game between the @Cardinals and @whitesox is set for August 13 on FOX! 	en	5473	108	1327	MLBONFOX	2020-07-06T22:47:57.000Z	612	8,161				https://pbs.twimg.com/media/EcRwWf_UcAEZ6C2?format=jpg&amp;name=360x360
1178686797330735104	60	andrew	Countdown to Puck Drop: ((2️⃣)) Days The number of players in NHL history to win the Conn Smythe Trophy and the Frank J. Selke Trophy in the same season? Two. Bob Gainey in 1978-79 with the Montreal Canadiens and Ryan O’Reilly in 2018-19 with the . 	en	669	3	101	StLouisBlues	2019-09-30T15:03:26.000Z	612	8,161				https://pbs.twimg.com/media/EFuJZDHXYAAJZn3?format=jpg&amp;name=360x360
1177661662272348161	60	andrew	JUST IN: Kanye West will bring “Jesus Is King: A Kanye West Experience” to #TheFox tonight at 8PM. Guests are encouraged to arrive early. Doors open at 6:30PM. Tickets are free, general admission and only available via http://Ticketmaster.com . 	en	10016	389	4510	FoxTheatreDet	2019-09-27T19:09:54.000Z	612	8,161				https://pbs.twimg.com/media/EFflCdcXoAQwJgj?format=jpg&amp;name=360x360
1177370488613552128	60	andrew	CAN'T WAIT FOR DONNYBASH! #DonnybrookSTL 	en	13	0	2	aurorabihler	2019-09-26T23:52:53.000Z	612	8,161				https://pbs.twimg.com/media/EFbcN16WwAAIMKF?format=jpg&amp;name=360x360
1176623207572484101	60	andrew	Countdown to Puck Drop: ((8️⃣)) Days goaltender Jordan Binnington posted an astounding 8-2 record (1.78 GAA, .937 SV%) following a loss during the 2019 postseason. His 8 wins following a loss tied the single-postseason NHL record. 	en	284	2	32	StLouisBlues	2019-09-24T22:23:27.000Z	612	8,161				https://pbs.twimg.com/media/EFQ0kUoXsAAzXUH?format=jpg&amp;name=360x360
1176580327768231946	60	andrew	A new crew gets ready for launch Wednesday as a Japanese cargo ship orbits Earth on its way to resupply the station. Read more... https://go.nasa.gov/2kS2gOf 	en	1131	26	219	Space_Station	2019-09-24T19:33:04.000Z	612	8,161				https://pbs.twimg.com/media/EFQNkggWsAEX76_?format=jpg&amp;name=360x360
1176504941365649409	60	andrew	We’re still taking applications for teams to compete. Winners get a prize package, bragging rights, great exposure and will commit to helping the non-profit execute on their idea after the event. http://lnkd.in/dVb6WJX 	en	4	0	4	XDThrowdown	2019-09-24T14:33:31.000Z	612	8,161				https://pbs.twimg.com/media/EFPJAUJWwAATfMO?format=jpg&amp;name=360x360
1176000472446066689	60	andrew	Do you have your ticket for the STLX 2019 Conference? Get it now: http://www.stlx.org/stlx2019 SPEAKER SPOTLIGHT: @chrisfeix This is a Pecha Kucha from Chris' "Make a Difference Tomorrow" series. It's all about increasing conversion rates immediately by redesigning your forms. 	en	5	0	5	stlxcon	2019-09-23T05:08:56.000Z	612	8,161				https://pbs.twimg.com/media/EFH-MaoXUAAzqFo?format=jpg&amp;name=240x240 https://pbs.twimg.com/media/EFH-ManWsAMHggh?format=jpg&amp;name=240x240
1176152372801875969	60	andrew	STLX 2019 is happening soon! Learn more about the conference and get your tickets at http://www.stlx.org/stlx2019 today! 	en	1	0	1	XDThrowdown	2019-09-23T15:12:32.000Z	612	8,161				
1174483285881348096	60	andrew	After 2: Blues - 1 Caps - 1 	en	106	1	8	StLouisBlues	2019-09-19T00:40:10.000Z	612	8,161				https://pbs.twimg.com/media/EEyaMfuW4AERGFi?format=jpg&amp;name=360x360
854724195732926464	60	andrew	Wanna watch / #chat along with the #RizzShow ? Here is the #Live #Webcams #ChatRoom : https://www.youtube.com/c/1057thepoint/live 	en	114	92	29	RizzShow	2017-04-19T15:51:42.000Z	612	8,161				
1172522421963972609	60	andrew	He's in paradise now. Rest In Peace Eddie Money ((😢)) #TwoTicketsToParadise #BabyHoldOn #TakeMeHomeTonight #EddieMoney 	en	8	3	8	TouchTunes	2019-09-13T14:48:24.000Z	612	8,161				https://pbs.twimg.com/media/EEWi7W7XUAAQ_uI?format=jpg&amp;name=360x360
1171566522826838020	60	andrew	Waving at West Virginia ((👋)) @AstroDrewMorgan shares his family's story and connection to @WestVirginiaU . If you live in the Mountain State, set your alarm to wave back! The station will fly over tomorrow, Sept. 11, at 5:44 am ET. Learn how to spot it: http://spotthestation.nasa.gov 	en	817	17	129	Space_Station	2019-09-10T23:30:00.000Z	612	8,161		blob:https://twitter.com/fee2a0fe-47c8-42a4-8bb6-80a808b5004e	https://pbs.twimg.com/media/EEIj1b6U8AEwiIw.jpg	
1171495042705317888	60	andrew	Buy your tickets for the #xdthrowdown NOW!!! https://tix.xdthrowdown.com/ #designforacause #DesignThinking #xdthrowdown 	en	8	0	7	XDThrowdown	2019-09-10T18:45:58.000Z	612	8,161				https://pbs.twimg.com/media/EEH8h1ZU0AEcThl?format=jpg&amp;name=360x360
1171231824535797760	60	andrew	ARE YOU READY FOR THE SECOND #xdthrowdown ?!? Come witness two teams of local design thinkers compete to solve another non-profit’s challenge. More information at: http://xdthrowdown.com 	en	7	1	4	LauraT1904Labs	2019-09-10T01:20:02.000Z	612	8,161				https://pbs.twimg.com/media/EEENIWfXkAAXmVn?format=jpg&amp;name=360x360
1170382386879782913	60	andrew	We are out at the Gateway Scholars Classic at East St. Louis High School all day. 4 games. Great student athletes. Plenty of excitement around St. Louis football. #XFLSTLBornAndRaised #ClearedToEngage #XFLSTLCommunity 	en	249	16	44	XFLBattleHawks	2019-09-07T17:04:40.000Z	612	8,161				https://pbs.twimg.com/media/ED4IkwWXsAAPRiC?format=jpg&amp;name=240x240 https://pbs.twimg.com/media/ED4IkwXWwAIAla8?format=jpg&amp;name=240x240 https://pbs.twimg.com/media/ED4IkwXXYAAO-gS?format=jpg&amp;name=240x240
1170284410815614976	60	andrew	((🙏🏽)) ((😞)) 	und	279	0	23	RealDealBeal23	2019-09-07T10:35:21.000Z	612	8,161				
1170108338471866370	60	andrew	Nice 	en	22	0	4	Tim535353	2019-09-06T22:55:42.000Z	612	8,161				
1170086006688833538	60	andrew	it’s friday &amp; you deserve a night out. thegustoband 9pm ((👊🏼)) ((🎶)) #honkytonk #stlouis @ Game 6 HonkyTonk Joint https://www.instagram.com/p/B2FbXmwjEJv/?igshid=a9ramux468zu 	en	4	0	1	game6stl	2019-09-06T21:26:57.000Z	612	8,161				
1170085098793906176	60	andrew	It’s a gorgeous day at #FoodTruckFridaySTL ! Join us @TowerGrovePark until 7:30 p.m.! 	en	7	0	3	SAUCEmag	2019-09-06T21:23:21.000Z	612	8,161				https://pbs.twimg.com/media/EDz6MBLWkAIcNDQ?format=jpg&amp;name=360x360
1169723125791166465	60	andrew	Hey captain, how many days until the home opener? 	en	1319	13	171	StLouisBlues	2019-09-05T21:25:00.000Z	612	8,161		blob:https://twitter.com/8da38426-cc42-4ea6-835c-cc565c34f984	https://pbs.twimg.com/media/EDus_-hXoAAsnhI.jpg	
1169334339672231936	60	andrew	We’re temporarily turning off the ability to Tweet via SMS, or text message, to protect people’s accounts. 	en	2949	532	1799	TwitterSupport	2019-09-04T19:40:06.000Z	612	8,161				
1168966392714055680	60	andrew	Look what came in the mail today, @XFLBattleHawks ! Time to #TakeFlight ! @xfl2020 	en	78	11	10	KenNewhouse1	2019-09-03T19:18:01.000Z	612	8,161				https://pbs.twimg.com/media/EDkAuwwWwAYK-pa?format=jpg&amp;name=360x360
1168629690048942084	60	andrew	We'd like to extend our condolences to the family and friends of Mike Folga, who once served as the Blues' equipment manager. Mike passed away Saturday at 63. 	en	629	8	48	StLouisBlues	2019-09-02T21:00:04.000Z	612	8,161				https://pbs.twimg.com/media/EDfOglxW4AQDM0B?format=jpg&amp;name=360x360
1168261146144641024	60	andrew	3 games...3 comeback wins...all in the last 24 hours! 	en	3297	29	510	Cardinals	2019-09-01T20:35:37.000Z	612	8,161				https://pbs.twimg.com/media/EDZ_UCVXUAAOnFO?format=jpg&amp;name=240x240 https://pbs.twimg.com/media/EDZ_UCVX4AIxHab?format=jpg&amp;name=240x240 https://pbs.twimg.com/media/EDZ_UCeW4AkE7dR?format=jpg&amp;name=240x240
1167929385992671233	60	andrew	Now that you've chosen your favorite team it's time to get tickets to see them play! Secure your tickets here: http://bit.ly/XFLtix ((🎟️)) 	en	330	30	84	xfl2020	2019-08-31T22:37:19.000Z	612	8,161				https://pbs.twimg.com/media/EDVRlNrUEAILFIg?format=jpg&amp;name=360x360
1167458322431303680	60	andrew	Hammerstones today 4-7... come on by and shuttle to the Cards game! @ Hammerstone's @ 9th and Russell https://www.instagram.com/p/B1ywcFuju1y/?igshid=1lo3gb4cehf57 	en	1	0	2	Steve_Reeb	2019-08-30T15:25:29.000Z	612	8,161				
1167156211701211136	60	andrew	This collaboration between @SugarFireSmoke , @MissionTacoSTL , @4HandsBrewingCo , @OldViennaLLC and others is as St. Louis-style as it gets! 	en	40	2	9	kmoxnews	2019-08-29T19:25:00.000Z	612	8,161				
1165365468804321282	60	andrew	Probably the best team photo in the 25-year history of the Blues Special Hockey Club (formerly Gateway Locomotives). 	en	661	6	58	StLouisBlues	2019-08-24T20:49:13.000Z	612	8,161				https://pbs.twimg.com/media/ECw1Yh8WwAA43M1?format=jpg&amp;name=360x360
1165044449841438720	60	andrew	Come to @Hotshots_Bar in Wentzville for Buds &amp; Burgers to support PurpleStride and Team Rizz with @Patrico1057 and @KingScottRules ! Grab a Weirdo Burger, side, and Budweiser bottle or soft drink for just $10.57 w/ a portion of each burger going to @PanCAN . Here til 8! 	en	18	0	5	1057thePoint	2019-08-23T23:33:36.000Z	612	8,161				https://pbs.twimg.com/media/ECsRv7EXsAc-bCl?format=jpg&amp;name=360x360
1165043459201359872	60	andrew	Thanks dad. Come enjoy the burger and support @PanCANStLouis ! #purplestride #buddandburgers @Hotshots_Bar #Wentzville @1057thePoint @RizzShow 	en	56	0	9	Patrico1057	2019-08-23T23:29:40.000Z	612	8,161				
1164976026516119553	60	andrew	New pool ((✔️)) Rory approved ((✔️)) 	en	6	0	2	DogHausSoulard	2019-08-23T19:01:43.000Z	612	8,161				https://pbs.twimg.com/media/ECrTg2rXsAAM9fF?format=jpg&amp;name=360x360
1164938034841903104	60	andrew	Secure yours today at @SchnuckMarkets #RedHotRiplets pizza. ((🍕)) ((🔥)) ((🍻)) More flavors available, including @MissionTacoSTL , @SugarFireSmoke , @4HandsBrewingCo City Wide, and more! 	en	61	9	20	OldViennaLLC	2019-08-23T16:30:45.000Z	612	8,161				https://pbs.twimg.com/media/ECqw9tLWsAAxZiF?format=jpg&amp;name=360x360
1164648785299103763	60	andrew	((4️⃣)) ((1️⃣)) #stlblues 	en	977	8	103	StLouisBlues	2019-08-22T21:21:23.000Z	612	8,161		blob:https://twitter.com/de00313d-64c3-445d-a637-4761df4147ed	https://pbs.twimg.com/media/ECmpxiVX4AQEzuT.jpg	
1164242074121752581	60	andrew	The St. Louis BattleHawks. #XFLTeams 	en	3366	175	772	XFLBattleHawks	2019-08-21T18:25:15.000Z	612	8,161				https://pbs.twimg.com/media/ECg3_sfXUAEVA_E?format=jpg&amp;name=360x360
1163776352706842624	60	andrew	Keep your eyes open. @HereLiesMoon’s pup is missing in St. Charles County. Her name is Radio. Thanks for the help weirdos! #NationalRadioDay 	en	146	11	150	RizzShow	2019-08-20T11:34:39.000Z	612	8,161				https://pbs.twimg.com/media/ECaQbFiX4AEWJk4?format=jpg&amp;name=360x360
1163498665186660352	60	andrew	((📍)) Novosibirsk, Russia 	und	748	4	67	StLouisBlues	2019-08-19T17:11:13.000Z	612	8,161				https://pbs.twimg.com/media/ECWTn-tWwAACCbM?format=jpg&amp;name=240x240 https://pbs.twimg.com/media/ECWTzwqW4AAzuCU?format=jpg&amp;name=240x240 https://pbs.twimg.com/media/ECWT1CZXUAA3HsO?format=jpg&amp;name=240x240
1162734455477420032	60	andrew	Play good ol’ Game 6 today 5:30-8pm. Lordy you’ve gotta love this place ((😍)) ... come on by! @ Game 6 HonkyTonk Joint https://www.instagram.com/p/B1RMRDmDmNE/?igshid=1bpoqib5yf0q3 	en	0	0	1	Steve_Reeb	2019-08-17T14:34:31.000Z	612	8,161				
1162418835032608770	60	andrew	For all the data lovers out there ((Bar chart)) 	en	4956	139	382	Tesla	2019-08-16T17:40:21.000Z	612	8,161				
1162389305182081024	60	andrew	Full weekend of shows starting today at Hammerstones 4-7. Hey ya never know when Beatle Bob’s gonna show up so come on by! @ Hammerstone's @ 9th and Russell https://www.instagram.com/p/B1OvUOYjYDV/?igshid=1s57wrz8us2k6 	en	0	0	1	Steve_Reeb	2019-08-16T15:43:01.000Z	612	8,161				
1160594341804544000	60	andrew	The NWS has issued a HEAT ADVISORY on Monday, 8/12/19 from 11 a.m. - 9 p.m. #stlwx 	en	2	0	1	CityEMA	2019-08-11T16:50:28.000Z	612	8,161				
1144651721592987651	60	andrew	Sooo happy for the winning team of the @XDThrowdown #sogoudaitsgouda ! Also I’m really proud of the event we threw I feel really blessed to have the partners that I do! @nobunnytails @jeffroatlarge @matthewlynch ! 	en	17	1	6	Darkside	2019-06-28T17:00:11.000Z	612	8,161				https://pbs.twimg.com/media/D-KeqxqXYAELOCW?format=jpg&amp;name=360x360
1144285864949891072	60	andrew	Are you ready for the Soulard #Pride Pub Crawl? Check out all the details here: 	en	0	0	2	STLSoulard	2019-06-27T16:46:24.000Z	612	8,161				
1143936730413899776	60	andrew	Now your can withdrawal AND deposit bitcoin through @cashapp 	en	4380	346	1185	jack	2019-06-26T17:39:04.000Z	612	8,161				
1143882865459023878	60	andrew	At 10 a.m. today, we're live streaming a press conference right here on Twitter with Blues Head Coach Craig Berube and Doug Armstrong. 	en	291	8	19	StLouisBlues	2019-06-26T14:05:02.000Z	612	8,161				https://pbs.twimg.com/media/D9_jZwUX4AIypRw?format=jpg&amp;name=360x360
1143680273806254080	60	andrew	On Wednesday at 10 a.m., we're live streaming a press conference on Twitter, Facebook and YouTube with Blues Head Coach Craig Berube and GM Doug Armstrong. The press conference will also be carried live on @FSMidwest . 	en	262	3	31	StLouisBlues	2019-06-26T00:40:00.000Z	612	8,161				
1143238205363429377	60	andrew	Before they hit the ice, our prospects are testing out their skills on the baseball diamond ((Baseball)) 	en	1260	4	73	StLouisBlues	2019-06-24T19:23:23.000Z	612	8,161				https://pbs.twimg.com/media/D92ZEaTWwAIjWIk?format=jpg&amp;name=360x360
1143213156052938753	60	andrew	Opening Night: Oct. 2 vs. Washington Full 2019-20 Schedule: Coming Tuesday. https://atnhl.com/2Fni6Yo 	en	373	3	49	StLouisBlues	2019-06-24T17:43:50.000Z	612	8,161				
1143141901752766464	60	andrew	Happy Monday! 	en	30	3	5	judithheumann	2019-06-24T13:00:42.000Z	612	8,161				https://pbs.twimg.com/media/D91BgExW4AA7YWP?format=jpg&amp;name=360x360
1142528375237566464	60	andrew	And the pick is in! #NHLDraft 	en	536	8	80	StLouisBlues	2019-06-22T20:22:46.000Z	612	8,161				https://pbs.twimg.com/media/D9sTfSnW4AADOQO?format=jpg&amp;name=360x360
1142119092490571778	60	andrew	The @STLCIC - the future practice home of the St. Louis Blues - is really taking shape. https://atnhl.com/2ZE5wvy #HeartlandOfHockey 	en	299	4	36	StLouisBlues	2019-06-21T17:16:25.000Z	612	8,161				
1141693053813633024	60	andrew	Dana White planning on ‘breaking and rebuilding’ boxing business model | https://themaclife.com/featured-posts/dana-white-planning-breaking-rebuilding-boxing-business-model/ 	en	667	20	77	Maclifeofficial	2019-06-20T13:03:30.000Z	612	8,161				https://pbs.twimg.com/media/D9gbxOzWwAAlj5D?format=jpg&amp;name=360x360
1141767745870225418	60	andrew	Klim Kostin, Dominik Bokk and the Blues' 2019 #NHLDraft picks are expected to participate in Blues Prospect Camp from June 25-28 at Enterprise Center. https://atnhl.com/2FngdLd 	en	369	9	37	StLouisBlues	2019-06-20T18:00:18.000Z	612	8,161				
1141754527701323777	60	andrew	An Exp 59 trio prepares for the g-forces they'll experience next week when they reenter Earth's atmosphere. Meanwhile, the crew studies ways to adapt to long-term space missions. https://go.nasa.gov/2L0q4Kq 	en	835	22	121	Space_Station	2019-06-20T17:07:46.000Z	612	8,161				https://pbs.twimg.com/media/D9hSZOaUIAAMqms?format=jpg&amp;name=360x360
1141487861310451712	60	andrew	These guys are pretty popular. #NHLAwards 	en	1215	6	107	StLouisBlues	2019-06-19T23:28:08.000Z	612	8,161				https://pbs.twimg.com/media/D9dhJ-VU8AE6QVy?format=jpg&amp;name=240x240 https://pbs.twimg.com/media/D9dhJ-VUcAA8y0Y?format=jpg&amp;name=240x240 https://pbs.twimg.com/media/D9dhJ-UUcAAkfbh?format=jpg&amp;name=240x240
1141135970882007050	60	andrew	That cool guys my boss! 	en	2	0	1		2019-06-19T00:09:51.000Z	612	8,161				
1141070001996218369	60	andrew	Proudly sponsored by Hipskind &amp; McAninch LLC! #xdthrowdown #DesignThinking 	en	4	0	3	XDThrowdown	2019-06-18T19:47:43.000Z	612	8,161				https://pbs.twimg.com/media/D9XlHhtWsAIm1N5?format=jpg&amp;name=360x360
1140321386629607425	60	andrew	A huge thank you to the players, coaches and staff for making this day a reality. There’s not a hockey fan base in the country that is more deserving. The love, passion and loyalty you have shown over the past 52 years has been incredible ! #StanleyCupChamps 	en	7368	50	520	AMacInnis2	2019-06-16T18:12:59.000Z	612	8,161		blob:https://twitter.com/87b3a003-4d71-49c1-930e-b81cbd55edae	https://pbs.twimg.com/ext_tw_video_thumb/1140321238755217408/pu/img/AgI7HPU1MkcmXhDR.jpg	
1140020676771876866	60	andrew	I am obsessed with you guys ((Smiling face with heart-shaped eyes)) #WeAllBleedBlue @StLouisBlues 	en	2303	8	276	GatewayArchSTL	2019-06-15T22:18:04.000Z	612	8,161				https://pbs.twimg.com/media/D9IqZ6WXYAA90jg?format=jpg&amp;name=360x360
1139940698537377792	60	andrew	LIVE: Watch as the St. Louis Blues celebrate their first Stanley Cup with a parade down Market Street. 	en	2348	94	746	StLouisBlues	2019-06-15T17:00:16.000Z	612	8,161				
1139009457898135553	60	andrew	If this doesn't give you chills then not sure what will. @StLouisBlues fans have been waiting a long time for this. 	en	5581	45	1770	FSMidwest	2019-06-13T03:19:51.000Z	612	8,161		blob:https://twitter.com/a53f3d02-e495-4442-9157-b0287cf370c8	https://pbs.twimg.com/media/D86TD3qU0AAhuT4.jpg	
1139572690807873536	60	andrew	At home with their newborn, Yana Tarasenko was still able to celebrate this special moment postgame with @tara9191 and son Mark via FaceTime. 	en	4623	20	332	StLouisBlues	2019-06-14T16:37:56.000Z	612	8,161		blob:https://twitter.com/a8471940-1efa-4c37-af83-77e3cd5912d1	https://pbs.twimg.com/media/D9CREzmXYAEfKuy.jpg	
1139549732060246018	60	andrew	You know that parade down Market Street we've always dreamed about? IT'S HAPPENING!!!! https://atnhl.com/31zrf9t 	en	3145	41	355	StLouisBlues	2019-06-14T15:06:42.000Z	612	8,161				
1139536548477722624	60	andrew	About 19 hours ago... #WeAllBleedBlue 	en	3041	12	349	StLouisBlues	2019-06-14T14:14:19.000Z	612	8,161		blob:https://twitter.com/7e7f1de3-4bc6-420b-8726-879caf434cea	https://pbs.twimg.com/media/D9ByW_bWsAIqNQS.jpg	
1139531966498390016	60	andrew	This. 	en	1	0	1	Steve_Reeb	2019-06-14T13:56:06.000Z	612	8,161				
1139001382349017088	60	andrew	Dreams do come true! @StLouisBlues 	en	1759	15	300	MissouriBaptist	2019-06-13T02:47:45.000Z	612	8,161		blob:https://twitter.com/5d0a3c1a-f328-487d-829d-07f5e21a6a1c	https://pbs.twimg.com/ext_tw_video_thumb/1139001138559275008/pu/img/IySB0AeaAyCTPrfB.jpg	
1139298830594248707	60	andrew	We could do this all night. 	en	5765	34	528	StLouisBlues	2019-06-13T22:29:43.000Z	612	8,161		blob:https://twitter.com/c3301354-39d5-4654-a53b-340dbfbae3f1	https://pbs.twimg.com/ext_tw_video_thumb/1139298674750763011/pu/img/tJDMPjk3rd7Z-h2d.jpg	
1139217084653723648	60	andrew	I’m still floating from last night. Did that really happen!!????? #PlayGloria #LGB 	en	13051	170	524	Andy	2019-06-13T17:04:53.000Z	612	8,161				https://pbs.twimg.com/media/D89P5KrWwAAAnoe?format=jpg&amp;name=360x360
1139247456946987009	60	andrew	We’ve waited 52 years to say this: Your St. Louis Blues are Champions. 	en	10370	53	968	StLouisBlues	2019-06-13T19:05:34.000Z	612	8,161		blob:https://twitter.com/b4707aae-4dd4-4f4a-97e1-6f7eebb3e871	https://pbs.twimg.com/ext_tw_video_thumb/1139247371710337024/pu/img/x-fipTGic0WKCMaq.jpg	
1139216862619635712	60	andrew	We did it. #WeAllBleedBlue 	en	3192	33	555	StLouisBlues	2019-06-13T17:04:00.000Z	612	8,161		blob:https://twitter.com/b8d2dfe4-602f-4d49-adc4-e038c9ba6f24	https://pbs.twimg.com/media/D87isLZW4AAyyh4.jpg	
1139079851971944450	60	andrew	We did it St Louis!!!! 	en	36488	617	2722	Bozie42	2019-06-13T07:59:34.000Z	612	8,161				https://pbs.twimg.com/media/D87STf4XkAIN0EX?format=jpg&amp;name=360x360
1139110892921131009	60	andrew	CHAMPS! Back at home 5am ((Trophy)) 	en	14990	178	521	patmaroon	2019-06-13T10:02:55.000Z	612	8,161				https://pbs.twimg.com/media/D87vUVSXkAEqi2Z?format=jpg&amp;name=360x360
1139102556267921408	60	andrew	#NewProfilePic 	und	27493	253	2621	patmaroon	2019-06-13T09:29:47.000Z	612	8,161				https://pbs.twimg.com/media/D87nvGSWwAUBpvX?format=jpg&amp;name=360x360
1139204699616358400	60	andrew	We all know a person that roots for another team and has always used that lame "What do they drink out of in St. Louis since they have no cups?" joke. Who's laughing now? 	en	3714	54	495	StLouisBlues	2019-06-13T16:15:40.000Z	612	8,161				https://pbs.twimg.com/media/D89Ed3gWwAEchLY?format=jpg&amp;name=360x360
1139204564190670849	60	andrew	Cool. 	en	6063	38	756	StLouisBlues	2019-06-13T16:15:08.000Z	612	8,161				https://pbs.twimg.com/media/D89EgkXXYAECtAV?format=jpg&amp;name=360x360
1139191214316621826	60	andrew	The hometown kid. #WeAllBleedBlue 	en	3305	10	383	StLouisBlues	2019-06-13T15:22:05.000Z	612	8,161				https://pbs.twimg.com/media/D884XpNXoAIgStB?format=jpg&amp;name=360x360
1291825385865392128	61	dan	No point in begging…Jolene already stole these two ((😂)) @Twinsthenewtren - Team Dolly ((🦋)) 	en	14824	305	2116	DollyParton	2020-08-07T19:55:47.000Z	145	12,237				
1291120921311350787	61	dan	I love almost every "first time hearing a song" reaction video from these two guys, but this has to be one of the best: Phil Collins' "In The Air Tonight". https://www.youtube.com/watch?v=0l3-iufiywU "I ain't never seen nobody drop a beat three minutes into a song!" 	en	12996	391	2429	anildash	2020-08-05T21:16:30.000Z	145	12,237				
1290573730125508614	61	dan	It’s good that someone is keeping track. 	en	1	1	0		2020-08-04T09:02:09.000Z	145	12,237				
1289886091839856640	61	dan	Whoever selected the Umbrella Academy soundtrack is a genius. 	en	1	0	0		2020-08-02T11:29:43.000Z	145	12,237				
1289761181490544642	61	dan	Trump shouldn’t have threatened to shut down TikTok. Now he has an army of pissed off tweens to deal with. 	en	2	1	0		2020-08-02T03:13:22.000Z	145	12,237				
1286922558349037578	61	dan	This just made my night. 	en	0	0	0		2020-07-25T07:13:42.000Z	145	12,237				
1286632257076289536	61	dan	Today is Opening Day, which means it's a great day to arrest the killers of Breonna Taylor 	en	359158	6169	105824	RaysBaseball	2020-07-24T12:00:09.000Z	145	12,237				
1284344118420750337	61	dan	“Even though I was under arrest, I smiled because I believed we were on the right side of history. You too must find a way to get in the way.” -John Lewis ((❤️)) 	en	32640	51	6726	niccolethurman	2020-07-18T04:27:54.000Z	145	12,237				
1283683135381598210	61	dan	Seriously. In many places poll workers are paid positions and in some places you can be as young as sixteen. 	en	1	0	0		2020-07-16T08:41:23.000Z	145	12,237				
1281601310148775937	61	dan	"As you wish." ((❤️)) In his final performance, Carl Reiner shares a special goodbye with his son Rob as part of the fan-film version of The Princess Bride: http://vntyfr.com/7eAo7iw 	en	75916	1512	24905	VanityFair	2020-07-10T14:48:57.000Z	145	12,237		blob:https://twitter.com/d68aa08f-f4db-46c9-8fb8-b6b82ec475a2	https://pbs.twimg.com/ext_tw_video_thumb/1281600223635283968/pu/img/A11GfT7lCxKPG5zp.jpg	
1275648661586927616	61	dan	Anyone talking about herd immunity and letting the pandemic run its course should read this. 	en	10	0	6		2020-06-24T04:35:15.000Z	145	12,237				
1274496029878935553	61	dan			4	1	0		2020-06-21T00:15:07.000Z	145	12,237				
1247297965250588672	61	dan	The best way to enforce a stay at home order: 	en	1	0	1		2020-04-06T22:59:43.000Z	145	12,237				
1239624352305303552	61	dan	A message from me and my dad, @Melbrooks . #coronavirus #DontBeASpreader 	en	503588	8359	216214	maxbrooksauthor	2020-03-16T18:47:31.000Z	145	12,237		blob:https://twitter.com/80ed3f01-247a-45ce-975c-a53ff3e312f4	https://pbs.twimg.com/ext_tw_video_thumb/1239624020179316736/pu/img/0j3ePsxQcRCZriz-.jpg	
1215669128821800965	61	dan	19 years ago today I moved to the US to work with @dan , @robey , @Arlo , @donmelton , @kocienda , @othermaciej , @digitaltaska , @SusanKare , Bud Tribble, Andy Hertzfeld and others. We were building an open source consumer OS. Somehow 19 years later I'm chasing the same dream. 	en	61	3	2	ian	2020-01-10T16:18:01.000Z	145	12,237				
1197234378339803136	61	dan	This image really captures Trump's presidency. Note the stack of printed tweets behind the notepad. 	en	4	0	0		2019-11-20T19:24:53.000Z	145	12,237				
1196600649435140096	61	dan	This is kind of brilliant. 	en	4	0	0		2019-11-19T01:26:41.000Z	145	12,237				
1169889382825787394	61	dan			1	0	0		2019-09-06T08:25:39.000Z	145	12,237				
1151128552168939520	61	dan	Singer Grimes kicks off Adidas campaign with a post about her 'training regime,' which she says includes deprivation tanks, astro-gliding to other dimensions, and experimental surgery to remove the top film of her eye 	en	3615	719	1522	businessinsider	2019-07-16T13:56:48.000Z	145	12,237				
1119536494257954816	61	dan	You Are Hereby Sentenced to Attend a Music Festival 	en	4	2	0		2019-04-20T09:41:14.000Z	145	12,237				
1033060503	61	dan	@graysky The people are starved for Jesus. 	en	1	0	0		2008-12-01T22:11:28.000Z	145	12,237				
1017054476	61	dan	@aprilini No kidding. I'm still stinging from the New Orleans and St. Louis tickets I bought a month ago. 	en	0	0	0		2008-11-21T19:44:39.000Z	145	12,237				
1015627028	61	dan	@Thincvox congratulations! 	en	0	0	0		2008-11-20T23:51:04.000Z	145	12,237				
1013713199	61	dan	@d2h Songbird has concerts and other artist metadata built in: http://getsongbird.com/ 	en	0	0	0		2008-11-19T22:39:03.000Z	145	12,237				
1010466823	61	dan	@shawnbot Marnie was awesome, Gang Gang Dance, not so much. 	en	0	0	0		2008-11-18T00:17:24.000Z	145	12,237				
1006672823	61	dan	@ian It's totally dan music too 	en	0	0	0		2008-11-15T05:36:41.000Z	145	12,237				
1003297655	61	dan	@nkallen is he a retired sergeant? 	en	0	0	0		2008-11-13T04:20:01.000Z	145	12,237				
1002917397	61	dan	@sharon mine is 66.77 	en	0	0	0		2008-11-12T23:22:25.000Z	145	12,237				
995915245	61	dan	@aprilini If you consider Vegas to be hell, then yes. 	en	0	0	0		2008-11-08T03:25:09.000Z	145	12,237				
995914733	61	dan	@aprilini If you come 	en	0	0	0		2008-11-08T03:24:33.000Z	145	12,237				
985846357	61	dan	@atduskgreg I only caught the end of their set, but they were pretty good. 	en	0	0	0		2008-11-02T01:56:59.000Z	145	12,237				
984712202	61	dan	@tarabrown Congratulations! 	en	0	0	0		2008-11-01T02:00:16.000Z	145	12,237				
979494923	61	dan	@noele Join the club. 	en	0	0	0		2008-10-28T20:40:22.000Z	145	12,237				
976375771	61	dan	@halfandheart maybe you can make friends with his ghost 	en	0	0	0		2008-10-26T18:30:01.000Z	145	12,237				
971096198	61	dan	@aprilini the fact that you were 17 in 2001 make me feel about a million years old 	en	0	0	0		2008-10-22T21:26:15.000Z	145	12,237				
971089834	61	dan	@aprilini please tell me you made that ironically 	en	0	0	0		2008-10-22T21:21:20.000Z	145	12,237				
971006033	61	dan	@halfandheart no, I can't say I do. 	en	0	0	0		2008-10-22T20:07:49.000Z	145	12,237				
969501065	61	dan	@spangley Me too!! 	en	0	0	0		2008-10-21T20:36:02.000Z	145	12,237				
967902233	61	dan	@spangley way better 	en	0	0	0		2008-10-20T19:35:40.000Z	145	12,237				
967855763	61	dan	@sharon join the club 	en	0	0	0		2008-10-20T18:58:34.000Z	145	12,237				
957039387	61	dan	@coley congratulations! 	en	0	0	0		2008-10-13T00:56:38.000Z	145	12,237				
954709210	61	dan	@emilyrlogan I have a hard time believing that. 	en	0	0	0		2008-10-10T20:45:52.000Z	145	12,237				
953613231	61	dan	@spangley beer and couch are not mutually exclusive 	en	0	0	0		2008-10-10T02:11:11.000Z	145	12,237				
947812291	61	dan	@sharon thanks I'll need it 	en	0	0	0		2008-10-06T03:30:34.000Z	145	12,237				
939939473	61	dan	@aprilini Are you doing Cut Copy + The Presets on Sunday night? That's the highlight of my weekend. 	en	0	0	0		2008-09-30T00:24:48.000Z	145	12,237				
938721014	61	dan	@sharon Is that a euphemism of some sort? 	en	0	0	0		2008-09-29T02:32:56.000Z	145	12,237				
938012547	61	dan	@spangley you're so missing out 	en	0	0	0		2008-09-28T11:28:07.000Z	145	12,237				
935422889	61	dan	@emilyrlogan I imagine she would have been great to see in 1999. 	en	0	0	0		2008-09-26T07:23:37.000Z	145	12,237				
933981174	61	dan	@Mike welcome home! 	en	0	0	0		2008-09-25T05:07:24.000Z	145	12,237				
925218141	61	dan	@atduskgreg Sarah Palin shot him 	hi	0	0	0		2008-09-17T22:41:36.000Z	145	12,237				
916859611	61	dan	@shawnbot So do I, but for this: http://www.icelandairwaves.com/ 	en	0	0	0		2008-09-10T20:36:54.000Z	145	12,237				
909979136	61	dan	@sharon Not a Radiohead fan? 	en	1	0	0		2008-09-04T22:44:01.000Z	145	12,237				
909920922	61	dan	@atduskgreg no, I hadn't. That's sweet. 	en	0	0	0		2008-09-04T21:41:51.000Z	145	12,237				
1117367664203059200	61	dan	Managed to score one of these babies and a nice stack of rare vinyl on today's @recordstoreday record store crawl. Hopefully they release some more singles for it. #RecordStoreDay2019 	en	4	0	0		2019-04-14T10:03:05.000Z	145	12,237				
1116997510873190400	61	dan	'Somebody was trying to tell me that CDs are better than vinyl because they don’t have any surface noise. I said, “Listen, mate, life has surface noise.”' John Peel. #RecordStoreDay2019 #RecordStoreDay 	en	486	12	202	Culturesmatter	2019-04-13T09:32:14.000Z	145	12,237				https://pbs.twimg.com/media/D4BfGOXXoAAMnFY?format=jpg&amp;name=360x360
1116522973777686528	61	dan	I'm curious who Burning Man's ticketing partner is this year. Ticketing companies with experience handling large, popular events don't tend to fail this hard. 	en	1	0	0		2019-04-12T02:06:35.000Z	145	12,237				
886189206300655616	61	dan	I took Daily Mail comments from people angry about a possible Female Dr Who and turned them into episode titles for the new series 	en	57264	1172	36883	TechnicallyRon	2017-07-15T11:42:26.000Z	145	12,237				https://pbs.twimg.com/media/DExgBaBXoAAvaib?format=jpg&amp;name=240x240 https://pbs.twimg.com/media/DExgEaPW0AAS524?format=jpg&amp;name=240x240 https://pbs.twimg.com/media/DExgDczXoAAm4cn?format=jpg&amp;name=240x240 https://pbs.twimg.com/media/DExgT6rXUAAKK1u?format=jpg&amp;name=240x240
1054647413	61	dan	@rk just grab a plain tshirt and a sharpie 	en	11	1	2		2008-12-13T02:24:03.000Z	145	12,237				
1050154101	61	dan	@tara I'd say that's bad form in any restroom. 	en	1	0	1		2008-12-10T23:05:34.000Z	145	12,237				
1047919335	61	dan	@alibee Now I'll have that song in my head for the rest of the day. 	en	2	1	1		2008-12-09T21:52:14.000Z	145	12,237				
908581528	61	dan	@ian Not loud enough. I can't hear it. 	en	0	0	0		2008-09-03T21:35:01.000Z	145	12,237				
898871985	61	dan	@robey it is a pretty awesome album 	en	0	0	0		2008-08-26T02:11:21.000Z	145	12,237				
898497332	61	dan	@mike are you speaking english? 	en	0	0	0		2008-08-25T18:51:27.000Z	145	12,237				
898432296	61	dan	@mike If you don't know that by now then you have other things to worry about. 	en	0	0	0		2008-08-25T17:42:51.000Z	145	12,237				
897825753	61	dan	@Dan E. Phresh - your friends are weird 	en	0	0	0		2008-08-25T03:02:07.000Z	145	12,237				
884949719	61	dan	@tarabrown don't forget to mention the awesome clientele. 	en	0	0	0		2008-08-12T06:44:25.000Z	145	12,237				
884949103	61	dan	@tarabrown don't forget to mention the awesome clientele. 	en	0	0	0		2008-08-12T06:43:04.000Z	145	12,237				
875323544	61	dan	@robey She's also Donnie Darko's mom. 	en	0	0	0		2008-08-02T02:51:23.000Z	145	12,237				
873236425	61	dan	@ian for the free booze? 	en	0	0	0		2008-07-31T02:46:51.000Z	145	12,237				
870784759	61	dan	@halfandheart We'd be lost in a land of confusion. 	en	0	0	0		2008-07-28T18:04:49.000Z	145	12,237				
865448740	61	dan	@rk I wouldn't worry about it unless the invites are from ex girlfriends and include a message like "we need to talk". 	en	0	0	0		2008-07-22T20:12:31.000Z	145	12,237				
856798987	61	dan	@defunkt TMI 	und	0	0	0		2008-07-12T21:54:31.000Z	145	12,237				
847415798	61	dan	@bmizerany congratulations! 	en	0	0	0		2008-07-01T05:27:51.000Z	145	12,237				
845293549	61	dan	@maximalism bring one over to me 	en	0	0	0		2008-06-27T23:37:24.000Z	145	12,237				
843129349	61	dan	@defunkt just say no to 37signals 	en	0	0	0		2008-06-25T09:32:00.000Z	145	12,237				
843009780	61	dan	@alibee let me put it this way, I used to own actionanddrama.com 	en	0	0	0		2008-06-25T05:00:08.000Z	145	12,237				
842996239	61	dan	@alibee its one of my favs. I used to have a crush on Manda Rin. 	en	0	0	0		2008-06-25T04:31:19.000Z	145	12,237				
842194438	61	dan	@ian hellz yeah 	en	0	0	0		2008-06-24T04:32:38.000Z	145	12,237				
841187483	61	dan	@rabble were you looking at odeo.com? 	en	0	0	0		2008-06-22T22:11:53.000Z	145	12,237				
835746563	61	dan	@ian For serious? Sigh... 	en	0	0	0		2008-06-16T05:53:30.000Z	145	12,237				
832608294	61	dan	@tarabrown where's the love? 	en	0	0	0		2008-06-12T00:27:36.000Z	145	12,237				
824469825	61	dan	@willotoons me and @ceedub would disagree 	en	0	0	0		2008-06-01T07:40:25.000Z	145	12,237				
821918043	61	dan	@factoryjoe its only 198mb on my macbook pro 	en	0	0	0		2008-05-28T18:33:06.000Z	145	12,237				
821470317	61	dan	@ian when you're 21, you're no fun 	en	0	0	0		2008-05-28T05:26:15.000Z	145	12,237				
821375814	61	dan	@stevel Is it celebrity Jeopardy? 	en	0	0	0		2008-05-28T02:15:11.000Z	145	12,237				
821323211	61	dan	@maximalism vodka ice luge ftw 	und	0	0	0		2008-05-28T00:37:45.000Z	145	12,237				
821265473	61	dan	@moswald All you had to do was ask :) 	en	0	0	0		2008-05-27T22:45:04.000Z	145	12,237				
819445316	61	dan	@maximalism its just you 	en	0	0	0		2008-05-25T09:30:50.000Z	145	12,237				
818534476	61	dan	@mike - amen to that 	en	0	0	0		2008-05-23T18:40:20.000Z	145	12,237				
816975754	61	dan	@spangley That's awesome! Congrats. 	en	0	0	0		2008-05-21T23:20:22.000Z	145	12,237				
816782847	61	dan	@eah don't you mean at CBS? 	en	0	0	0		2008-05-21T17:46:30.000Z	145	12,237				
814714434	61	dan	@jcrosby congratulations 	en	0	0	0		2008-05-19T07:02:06.000Z	145	12,237				
811478119	61	dan	@rk Does your client plan on taking the site back in time to 1999? 	en	0	0	0		2008-05-14T22:06:53.000Z	145	12,237				
809683233	61	dan	@tarabrown that would be incredibly disturbing, unless you have a thing for recruiters 	en	0	0	0		2008-05-12T21:57:46.000Z	145	12,237				
809600636	61	dan	@rk How loud is the drobo? 	en	0	0	0		2008-05-12T19:55:29.000Z	145	12,237				
807499304	61	dan	@gary we're on git 	en	0	0	0		2008-05-09T19:47:35.000Z	145	12,237				
807497567	61	dan	@gary People still use that? I'm finally svn-free 	en	0	0	0		2008-05-09T19:44:53.000Z	145	12,237				
807495048	61	dan	@gary I'm guessing you're using svn 	en	0	0	0		2008-05-09T19:40:37.000Z	145	12,237				
806811055	61	dan	@ian that's the closest thing to a compliment that you've ever given OS X 	en	0	0	0		2008-05-08T23:49:25.000Z	145	12,237				
806691555	61	dan	@tarabrown you make it sound so appealing 	en	0	0	0		2008-05-08T20:41:30.000Z	145	12,237				
1293006985726574592	62	gregkidd	Tech Monopolies Are the Reason the US Now Has a TikTok Problem https://promarket.org/2020/08/07/tech-monopolies-are-the-reason-the-us-now-has-a-tiktok-problem/ via @ProMarket_org 	en	12	0	7		2020-08-11T02:11:02.000Z	93	6,711				
1293005689183285248	62	gregkidd	Banning TikTok: Are We Reproducing the Chinese Internet in America? by @matthewstoller 	en	4	0	4		2020-08-11T02:05:53.000Z	93	6,711				
1292873260590219265	62	gregkidd	https://www.linkedin.com/posts/tiffany-xingyu-wang-381806a_five-predictions-the-new-normal-activity-6698626680648548352-zqte from Tiffany at Spectrum 	en	7	0	3		2020-08-10T17:19:40.000Z	93	6,711				
1289059870692392960	62	gregkidd	John Lewis: Together, You Can Redeem the Soul of Our Nation https://www.nytimes.com/2020/07/30/opinion/john-lewis-civil-rights-america.html?smid=tw-share "democracy is not a state. it is an act" 	en	12	0	1		2020-07-31T04:46:37.000Z	93	6,711				
1286471950190039041	62	gregkidd	Why the U.S. Chamber of Commerce Is Suing the Trump Administration https://www.nytimes.com/2020/07/23/opinion/trump-chamber-of-commerce-lawsuit.html?smid=tw-share Gosh its come to the point where the U.S. Chamber of Commerce has to sue its own government. That's ripe 	en	9	0	2		2020-07-24T01:23:09.000Z	93	6,711				
1284157961728856064	62	gregkidd	#tbt to my chat at the conference opener for the Asia Blockchain Summit during a time when it was safe to do these things in person! Check out this year’s terrific lineup, streaming live online now until July 19 via http://abasummit.io @aba_summit 	en	100	2	5	YuChiLyraKuo	2020-07-17T16:08:11.000Z	93	6,711		blob:https://twitter.com/6e49fac1-3939-472f-94da-37958bdd742e	https://pbs.twimg.com/ext_tw_video_thumb/1284157951574519811/pu/img/1h0MYad8_1zrdINT.jpg	
1280980789077970950	62	gregkidd	. @SenKamalaHarris When it's safe to resume normal life again, we're going to need live music and comedy more than ever. Please help @NIVAssoc with federal funding by supporting &amp; cosponsoring S. 3814/H.R. 7481, the RESTART Act #SaveOurStages 	en	7	1	0		2020-07-08T21:43:14.000Z	93	6,711				
1280980788973092864	62	gregkidd	. @repbarbaralee When it's safe to resume normal life again, we're going to need live music and comedy more than ever. Please help @NIVAssoc with federal funding by supporting &amp; cosponsoring S. 3814/H.R. 7481, the RESTART Act #SaveOurStages 	en	1	0	0		2020-07-08T21:43:14.000Z	93	6,711				
1280980788654284801	62	gregkidd	. @SenFeinstein When it's safe to resume normal life again, we're going to need live music and comedy more than ever. Please help @NIVAssoc with federal funding by supporting &amp; cosponsoring S. 3814/H.R. 7481, the RESTART Act #SaveOurStages 	en	3	0	0		2020-07-08T21:43:14.000Z	93	6,711				
1276612660520312832	62	gregkidd	On our bike trip headed east through Trump country 	en	13	1	0		2020-06-26T20:25:51.000Z	93	6,711				
1276612385726328833	62	gregkidd			19	7	4		2020-06-26T20:24:45.000Z	93	6,711				https://pbs.twimg.com/media/EbdwKegWoAAv-L1?format=jpg&amp;name=360x360
1274590313726668801	62	gregkidd	TransferGo raises $10M additional funding, launches in 11 new markets https://tcrn.ch/2Y3i81i via @techcrunch the blue collar alternative to TransferWise 	en	111	2	28		2020-06-21T06:29:46.000Z	93	6,711				
1274502278829862912	62	gregkidd	After Pine Mountain ride 	en	26	1	0		2020-06-21T00:39:57.000Z	93	6,711				https://pbs.twimg.com/media/Ea_xEJhUwAEzxrK?format=jpg&amp;name=360x360
1274502035182743552	62	gregkidd	Sign made by my daughter Sasha 	en	54	13	2		2020-06-21T00:38:58.000Z	93	6,711				https://pbs.twimg.com/media/Ea_w16HU0AAuAte?format=jpg&amp;name=360x360
1273688211651350528	62	gregkidd			5	2	1		2020-06-18T18:45:08.000Z	93	6,711				
1272966118412451842	62	gregkidd	US Supreme Court’s Computer Fraud Ruling Has Big Implications for Crypto https://www.coindesk.com/us-supreme-court-computer-fraud-ruling-has-big-implications-for-crypto via @coindesk 	en	117	0	44		2020-06-16T18:55:47.000Z	93	6,711				
1269287662315204611	62	gregkidd	https://www.philadelphiafed.org/-/media/research-and-data/publications/working-papers/2020/wp20-19.pdf from the Fed. Awakening 	en	263	15	105		2020-06-06T15:18:55.000Z	93	6,711				
1268395402383904769	62	gregkidd	Greg Kidd: Why neutral identity platforms will flourish in spite of Big Tech by @myglobal_id 	en	23	1	7		2020-06-04T04:13:24.000Z	93	6,711				
1268395200109400065	62	gregkidd	Greg Kidd: Why Europe will be the center for identity by @myglobal_id 	en	29	1	10		2020-06-04T04:12:36.000Z	93	6,711				
1265997538097676289	62	gregkidd			4	0	0		2020-05-28T13:25:08.000Z	93	6,711				
1261655846909444096	62	gregkidd	Half of Oakland students lack access to computers. Jack Dorsey is stepping in 	en	10	1	1		2020-05-16T13:52:48.000Z	93	6,711				
1260924603209093120	62	gregkidd			4	0	2		2020-05-14T13:27:06.000Z	93	6,711				
1260746033778192384	62	gregkidd	The Patent Office Is “Adjusting” to a Supreme Court Ruling by Ignoring It https://www.eff.org/deeplinks/2020/05/patent-office-adjusting-supreme-court-ruling-ignoring-it via @eff 	en	5	0	0		2020-05-14T01:37:32.000Z	93	6,711				
1254915457150156801	62	gregkidd	A proposal how we bridge the privacy gaps. Check out my latest blog-- Under the Dome of Privacy: Accepted Wish, Unadopted Concepts. https://internethealth.blog/f/under-the-dome-of-privacy-accepted-wish-unadopted-concepts #privacy #gdpr #ccpa #ciso #cybersecurity #brand #digitaltransformation 	en	12	1	9	tiffanyxingyuw	2020-04-27T23:28:54.000Z	93	6,711				
1252132366450954241	62	gregkidd	tiffany wang on Safety by design and Privacy by default: 	en	5	0	1		2020-04-20T07:09:54.000Z	93	6,711				
1251187128727269378	62	gregkidd	Google's internal data free-for-all enabled it to create a cascading monopoly. But it is now acutely vulnerable to GDPR Article 5(1)b enforcement. @Brave has copied @vestager @EU_Competition @kartellamt @CMAgovUK @Adlc_ @CCPCIreland on today's complaint 	en	10	0	4		2020-04-17T16:33:52.000Z	93	6,711				
1246847550113472513	62	gregkidd	Building an ‘Internet of Value’ | ABA Banking Journal 	en	19	0	7		2020-04-05T17:09:55.000Z	93	6,711				
1245735821463810054	62	gregkidd	Enforcement of @Brave ’s GDPR “purpose limitation” complaint v @Google would be tantamount to a functional separation, giving everyone the power to decide what parts of Google they chose to reward with their data @EU_Competition @kartellamt @CMAgovUK @Adlc_ 	en	6	0	2		2020-04-02T15:32:19.000Z	93	6,711				
1245735683735470080	62	gregkidd	The GDPR purpose limitation principle requires that organizations internally ring-fence personal data and use it only for the narrow purpose it was collected for. @Brave 's evidence to @DPCireland shows that Google's internal data free-for-all is unlawful. 	en	5	0	3		2020-04-02T15:31:46.000Z	93	6,711				
1243961029631135744	62	gregkidd	To me, this is more beautiful than any selfie or vacation pic. ((😍)) ((😷)) Placed another order for (donor-covered) KN95 masks. There are still a few boxes left that can be shipped overnight from the US, ping me if you have an urgent need (NYC/red zone area hospitals first, please!) 	en	307	23	77	YuChiLyraKuo	2020-03-28T17:59:55.000Z	93	6,711				https://pbs.twimg.com/media/EUNv9cYXsAAaUG9?format=jpg&amp;name=360x360
1239069384846397441	62	gregkidd	SSI Incubator vid: 	in	8	1	8		2020-03-15T06:02:16.000Z	93	6,711				
1237115939469975553	62	gregkidd			14	1	7		2020-03-09T20:39:59.000Z	93	6,711				
1231796348761985024	62	gregkidd			6	0	3		2020-02-24T04:21:49.000Z	93	6,711				
1229822944538267648	62	gregkidd	I'll be in Vegas talking about identity in April- 	en	14	0	3		2020-02-18T17:40:13.000Z	93	6,711				https://pbs.twimg.com/media/ERE1czAUEAAoaV_?format=jpg&amp;name=360x360
1220186289644826624	62	gregkidd	https://www.facebook.com/NowThisNews/videos/516575178974284/ . Mariana Dahan on Self Sovereign identity for refuges and children 	en	11	2	4		2020-01-23T03:27:36.000Z	93	6,711				
1218025256901738497	62	gregkidd	go JP of Uphold! 	en	4	0	3		2020-01-17T04:20:25.000Z	93	6,711				
1217159078222401539	62	gregkidd	The official @1WorldIdentity #KNOW2020 agenda is out! Come check out @gregkidd on Monday at 1:45PM and @mitjasim on Wednesday at 9:00AM https://knowidentity.com/agenda/ 	en	22	1	9	myglobal_id	2020-01-14T18:58:32.000Z	93	6,711				https://pbs.twimg.com/media/EOQ3upyXsAAhGfL?format=jpg&amp;name=360x360
1213144575096672257	62	gregkidd	Fresh snow on the Pioneer MTB race. So much for summer! 	en	15	3	0		2020-01-03T17:06:20.000Z	93	6,711				https://pbs.twimg.com/media/ENX0j4oUEAE0guL?format=jpg&amp;name=360x360
1213144239195865089	62	gregkidd	Finishing the Pioneer MTB race with Kiwi Pete 	en	7	1	0		2020-01-03T17:05:00.000Z	93	6,711				https://pbs.twimg.com/media/ENX0QU1UYAAJAxI?format=jpg&amp;name=360x360
1213143815164329984	62	gregkidd	one of the few sunny moments on the Pioneer MTB race in the South Island of NZ 	en	5	1	0		2020-01-03T17:03:19.000Z	93	6,711				https://pbs.twimg.com/media/ENXz3mFUYAUTPuG?format=jpg&amp;name=360x360
1212440651410751488	62	gregkidd			2	0	0		2020-01-01T18:29:12.000Z	93	6,711				
1204998063934197760	62	gregkidd	https://vimeo.com/374960720 Vid from SSI 	en	14	1	4		2019-12-12T05:35:00.000Z	93	6,711				
1204997894949883907	62	gregkidd	https://www.eventbrite.com/e/the-future-of-digital-identity-blockchain-and-investment-in-ssi-registration-79279558293 our event on Thursday night 	en	16	2	4		2019-12-12T05:34:20.000Z	93	6,711				
1203337279940349952	62	gregkidd	((Public address loudspeaker)) Join us for our final #SSII2019 event! Hear from @CULedger about their success in #SSI &amp; see FIVE early stage #startups present their #selfsovereignidentity products &amp; solutions: Thu, Dec 12, 6pm, AWS Loft, #SanFransisco ((Rocket)) #VentureCapital #blockchain 	en	29	0	18	ssi_incubator	2019-12-07T15:35:39.000Z	93	6,711				
1200821364871053312	62	gregkidd	ADL International Leadership Award Presented to Sacha Baron Cohen at Nev... https://youtu.be/ymaWq5yZIYM via @YouTube 	en	3	0	0		2019-11-30T16:58:18.000Z	93	6,711				
1200462571821649920	62	gregkidd	https://www.vanityfair.com/news/2019/11/the-strange-tale-of-quadriga-gerald-cotten A well documented story. Still a mystery 	en	10	1	1		2019-11-29T17:12:35.000Z	93	6,711				
1190460948663812096	62	gregkidd	had dinner with the grand daughter narrator. Interesting story of the origins of radar in WWII: 	en	10	1	1		2019-11-02T02:49:42.000Z	93	6,711				
1182727609777410048	62	gregkidd	On #DayoftheGirl I teamed up with ⁦ @realamberheard ⁩ to share why it’s important we empower millions of girls around the world with proper identification # GoodID Read about our journey here 	en	66	4	18	marianadahan	2019-10-11T18:40:10.000Z	93	6,711				
1183906439149998081	62	gregkidd	Telegram catches a bullet from the SEC: https://www.sec.gov/litigation/complaints/2019/comp-pr2019-212.pdf 	en	6	1	4		2019-10-15T00:44:25.000Z	93	6,711				
1181746245863272449	62	gregkidd	The Agonizing Imperfection of Pete Buttigieg 	en	2	0	0		2019-10-09T01:40:35.000Z	93	6,711				
1175037639759499265	62	gregkidd	A Brief History of the Warren Presidency https://nyti.ms/2QjU887 sounds like a possible prediction of the future 	en	8	1	1		2019-09-20T13:22:59.000Z	93	6,711				
1174549898257059841	62	gregkidd	Good understanding of our win on public access continue to roll in: 	en	9	0	0		2019-09-19T05:04:52.000Z	93	6,711				
1172938806745546752	62	gregkidd	Victory! 	en	10	0	0		2019-09-14T18:22:58.000Z	93	6,711				
1172935263691190273	62	gregkidd			10	0	2		2019-09-14T18:08:53.000Z	93	6,711				
1171159979912568832	62	gregkidd	Microsoft's LinkedIn loses appeal over access to user profiles https://reut.rs/34AWgvu . WE WON! A great day for open and equal access to public data and self sovereign rights to control access to ones own data. 	en	21	0	5		2019-09-09T20:34:32.000Z	93	6,711				
1170212763152658433	62	gregkidd	New Head of China’s Digital Currency Says It Beats Facebook Libra on Tech Features https://www.coindesk.com/new-head-of-chinas-digital-currency-says-it-beats-facebook-libra-on-tech-features via @CoinDesk . I like it that they are thinking about peer to peer transfer 	en	9	1	6		2019-09-07T05:50:38.000Z	93	6,711				
1170195454258241536	62	gregkidd	Facebooks efforts to correct privacy and security vulnerabilities unfortunately morphs into anti-competitive behavior by interfering with users rights to share their data as they see fit. Trying to control "use" through restricting "access" is abusive. 	en	14	1	1		2019-09-07T04:41:52.000Z	93	6,711				
1170194426087530497	62	gregkidd	2014: The Year of China’s Digital Cambrian Explosion https://macropolo.org/china-technology-cambrian-explosion/ @MacroPoloChina . captures the WeChat effect 	en	8	0	8		2019-09-07T04:37:46.000Z	93	6,711				
1168749485700210688	62	gregkidd	Come to our Self Sovereign Identity Incubator kick-off meeting at Digital Garage on September 17! 	en	13	1	4		2019-09-03T04:56:06.000Z	93	6,711				
1168736500613124097	62	gregkidd	What Is Driving The 'Unbanking Of America'? https://n.pr/2ic3H2O The harsh economic reality of overdraft fees -- a hidden tax on the underbanked 	en	12	0	9		2019-09-03T04:04:30.000Z	93	6,711				
1168730357081853952	62	gregkidd	The Gap Between Cash App and Venmo Is Getting Bigger @themotleyfool #stocks $SQ $PYPL https://www.fool.com/investing/2019/08/27/the-gap-between-cash-app-and-venmo-is-getting-bigg.aspx I'm proud! Well done Square 	en	6	1	3		2019-09-03T03:40:05.000Z	93	6,711				
1168030649237655552	62	gregkidd	Telegram Pushes Ahead With Plans for ‘Gram’ Cryptocurrency https://nyti.ms/30HU574 I'm very curious about how this will work from a compliance point of view (or won't work as the case may be). Tally ho! 	en	17	0	5		2019-09-01T05:19:42.000Z	93	6,711				
1167263621581365251	62	gregkidd			13	0	4		2019-08-30T02:31:48.000Z	93	6,711				
1164937051516493824	62	gregkidd	China’s Social Media Campaign to Divide Hong Kong Should Worry Us All by @WillOremus 	en	7	1	1		2019-08-23T16:26:51.000Z	93	6,711				
1164692887398838277	62	gregkidd	Check out "The State of Decentralized Identity" in SF, i am hosting the SSI Incubator. https://www.eventbrite.com/e/the-state-of-decentralized-identity-tickets-66369592237?utm-medium=discovery&amp;utm-campaign=social&amp;utm-content=attendeeshare&amp;aff=estw&amp;utm-source=tw&amp;utm-term=listing @Eventbrite 	en	16	0	6		2019-08-23T00:16:37.000Z	93	6,711				
1164691868635947008	62	gregkidd	Really excited to speak at @Money2020 USA on Oct. 27-30! Join me in Las Vegas &amp; save $250 on your pass with code JOURNEY: https://goo.gl/sMbQAY 	en	40	1	10		2019-08-23T00:12:35.000Z	93	6,711				
1162557092655353856	62	gregkidd	Telegram Vs. Facebook: The Ultimate Showdown for Crypto Supremacy https://cointelegraph.com/news/telegram-vs-facebook-the-ultimate-showdown-for-crypto-supremacy via @cointelegraph 	en	16	1	3		2019-08-17T02:49:44.000Z	93	6,711				
1160339163461238784	62	gregkidd	FedNow Real-Time Payments Announcement Gets Predictable Responses https://thefr.com/news/185-fednow-real-time-payments-announcement-gets-predictable-responses hey it will be ready in only 5 years (WTF) 	en	46	6	21		2019-08-10T23:56:29.000Z	93	6,711				
1159332900195618816	62	gregkidd	Popularity of Square’s Cash App mobile-payment method among rappers takes executives by surprise. “Something we weren’t expecting.” https://www.wsj.com/articles/dont-venmo-iggy-azalea-cash-app-rules-rap-11565191206?shareToken=st6ab19f19110944fc85037bd8a65eaf82 via @WSJ 	en	11	0	3		2019-08-08T05:17:57.000Z	93	6,711				
1157825455040286720	62	gregkidd	Applications have closed and we have a great pool for: https://ssiincubator.com/ 	en	19	0	3		2019-08-04T01:27:54.000Z	93	6,711				
1154550916990717952	62	gregkidd	https://link.medium.com/mRoH5lVKCY . Well reasoned on Libra being more about identity than currency 	en	26	0	10		2019-07-26T00:36:03.000Z	93	6,711				
1153655341432918016	62	gregkidd	Evolution of the 2019 Tour de France overall standings through stage 15 | http://Cyclingnews.com http://www.cyclingnews.com/news/evolution-of-the-2019-tour-de-france-overall-standings-through-stage-15/ . Great graphic here 	en	3	1	1		2019-07-23T13:17:21.000Z	93	6,711				
1153354637899993088	62	gregkidd	We are launching an Identity Incubator in September with Sovrin @SovrinID 	en	44	4	13		2019-07-22T17:22:28.000Z	93	6,711				
1151757026566868992	62	gregkidd	https://pv.glenbrook.com/in-zuck-we-trust . Pretty good analysis of Libra 	en	10	0	4		2019-07-18T07:34:08.000Z	93	6,711				
1150597130630733824	62	gregkidd	Don’t Count on Government to Protect Your Privacy https://nyti.ms/2LkEJBj . the world is moving closer to a globaliD vision of portable identity that is not a monopoly of any government or company. Lots of work to be done but we are on the path 	en	35	0	15		2019-07-15T02:45:07.000Z	93	6,711				
1149412027661574144	62	gregkidd	It is with great pride to announce that Sovrin has partnered with Hard Yaka &amp; @gregkidd to launch the Self-Sovereign Identity Incubator @ssi_incubator - a place to help foster the next generation of self-sovereign identity solutions. First cohort begins Sept 9 in SF. Apply today! 	en	34	1	21	SovrinID	2019-07-11T20:15:57.000Z	93	6,711				
1149868547062956032	62	gregkidd	Brian Armstrong, co-founder and chief executive at Coinbase, a U.S. platform for buying and selling bitcoin and other cryptocurrencies, wrote on Twitter. “First they ignore you, then they laugh at you, then they fight you, then you win. We just made it to step 3 y’all.” 	en	163	6	53		2019-07-13T02:29:59.000Z	93	6,711				
1147674686483943424	62	gregkidd	The big birthday. Older but hopefully wiser 	en	38	15	2		2019-07-07T01:12:22.000Z	93	6,711				https://pbs.twimg.com/media/D-1cCwLU8AMQalQ?format=jpg&amp;name=360x360
1147359758329888769	62	gregkidd	Why Square’s Commitment to Open Source is a Big Deal for Crypto by @TMacheel 	en	16	0	5		2019-07-06T04:20:57.000Z	93	6,711				
1147345488229781504	62	gregkidd	https://drive.google.com/file/d/1It71_QSUfzITpTS1En3WBdKhQX22bp_A/view Most thoughtful view on why (or why not) crypto will garner mainstream adoption 	en	13	1	6		2019-07-06T03:24:15.000Z	93	6,711				
1147339774312644608	62	gregkidd	1994: "Today Show": "What is the Internet, Anyway?" https://youtu.be/UlJku_CSyNg via @YouTube 	en	16	1	3		2019-07-06T03:01:33.000Z	93	6,711				
1145689872985837569	62	gregkidd	Taking a Page from the Backpage misdirection 	en	3	0	1		2019-07-01T13:45:26.000Z	93	6,711				
1145531181292638208	62	gregkidd	Libra, a Cyberpunk Nightmare in the Midst of Crypto Spring by @Dan_Jeffries1 https://medium.com/p/libra-a-cyberpunk-nightmare-in-the-midst-of-crypto-spring-5543b6f6e34b 	en	23	1	9		2019-07-01T03:14:51.000Z	93	6,711				
1145368216459309056	62	gregkidd	Facebook’s Libra Masterplan by @ercwl https://medium.com/p/the-libra-masterplan-dc9560e41c87 Well covers the role that identity (and the gaps in identity) play in the Facebook master plan 	en	18	1	8		2019-06-30T16:27:17.000Z	93	6,711				
1142920705241075713	62	gregkidd	Round-Up of Crypto Exchange Hacks So Far in 2019 — How Can They Be Stopped? https://cointelegraph.com/news/round-up-of-crypto-exchanges-hack-so-far-in-2019-how-can-it-be-stopped via @cointelegraph 	en	11	3	8		2019-06-23T22:21:45.000Z	93	6,711				
1138811023152992257	62	gregkidd	Coinbase launches its cryptocurrency debit card in six more countries in Europe https://cnb.cx/31qsesL Another step forward for Apto (formerly Shift) 	en	34	5	5		2019-06-12T14:11:20.000Z	93	6,711				
1137906282793295872	62	gregkidd	interesting perspective on monopoly harm through privacy abuses: 	en	10	0	4		2019-06-10T02:16:13.000Z	93	6,711				
1136238702408163340	62	gregkidd	Mastercard signs partnership with UK fintech startup Yoyo Wallet 	en	19	0	4		2019-06-05T11:49:51.000Z	93	6,711				
1135725351504613376	62	gregkidd	https://www.digfingroup.com/greg-kidd/ . Just out post Bangkok 	en	9	2	4		2019-06-04T01:49:59.000Z	93	6,711				
1135426644615806976	62	gregkidd	Opinion: Will Facebook become the Paypal of Crypto? http://blockchainassetreview.com/opinion-will-facebook-be-the-paypal-of-crypto/ can't say that I disagree with the thinking here 	en	19	4	7		2019-06-03T06:03:01.000Z	93	6,711				
1134656795472027648	62	gregkidd	https://www.nytimes.com/2019/05/31/us/spellpundit-scripps-spelling-bee.html?smid=nytcore-ios-share via @NYTimes 	und	4	1	3		2019-06-01T03:03:55.000Z	93	6,711				
1131631046909415425	62	gregkidd	Is identity and KYC a public good? Join us at @money2020 Europe—where globaliD co-founder and CEO @gregkidd will be on-stage discussing the future of KYC in banking (Wednesday, June 5th, 10:10AM on the Commercial stage) 	en	15	1	8	myglobal_id	2019-05-23T18:40:40.000Z	93	6,711				https://pbs.twimg.com/media/D7RcFgRXsAAOF9B?format=jpg&amp;name=360x360
1130985925234778112	62	gregkidd	Completely agree with @gregkidd ^_^ The future for the payment has arrived, but you just don’t see it yet in the US and Europe — most likely because early innovation now take place in Asia and makes the West slow adopters of future solutions. 	en	19	1	9	edithyeung	2019-05-21T23:57:11.000Z	93	6,711				
1131057229560307713	62	gregkidd			20	1	11		2019-05-22T04:40:32.000Z	93	6,711				
1130889406389207042	62	gregkidd	excited for Marqeta. Have come a long way since our hackathon card for Square 	en	8	0	4		2019-05-21T17:33:40.000Z	93	6,711				
1130720636886667264	62	gregkidd	Beyond KYC: Regulators Set to Adopt Tough New Rules for Crypto Exchanges https://www.coindesk.com/beyond-kyc-global-regulators-appear-set-to-adopt-tough-new-rules-for-crypto-exchanges via @CoinDesk . one way to comply would be to have both parties have a globaliD so access to the required data is pre-authorized rather that sent 	en	52	4	22		2019-05-21T06:23:02.000Z	93	6,711				
1130701030444847104	62	gregkidd	60 Minutes on Danske Bank (Promontory client) and Bitcoin: 	en	11	1	1		2019-05-21T05:05:07.000Z	93	6,711				
1285940320899743744	64	livia	California's lone wolf pack adds 8 newborn pups. And the father is a bit of a mystery 	en	1	0	0		2020-07-22T14:10:38.000Z	82	9,195				
1280600611197718529	64	livia	Opinion | Let’s not mince words. Trump is racist. 	en	1	0	0		2020-07-07T20:32:32.000Z	82	9,195				
1280235805861183496	64	livia	The Standing Rock Sioux Tribe knows the meaning of perseverance. My heart is full! 	en	1	0	0		2020-07-06T20:22:56.000Z	82	9,195				
1273770904242323460	64	livia	The officer who murdered Cameron Lamb was just INDICTED on manslaughter charges. But as @MeritLaw says, we need more. @realDonaldTrump and AG Barr promised Cameron's family that they'd open a federal investigation. RT this video to make sure they keep that promise! 	en	651	25	1071	grassroots_law	2020-06-19T00:13:43.000Z	82	9,195		blob:https://twitter.com/2900e4d9-fb45-4647-90b9-41ab080f7a3b	https://pbs.twimg.com/ext_tw_video_thumb/1273770645093056514/pu/img/5oU1jAG5mrz1JGWG.jpg	
1269021198408548352	64	livia	Breonna Taylor should be celebrating her birthday today. Let's honor her life today, and every day and continue to call for #JusticeforBre . She was essential and her family needed her. @louisvillemayor , fire the officers now! Dial Fischer at 844-298-2731. 	en	0	0	0		2020-06-05T21:40:05.000Z	82	9,195				
1267459874788646912	64	livia	I wrote out some thoughts on how to make this moment a real turning point to bring about real change––and pulled together some resources to help young activists sustain the momentum by channeling their energy into concrete action. 	en	926972	49962	291638	BarackObama	2020-06-01T14:15:57.000Z	82	9,195				
1266365308249321475	64	livia	We’ll Need an Economic Program to Make . Here Are Three Ideas. via @thenation 	en	0	0	0		2020-05-29T13:46:32.000Z	82	9,195				
1266001734041653248	64	livia	Another unarmed black person has been killed. It’s no wonder we can’t breathe. 	en	0	0	0		2020-05-28T13:41:49.000Z	82	9,195				
1258571656206749696	64	livia	((🖖)) The soultion to my hand shaking conundrum has been there all along. Live long and prosper, friends. 	en	2	0	0		2020-05-08T01:37:20.000Z	82	9,195				
1243194689416646656	64	livia	#SolidarityAt8 We are IN here in Mill Valley CA! Thank you healthcare workers, hospital security and janitors and staff! 	en	10	1	1	hughkuhn	2020-03-26T15:14:46.000Z	82	9,195				https://pbs.twimg.com/media/EUC2-iuVAAARdiR?format=jpg&amp;name=360x360
1241384313901305857	64	livia	This lady for president. 	en	0	0	1		2020-03-21T15:20:58.000Z	82	9,195				
1240390038942289920	64	livia	I just supported Coronavirus Relief: Keep Kids Learning on DonorsChoose. Help a classroom in need today. 	en	47	7	11	biz	2020-03-18T21:30:05.000Z	82	9,195				
1239995534309347328	64	livia	10 Days Later: What Italians Wish They Had Known 	en	0	0	0		2020-03-17T19:22:28.000Z	82	9,195				
1238858594524659712	64	livia	I love this. Viva l’Italia! BBC News - Coronavirus: Italians sing from their windows to boost morale 	en	1	0	0		2020-03-14T16:04:40.000Z	82	9,195				
1185313404304543744	64	livia	From #HarryPotter to #FantasticBeasts , @pottermore and beyond. This is #MyWizardingWorld . What’s yours? 	en	1	0	0		2019-10-18T21:55:12.000Z	82	9,195				
1118124953772199936	64	livia	Victor Hugo remercie tous les généreux donateurs prêts à sauver Notre-Dame de Paris et leur propose de faire la même chose avec Les Misérables. 	fr	38018	670	19606	opourriol	2019-04-16T12:12:17.000Z	82	9,195				
1109631806129631232	64	livia	Yessss! I am now a proud patron of Diarus Jackson on @Patreon , and you should be too: 	en	1	0	0		2019-03-24T01:43:33.000Z	82	9,195				
1055877318437044224	64	livia	Help Standing Rock Vote - http://gf.me/u/m6catk via @gofundme 	en	1	0	0		2018-10-26T17:42:24.000Z	82	9,195				
1055876658240999425	64	livia	Help Standing Rock Vote https://www.gofundme.com/helpStandingRockvoters?pc=tw_dn_cpgntopnavlarge_r&amp;rcid=r01-154057520457-468bc4d48a0d4517 	en	1	0	0		2018-10-26T17:39:47.000Z	82	9,195				
1055851575065767937	64	livia	Vote ‘Em Out. Love you Willie. https://youtu.be/bt-n0zu6MjM via @YouTube 	en	0	0	0		2018-10-26T16:00:06.000Z	82	9,195				
1019320423182286848	64	livia			3	0	0		2018-07-17T20:38:21.000Z	82	9,195				
1017829747164893185	64	livia	“We have to love radically, we have to love madly, we have to love boldly, more importantly we have to love openly.” -Jasha Lyons Echo-Hawk, Indigenous mother and member of the Seminole, Creek, Pawnee, Omaha and Iowa nations. Send us your #LoveMeltsIce videos #ReuniteEveryChild 	en	259	5	104	RAICESTEXAS	2018-07-13T17:54:56.000Z	82	9,195		blob:https://twitter.com/68dee679-ae82-4793-a3ac-ee9b245ac268	https://pbs.twimg.com/ext_tw_video_thumb/1017829401004670978/pu/img/0DN8Z9Qf0YWV9jWt.jpg	
1014506595362004992	64	livia	Internment camps and children being stolen from their families isn't new to America. Ask any Native American still living on the government built reservations that still exist in this country today. #nooneisillegalonstolenland #IndependanceDay #familiesbelongtogether 	en	408	26	150	JenniferKFalcon	2018-07-04T13:49:55.000Z	82	9,195				
1012783146385862657	64	livia	I just contributed on @theactionnet : RAICES Bond Fund: FREE our Families. Contribute here: https://actionnetwork.org/fundraising/bondfund?source=twitter&amp; 	en	0	0	0		2018-06-29T19:41:33.000Z	82	9,195				
1008804392353583104	64	livia	On behalf of the famlies we can serve thanks to your generosity, we say THANK YOU. We will keep fighting. We will keep working. You make it possible. #EndFamilySeparation #FamiliesBelongTogether http://bit.ly/RAICESbondfund 	en	9544	190	4283	RAICESTEXAS	2018-06-18T20:11:24.000Z	82	9,195		blob:https://twitter.com/ba8ee41b-a6a9-4e2d-9cae-f5cadf7e1392	https://pbs.twimg.com/ext_tw_video_thumb/1008803632102273024/pu/img/BxQCXiP5YI-FUrIs.jpg	
995996964192858112	64	livia	Retweet if you think recycling bins are a worthy investment. My school only has two, and many kids don’t have the time to make it to them in between classes. Even one more could make all the difference. (It’s for a class project so every retweet counts!!!) 	en	38	5	53	maddierecycles	2018-05-14T11:59:15.000Z	82	9,195				
978661709807153152	64	livia	John Paul Stevens: Repeal the Second Amendment 	en	0	0	0		2018-03-27T15:55:08.000Z	82	9,195				
960378578138484737	64	livia	OMG someone overlayed that ridiculous Dodge/MLK ad with what King actually said about capitalism and car commercials 	en	81731	970	47230	AsteadWesley	2018-02-05T05:04:30.000Z	82	9,195		blob:https://twitter.com/feab64d7-34dd-487e-b0a7-ab427286b771	https://pbs.twimg.com/ext_tw_video_thumb/960377895054082048/pu/img/TWLwFQhwHggw4T3a.jpg	
918270165673951232	64	livia	Right now, every MCFD employee is on duty -- that's about 175 people, full-timers plus seasonals. Our hotline: 415-473-7191. #NorthBayFires 	en	146	8	56	marincountyfire	2017-10-12T00:20:42.000Z	82	9,195				
896523232098078720	64	livia	"No one is born hating another person because of the color of his skin or his background or his religion..." 	en	4339898	68340	1640438	BarackObama	2017-08-13T00:06:09.000Z	82	9,195				https://pbs.twimg.com/media/DHEXH7RV0AAUwKj?format=jpg&amp;name=360x360
890602044918185984	64	livia	YES! Star Trek Video - Star Trek: Discovery - Official Trailer - http://CBS.com http://www.cbs.com/shows/star-trek-discovery/video/P4FfTDBF_snx8JLGRXSkU7XXKYIDK70h/star-trek-discovery-official-trailer/?intcid=CIA-00-10adh0g 	en	2	1	0		2017-07-27T15:57:28.000Z	82	9,195				
876827555105357824	64	livia	I've taken a 6-year hiatus, but now I'm back. I'm taking an online class at College of Marin. We're using Twitter. Life is strange! #Engl151 	en	6	2	0		2017-06-19T15:42:34.000Z	82	9,195				
45148427218202624	64	livia	I love this teacher's idea for helping students: Forensic Science for 7th graders! http://www.donorschoose.org/twt-pty/482877 	en	10	8	7		2011-03-08T15:46:38.000Z	82	9,195				
36971733126742016	64	livia	Just released a barn owl in Napa. My advice is always the same: don't eat poisoned rats and make lots of babies. 	en	5	1	5		2011-02-14T02:15:22.000Z	82	9,195				
35759387863826432	64	livia	Hey San Francisco: You're dead to me. DEAD TO ME. http://yfrog.com/h2os8xdj 	en	16	2	97	petershankman	2011-02-10T17:57:57.000Z	82	9,195				
35770984250220544	64	livia	Two red-shouldered hawks are professing their love for each other in my neighborhood. Happy Valentine's Day! 	en	1	0	5		2011-02-10T18:44:01.000Z	82	9,195				
35171733971406848	64	livia	Valentine’s Day? Not For Birds | Blog | eNature http://shar.es/3q8db "Divorce is also common among birds, particularly in birds of prey" 	en	1	0	1		2011-02-09T03:02:49.000Z	82	9,195				
35007917295927296	64	livia	Michael Vick got the keys to the city of Dallas? I think whoever did that should be thrown into the middle of a dogfight with his hands tied 	en	3	1	5		2011-02-08T16:11:52.000Z	82	9,195				
29934552021467136	64	livia	First day of class at College of Marin. I feel as awkward as I did the first day of high school, and I have a bog ole pimple. Good times. 	en	1	0	1		2011-01-25T16:12:08.000Z	82	9,195				
22333635705184256	64	livia	I love this teacher's idea for helping students: http://bit.ly/bszWM5 	en	14	0	15		2011-01-04T16:48:48.000Z	82	9,195				
21611008292294657	64	livia	@FarmSanctuary has a video in the top ten for 2010 on http://cuteoverload.com/ !!! Also why are baby bunnies so cute? It's unbearable. 	en	1	0	2		2011-01-02T16:57:20.000Z	82	9,195				
21353168898097153	64	livia	There comes a point in your life when you realize: who matters, who never did, who won't anymore... And who always will. 	en	15	1	94	thejohnsalley	2011-01-01T23:52:46.000Z	82	9,195				
18830253006782464	64	livia	The pain of the @celtics Christmas Day loss is made slightly more bearable by Kobe's ass being handed to him by LeBron. BEAT L.A.! 	en	2	0	0		2010-12-26T00:47:36.000Z	82	9,195				
18523831610122240	64	livia	Watching the 1952 Colgate Comedy Hour Christmas Special with Abbott &amp; Costello. Complete w/ ads. Wild whacky stuff! http://yfrog.com/gyfa3lj 	en	0	0	0		2010-12-25T04:30:00.000Z	82	9,195				
18498863673376768	64	livia	@Giorgetta That was the same year, right? 	en	1	0	0		2010-12-25T02:50:47.000Z	82	9,195				
18396675831762944	64	livia	Telling @biz about The Best Xmas Ever on which I got the just-released Saturday Night Fever soundtrack. #DateYourself 	en	3	0	0		2010-12-24T20:04:43.000Z	82	9,195				
18355046613786624	64	livia	@deantheghost Yes, here's a good article on it: http://birding.about.com/od/birdfeeders/a/feedingducksbread.htm 	en	0	0	0		2010-12-24T17:19:18.000Z	82	9,195				
18354103218348033	64	livia	Congratulations Lieutenant Bell! I am one proud sister!! http://www.police.nashville.org/news/media/2010/12/23c.htm 	en	0	0	0		2010-12-24T17:15:33.000Z	82	9,195				
15601965350260737	64	livia	@mrpenguino beanelf.org 	en	1	0	0		2010-12-17T02:59:33.000Z	82	9,195				
15068595679657984	64	livia	http://huff.to/eS1nds Child Nutrition Act: Water must be available &amp; free at school; bonuses for breastfeeding. Sad that we need this bill! 	en	1	0	0		2010-12-15T15:40:07.000Z	82	9,195				
15062553646333952	64	livia	RT @LeapingBunny : It's here...the Cruelty-Free App for Android! Scan code here or search the marketplace on your phone http://fb.me/Dy1rsaQZ 	en	2	0	1	thebuav	2010-12-15T15:16:07.000Z	82	9,195				
14864329241272320	64	livia	@margery There were more explosions and they're all dead. 	en	1	0	0		2010-12-15T02:08:26.000Z	82	9,195				
14716247203643392	64	livia	Aaron Sorkin: Palin Killing Animals For Fun http://huff.to/i7Q1Qt via @huffingtonpost 	en	1	0	1		2010-12-14T16:20:01.000Z	82	9,195				
14423366513463296	64	livia	@al Sometimes they land in parking lots that are wet because it looks like water. 	en	0	0	0		2010-12-13T20:56:13.000Z	82	9,195				
13992903428800512	64	livia	My body could feed 35 hungry weasels! http://theoatmeal.com/quiz/weasels via @oatmeal (but actually I would prefer sky burial) 	en	1	0	1		2010-12-12T16:25:42.000Z	82	9,195				
13694225916887041	64	livia	I really hope the king dies at the end of this. He's a real creep. 	en	0	0	0		2010-12-11T20:38:52.000Z	82	9,195				
13675333903458304	64	livia	At a 4 1/2 hour "live at the met" opera (Don Carlo). Nobody is wearing Celtics gear but me. 	en	1	0	1		2010-12-11T19:23:48.000Z	82	9,195				
11497057730699264	64	livia	@GreenPepper2 no 	und	0	0	0		2010-12-05T19:08:06.000Z	82	9,195				
11115606443040768	64	livia	Daily Show: America's Tweetheart http://shar.es/XgmLi Luv the G-burg address! 	en	3	0	10		2010-12-04T17:52:21.000Z	82	9,195				
9771273689239553	64	livia	I voted to send Kevin Garnett from Boston to the 2011 NBA All-Star Game. http://www.nba.com/ASB 	en	0	0	0		2010-12-01T00:50:27.000Z	82	9,195				
8735669417410561	64	livia	Life is better with cats lumped on top of you. 	en	14	0	12	goldman	2010-11-28T04:15:20.000Z	82	9,195				
8283196567330816	64	livia	http://twitpic.com/3agkf0 	und	1	0	1	popodoug	2010-11-26T22:17:22.000Z	82	9,195				
7423701746196480	64	livia	Sweet Jesus, add a mammogram and prostate screening to #TSA , call it the "public option" &amp; it'll be gone by Friday. 	en	37	0	370	shannynmoore	2010-11-24T13:22:03.000Z	82	9,195				
7072222963310592	64	livia	I miss my animals http://yfrog.com/japtkwj 	en	0	0	0		2010-11-23T14:05:24.000Z	82	9,195				
7038569738665984	64	livia	UK influence: My new fave expression is it's gone pear-shaped; @biz is constantly saying "yer-eyne" (urine) after watching Grime Busters. 	en	0	0	0		2010-11-23T11:51:40.000Z	82	9,195				
7009371884101632	64	livia	Biz at the Morse Bar http://yfrog.com/6zw4xrj 	en	0	0	0		2010-11-23T09:55:39.000Z	82	9,195				
6734173775593472	64	livia	If you are ever in Oxford &amp; need Vegan fare, hit The Pink Giraffe and Al-Shami. Lots of selection, clearly marked, and they get the concept. 	en	0	0	0		2010-11-22T15:42:06.000Z	82	9,195				
6470441468174336	64	livia	@biz just said "How many more times do I have to hear the words 'the pope' and 'condoms' in the same sentence?" 	en	0	0	0		2010-11-21T22:14:08.000Z	82	9,195				
6110051274067968	64	livia	At the Eagle &amp; Child. Of course, I ordered this! http://yfrog.com/6e8byhj 	en	0	0	0		2010-11-20T22:22:04.000Z	82	9,195				
5947948055666688	64	livia	Just saw Chaucer's tomb at Westminster Abbey. Apparently he was a hobbit. 	en	0	0	0		2010-11-20T11:37:55.000Z	82	9,195				
5545775559872512	64	livia	Going to see HP 7 in London!!! http://yfrog.com/b9doddj 	en	0	0	1		2010-11-19T08:59:50.000Z	82	9,195				
5057778473242626	64	livia	I have 20 books on my kindle and a mini needlepoint project in my carry on. Ready for a transatlantic journey! 	en	2	0	0		2010-11-18T00:40:43.000Z	82	9,195				
4720412973862912	64	livia	Our Country Director for Cambodia on rebuilding, post Khmer Rouge, by educating girls: http://bit.ly/a9uTFC 	en	1	0	10	johnwoodRTR	2010-11-17T02:20:08.000Z	82	9,195				
4923186189697025	64	livia	@johnwoodRTR AWESOME 	en	1	0	0		2010-11-17T15:45:53.000Z	82	9,195				
4868874688266241	64	livia	I see folks are walking around THAT CAN MEAN ONLY ONE THING mealtime OKAY FINE THAT'S THE ONLY THING THAT MEANS ANYTHING 	en	10	0	23	sockington	2010-11-17T12:10:04.000Z	82	9,195				
4920784149549056	64	livia	@popodoug @biz Sounds delicious! 	en	0	0	0		2010-11-17T15:36:21.000Z	82	9,195				
4340301560815616	64	livia	@ev Draw a mustache on it! 	en	0	0	0		2010-11-16T01:09:43.000Z	82	9,195				
3195401649790976	64	livia	Ridiculously cute. http://yfrog.com/jjiu6ij 	en	0	0	0		2010-11-12T21:20:17.000Z	82	9,195				
3185487011381248	64	livia	Big Red Dogs http://shar.es/0VNL9 Defending puppy mills? Really? Bravo to the Daily Show for exposing this idiot as the Cruella she really is 	en	0	0	3		2010-11-12T20:40:53.000Z	82	9,195				
2922476807921665	64	livia	Am I the only one who finds the Jack in the Box mascot to be the stuff of nightmares? 	en	0	0	0		2010-11-12T03:15:47.000Z	82	9,195				
1192829056447864832	67	andykeep	Really looking forward to it! 	en	9	3	1		2019-11-08T15:39:43.000Z	388	2,243				
1192787360288825345	67	andykeep	I'm thrilled that @andykeep has accepted to give a keynote and a workshop on his Nanopass Framework at ELS2020. ((😀)) Stay tuned for more updates soon! 	en	6	1	2	ioa_27	2019-11-08T12:54:02.000Z	388	2,243				
1162356846017024006	67	andykeep	Leaving for ICFP’19 in Berlin! 	en	7	0	0		2019-08-16T13:34:02.000Z	388	2,243				
1150472141076410368	67	andykeep	Wow, between the virtual assistant, lack of response on twitter, and problems with the call back @XboxSupport is pretty hard to get. 	en	1	0	0		2019-07-14T18:28:27.000Z	388	2,243				
1129906343463276545	67	andykeep	Update! 20th anniversary Scheme Workshop deadline EXTENDED to June 7th. Keynotes by @andykeep and @edwinbrady . The Scheme Workshop is an excellent venue for student research and work in progress. Call for papers: https://thomas.gilray.org/scheme-2019/ 	en	12	0	23	schemeworkshop	2019-05-19T00:27:19.000Z	388	2,243		https://video.twimg.com/tweet_video/D645Y8yXYAABx8G.mp4	https://pbs.twimg.com/tweet_video_thumb/D645Y8yXYAABx8G.jpg	
1127735954154954753	67	andykeep	Hey Mom, still up for a call? 	en	3	1	0		2019-05-13T00:42:58.000Z	388	2,243				
1125413019767361536	67	andykeep	It’s really dangerous to be reading twitter as I fall asleep apparently. I need the twitter setting the recognizes it is just my face against the iPad keyboard. 	en	2	0	0		2019-05-06T14:52:27.000Z	388	2,243				
1116774877053112320	67	andykeep	CFP for Scheme 2019 is up! Submission deadline May 24th. Help us celebrate twenty years of @schemeworkshop . https://thomas.gilray.org/scheme-2019/ (Please spread far and wide!) 	en	10	0	9	schemeworkshop	2019-04-12T18:47:34.000Z	388	2,243				
1100438981617963009	67	andykeep	One of the most impressive things C did was to convince people that its runtime doesn’t exist. 	en	1199	29	250	pcwalton	2019-02-26T16:54:33.000Z	388	2,243				
1018912301108334592	67	andykeep	Ugh, iTunes for some reason decided to unsubscribe me from @hellobuglers and this week (after having resubscribed) decided to drop it entirely. I wonder what else I've lost? 	en	1	0	0		2018-07-16T17:36:37.000Z	388	2,243				
1004009347662405632	67	andykeep	Hi if you think Kelly Marie Tran / Rose Tico's presence in Star Wars changed the franchise for the better, please RT so we can drown out the manbabies. 	en	58661	2123	62088	suzannesamin	2018-06-05T14:37:36.000Z	388	2,243		https://video.twimg.com/tweet_video/De71ExyWAAAWip3.mp4	https://pbs.twimg.com/tweet_video_thumb/De71ExyWAAAWip3.jpg	
968907088096210944	67	andykeep	A self-hosting Scheme to WebAssembly compiler in less than 1000 lines of code: https://github.com/google/schism/blob/master/schism/compiler.ss #Scheme #WebAssembly 	en	127	2	53	theinedibleholk	2018-02-28T17:53:45.000Z	388	2,243				
936797453172465664	67	andykeep	UPDATE: Republicans rejected our motion to adjourn until Monday so senators could read the bill they just introduced. RT If you think senators should have time to read a bill that affects every single American. 	en	124569	5158	159025	SenFeinstein	2017-12-02T03:21:32.000Z	388	2,243				
886187584787025920	67	andykeep	Bag drop line @Delta RDU... I used Sky Cap, but geez. 	en	2	1	0		2017-07-15T11:35:59.000Z	388	2,243				https://pbs.twimg.com/media/DExe58IUIAAGtur?format=jpg&amp;name=360x360
830161525189001216	67	andykeep	RT if you've called, emailed or wrote a letter to a government office, agency or elected official since Jan 1st. 	en	13290	332	26379	alwaystheself	2017-02-10T21:08:25.000Z	388	2,243				
756117149844779008	67	andykeep	Wow the @united bag drop at RDU is understaffed, one person working---has been on same customer for 10 minutes with a dozen people waiting. 	en	0	1	0		2016-07-21T13:22:31.000Z	388	2,243				
739918695414140932	67	andykeep	Registration for the (sixth #RacketCon ) is now open! http://con.racket-lang.org/ 	en	4	0	20	racketlang	2016-06-06T20:35:38.000Z	388	2,243				
711962443023564800	67	andykeep	I remember when twitter was primarily done over over SMS. And SMS was 160 characters. (Hence the 140 character restriction.) 	en	2	0	1		2016-03-21T17:07:28.000Z	388	2,243				
711961903879299072	67	andykeep	Wow, 10 years of twitter. Time flies. I'm a little nostalgic for fail whale, not that I actually want to see fail whale! 	en	2	0	1		2016-03-21T17:05:20.000Z	388	2,243				
651881731507683328	67	andykeep	I think "today's" California St cable car on the video at the SF Cable Cr museum is probably actually 1970's cable car. 	en	0	0	0		2015-10-07T22:08:10.000Z	388	2,243				
638757659743617024	67	andykeep	Pardon my language, but that was a fucking awesome keynote by Mary Sheeran #ICFP 	en	6	1	2	lambda_calculus	2015-09-01T16:57:48.000Z	388	2,243				
638128564315910144	67	andykeep	On my way to Vancouver for ICFP'15 (and SchemeWorkshop). Looking forward to seeing friends, new people, and interesting presentations. 	en	1	1	1		2015-08-30T23:18:00.000Z	388	2,243				
632360685524099072	67	andykeep	Love that the DJ setting up at the brew pub I am at has a @wunc sticker on the case of one of his decks. 	en	0	0	0		2015-08-15T01:18:30.000Z	388	2,243				
604684177473183744	67	andykeep	Just a little over one day left for submissions! Extended CFP Deadline is tomorrow, Sunday, May 31st! Please submit! 	en	0	0	2	schemeworkshop	2015-05-30T16:21:57.000Z	388	2,243				
594955019558002689	67	andykeep	RT if you want a Black Widow's solo movie #Avengers 	en	560	35	2019	InfinityWarM	2015-05-03T20:01:45.000Z	388	2,243				https://pbs.twimg.com/media/CEG0b2KWAAAMyNx?format=jpg&amp;name=360x360
585265319385681921	67	andykeep	OMG I just discovered I can play pac-man on Google maps. Why have you given me another distraction just because I'm finding directions? 	en	2	0	0		2015-04-07T02:18:20.000Z	388	2,243				
583162061468758016	67	andykeep	Oof, this is bad: Somebody got a list of ALL US SSNs :( #SSNHack 	en	2	3	8	diabolical_mdog	2015-04-01T07:00:44.000Z	388	2,243				
581978670102757376	67	andykeep	Verifying myself: I am akeep on Keybase.io. CavtCCD9Db0vVlKkFI-uC1IcQ6KA7nt34Rms / https://keybase.io/akeep/sigs/CavtCCD9Db0vVlKkFI-uC1IcQ6KA7nt34Rms 	en	1	0	0		2015-03-29T00:38:22.000Z	388	2,243				
581978579132637184	67	andykeep	Verifying myself: I am akeep on Keybase.io. CavtCCD9Db0vVlKkFI-uC1IcQ6KA7nt34Rms / https://keybase.io/akeep/sigs/CavtCCD9Db0vVlKkFI-uC1IcQ6KA7nt34Rms 	en	0	0	0		2015-03-29T00:38:00.000Z	388	2,243				
546313289417129987	67	andykeep	Did not expect it to be snowing this morning when I walked out of my apartment. 	en	0	0	0		2014-12-20T14:36:52.000Z	388	2,243				
546042437563871232	67	andykeep	Interesting, the @USAirways iPhone app shows the correct itinerary on the 'My Trips' page, but the details are for someone else's flight. 	en	0	2	0		2014-12-19T20:40:36.000Z	388	2,243				
540887384297332736	67	andykeep	Q: How many golf balls fit on a schoolbus? A: Just hire somebody else 	en	1654	46	1693	eventi	2014-12-05T15:16:16.000Z	388	2,243				
537254062333628416	67	andykeep	I just got an email from @hallmark that started playing a (looping) television advertisement. Holy crap that is annoying. #unsubscribe 	en	0	0	0		2014-11-25T14:38:44.000Z	388	2,243				
508295062220845056	67	andykeep	Pies: 2 apple, 1 vegan apple, 2 strawberry-rhubarb, 1 vegan strawberry-rhubarb, 2 blueberry, 2 cherry, 2 pecan. That's a lot of pies. 	en	1	1	0		2014-09-06T16:46:01.000Z	388	2,243				
508294395330719744	67	andykeep	My mom and I just put the last of 12 pies baked over 4 days for my brother and his fiancé's wedding. 	en	0	0	0		2014-09-06T16:43:22.000Z	388	2,243				
455026569850138624	67	andykeep	Weird @toddaaro you should stop blocking @extempore2 :) (or hit up twitter support about it). 	en	0	0	0		2014-04-12T16:56:02.000Z	388	2,243				
452560327532498944	67	andykeep	At the staring line at the Raleigh beer festival, wondering if there will be a starter gun. 	en	1	0	0		2014-04-05T21:36:04.000Z	388	2,243				
439245497556283392	67	andykeep	“ @altonbrown : ” I'm somewhere in that crowd. Awesome show! 	en	1	0	0		2014-02-28T03:47:42.000Z	388	2,243				https://pbs.twimg.com/media/BhhXuV_IMAAZ_OM?format=jpg&amp;name=360x360
439180162882867200	67	andykeep	Catching a quick bite to eat before the @altonbrown show in Durham. 	en	0	1	0		2014-02-27T23:28:05.000Z	388	2,243				
439129245630337026	67	andykeep			68	29	23	altonbrown	2014-02-27T20:05:45.000Z	388	2,243				https://pbs.twimg.com/media/BhgZuN3IAAEHRi5?format=jpg&amp;name=360x360
432715752903573504	67	andykeep	Something about having the power go out at night in the middle of watching the Walking Dead is just a bit disturbing. 	en	0	1	0		2014-02-10T03:20:49.000Z	388	2,243				
427170516915728384	67	andykeep	Atlas Van Lines showed up today, and delivered all of my stuff. It is nice to have a bed and a couch again. And many, many boxes to unpack! 	en	1	2	0		2014-01-25T20:06:02.000Z	388	2,243				
422076911284936704	67	andykeep	I know I joked that tornadoes were a natural disaster I understand and grew up with, but it wasn't necessary for NC to great me with one. 	en	0	0	0		2014-01-11T18:45:52.000Z	388	2,243				
421707692617392128	67	andykeep	Never a good sign when your 1:55 PM flight is already delayed at 10:15 AM. Hopefully, I will still make it to RDU tonight. 	en	0	0	0		2014-01-10T18:18:43.000Z	388	2,243				
420237241718304768	67	andykeep	Well, looks like I'm not being evicted. Hooray! Apparently lots of people got eviction notices because the system reset itself. Ugh. 	en	0	2	0		2014-01-06T16:55:40.000Z	388	2,243				
420216036923674624	67	andykeep	Made it to the office to clear up their inappropriate eviction notice at 8:28, to find their "will return" set to 9:00 (they open at 8:30). 	en	0	0	0		2014-01-06T15:31:25.000Z	388	2,243				
420023088906895360	67	andykeep	Arrived home from my apartment hunting trip to find an eviction notice on my door, despite attempting to pay over the phone on the 2nd. 	en	0	1	0		2014-01-06T02:44:42.000Z	388	2,243				
419982742953029632	67	andykeep	Crazy getting a cab at the SLC airport today. 	en	0	0	0		2014-01-06T00:04:23.000Z	388	2,243				
418873891189424129	67	andykeep	I have no idea how I used to travel without a smartphone. It is kind of awesome to be this connected (when you need to be) as you travel. 	en	1	0	0		2014-01-02T22:38:12.000Z	388	2,243				
415556368268275712	67	andykeep	Not allowing users to paste passwords into login forms is a security vulnerability. 	en	59	10	116	mattmight	2013-12-24T18:55:33.000Z	388	2,243				
414470409573367808	67	andykeep	Realm of Racket at the Banes &amp; Noble at Union Square, NYC. #racket 	en	2	0	1		2013-12-21T19:00:20.000Z	388	2,243				
413886992133283840	67	andykeep	Of course I may be premature in predicting our departure, it is still 40 minutes away! 	en	0	0	0		2013-12-20T04:22:03.000Z	388	2,243				
413886830019231744	67	andykeep	Long day at the SLC airport. Flight delayed 12:00 hours (including almost 5 hours on the tarmac) and visited 3 concourses in 2 terminals. 	en	0	2	0		2013-12-20T04:21:24.000Z	388	2,243				
413756655667798016	67	andykeep	Oo, looks the de-icer is being run in another plane, and the one that pushed back is moving again. 	en	0	0	0		2013-12-19T19:44:08.000Z	388	2,243				
413756081568247808	67	andykeep	Seeing an airplane push back at SLC airport is a welcome sight! Sadly though it doesn't seem to be moving now. 	en	0	0	0		2013-12-19T19:41:51.000Z	388	2,243				
413692046465974273	67	andykeep	Ugh. Fooled by a Trax train with a green sign that was actually a blue line train. You win this one UTA, but I'll get you next time! 	en	0	0	0		2013-12-19T15:27:24.000Z	388	2,243				
413688826541137921	67	andykeep	Looks like Christmas in SLC (the wet, sticky snow seems to have covered the freezing rain and ice from last night) 	en	1	0	0		2013-12-19T15:14:36.000Z	388	2,243				
412812130530779136	67	andykeep	Flashbacks from a year ago, oh wait no, this is from the same pipe bursting again. 	en	0	0	0		2013-12-17T05:10:56.000Z	388	2,243				
410480492916396032	67	andykeep	Looking forward to the first #LambdaLoungeUtah meeting tonight. Go and nanopass compilers talks (I'm doing the latter :) 	en	0	1	1		2013-12-10T18:45:50.000Z	388	2,243				
408286469501882368	67	andykeep	Two days ago I was talking with a colleague about how warm it has been in SLC, yesterday it snowed, today it was 12 F when I left the house. 	en	0	0	0		2013-12-04T17:27:34.000Z	388	2,243				
404359486950735872	67	andykeep	Just bought an Erlenmeyer flask. Why you ask? Because Erlenmeyer flasks are really cool. 	en	2	3	0		2013-11-23T21:23:08.000Z	388	2,243				
403796278330421248	67	andykeep	Added more documentation for the compiler I presented at #Clojure_Conj including how to run and some initial tests 	en	1	1	0		2013-11-22T08:05:09.000Z	388	2,243				
401947599076208641	67	andykeep	"You can’t just place a LISP book on top of an x86 chip and hope that the hardware learns about lambda calculus by osmosis." - James Mickens 	en	10	2	16	munificentbob	2013-11-17T05:39:10.000Z	388	2,243				
402170286176735232	67	andykeep	On my way back to SLC. Had an awesome time at the Conj and Scheme Workshop and met some really interesting, nice people. #clojure_conj 	en	2	2	1		2013-11-17T20:24:02.000Z	388	2,243				
396310776920551424	67	andykeep	Good news! The Scheme workshop on 11/13 is now free for all Clojure/conj attendees! Use code ClojureConj Info here: http://clojure-conj.org/#schedule 	en	2	1	19	clojure_conj	2013-11-01T16:20:26.000Z	388	2,243				
392466775364755458	67	andykeep	Excited to hear that @twitter has an office in Detroit (via PBS Newshour 10/21/2013 @newshour ) 	en	0	0	0		2013-10-22T01:45:45.000Z	388	2,243				
375636953330249729	67	andykeep	... and my AC unit is still suspended from the ceiling. 	en	0	0	0		2013-09-05T15:10:03.000Z	388	2,243				https://pbs.twimg.com/media/BTaH0ZYCcAEBKpf?format=jpg&amp;name=360x360
375636685041569793	67	andykeep	My deck has a surface now, but still no railing... 	en	0	0	0		2013-09-05T15:08:59.000Z	388	2,243				https://pbs.twimg.com/media/BTaHkx9CAAAlzFR?format=jpg&amp;name=360x360
375051366562934785	67	andykeep	Even my AC unit has been taken off the surface (along with the railing and floorboards). 	en	0	1	0		2013-09-04T00:23:08.000Z	388	2,243				https://pbs.twimg.com/media/BTRzOwqCcAAI5J8?format=jpg&amp;name=360x360
375050971711143938	67	andykeep	When my apartment complex said they were resurfacing my deck, I had no idea how serious they were. 	en	0	0	0		2013-09-04T00:21:34.000Z	388	2,243				https://pbs.twimg.com/media/BTRy3xfCMAAoIoI?format=jpg&amp;name=360x360
369206440126189569	67	andykeep	Dear @delta I know I'm fat. However, I have yet to need a seat belt extension and bringing me 1 without my asking for it is a bit annoying. 	en	0	0	0		2013-08-18T21:17:29.000Z	388	2,243				
366240225749499904	67	andykeep	Natural history museum butterfly exhibit (D.C.) 	en	0	0	0		2013-08-10T16:50:49.000Z	388	2,243				https://pbs.twimg.com/media/BRUli36CAAAfxPp?format=jpg&amp;name=360x360
364787232739045379	67	andykeep	Something @webyrd can appreciate at moma. 	en	0	1	0		2013-08-06T16:37:08.000Z	388	2,243				https://pbs.twimg.com/media/BQ_8DjKCMAEk8q1?format=jpg&amp;name=360x360
360871890975350784	67	andykeep	Wandering around Portland, thinking I'll leave soon for my flight, then this. (Promise I'll make my flight! Sober!) 	en	2	2	0		2013-07-26T21:18:58.000Z	388	2,243				https://pbs.twimg.com/media/BQITEqeCYAIa4fQ?format=jpg&amp;name=360x360
360827565134458880	67	andykeep	The line for voodoo donuts in Portland. 	en	1	0	0		2013-07-26T18:22:50.000Z	388	2,243				
358978671446462464	67	andykeep	Clearly SLC's terminals weren't designed to handle this traffic, current TSA, or both. Line is wrapped around over the bridge to the garage. 	en	0	0	0		2013-07-21T15:55:59.000Z	388	2,243				
358975200836063232	67	andykeep	Nice job UTA Trax. Pretty much on time despite the "crazy guy" on the track in front of the train. 	en	0	0	0		2013-07-21T15:42:11.000Z	388	2,243				
358970410370465792	67	andykeep	Hope the police can clear the track swiftly, or I won't make it through the airport's security check in time. 	en	0	0	0		2013-07-21T15:23:09.000Z	388	2,243				
358970099916476416	67	andykeep	Glad I caught an early Trax, there is apparently a "crazy man" on the track, in front of the train. The police have been called. Oh, SLC. 	en	0	0	0		2013-07-21T15:21:55.000Z	388	2,243				
357862763906875392	67	andykeep	Deciding to take 800 S to the Jordan River trail this morning was a mistake. Waiting for train. That has stopped. 	en	0	0	0		2013-07-18T14:01:46.000Z	388	2,243				https://pbs.twimg.com/media/BPdiSalCQAMXqqP?format=jpg&amp;name=360x360
351728876008914947	67	andykeep	Ha! Awesome! RT @eeide : What's black and white and has a normal distribution? [...] Random Penguin House instead of Penguin Random House. 	en	0	0	0		2013-07-01T15:47:53.000Z	388	2,243				
351708211050590209	67	andykeep	I think the combination of publishers Penguin and Random House should've been called Random Penguin House instead of Penguin Random House. 	en	2	1	1		2013-07-01T14:25:46.000Z	388	2,243				
350774087993409536	67	andykeep	Riding a bike for an hour in 104 degree heat is pretty tiring, even if I did manage to avoid any hills. 	en	0	1	0		2013-06-29T00:33:54.000Z	388	2,243				
347790217798897664	67	andykeep	Looks like long security lines at SeaTac too. Missing the relatively low traffic, high security throughput at Indianapolis Airport. 	en	0	1	0		2013-06-20T18:57:04.000Z	388	2,243				
346685499181785088	67	andykeep	Tarjan's algorithm: a tool that should be in every compiler writer's tool set. #pldi 	en	5	1	1		2013-06-17T17:47:18.000Z	388	2,243				
346433455074201601	67	andykeep	Keeping with my trend of being asked for directions when I'm visiting other cities, I was just asked for directions in Seattle. 	en	1	0	0		2013-06-17T01:05:46.000Z	388	2,243				
345937577041342464	67	andykeep	Every time I fly out of SLC, it reminds me how great the Indianapolis Airport is. 	en	0	0	0		2013-06-15T16:15:20.000Z	388	2,243				
345231552877326337	67	andykeep	Excited to attend the LLVM tutorial at PLDI'13 on Sunday. Love that they sent instructions on setup already #pldi 	en	0	1	1		2013-06-13T17:29:50.000Z	388	2,243				
335204231579566081	67	andykeep	Just had my "ticket" checked on the UTA Trax for the first time. Turns out they have a little handheld scanner for your card. 	en	1	1	0		2013-05-17T01:24:51.000Z	388	2,243				
332024309335867392	67	andykeep	So, it turns out if your computer and monitors are on a UPS, but your switch box is not, it is difficult to turn it all off. #fail 	en	0	0	0		2013-05-08T06:48:58.000Z	388	2,243				
326729944430424064	67	andykeep	When I am on time, the bus is late. When I am a little late, the bus is on time. 	en	0	0	0		2013-04-23T16:11:03.000Z	388	2,243				
323832571718926337	67	andykeep	Huh. It is snowraining today in SLC. Or maybe it is raining in downtown SLC and lightly snowing at the U, even though its not too cold. 	en	0	0	0		2013-04-15T16:17:56.000Z	388	2,243				
317339974993321984	67	andykeep	A bit sad to see that Scheme is not listed in the ICFP topics with Haskell, Agda, ML, Racket, Scala, F#, Javascript, Erlang, and Clojure. 	en	0	3	1		2013-03-28T18:18:40.000Z	388	2,243				
315327179800072194	67	andykeep	Oh twitter. I mention SLC and moments later get twitter spam about jobs in SLC. Sigh. 	en	0	1	0		2013-03-23T05:00:32.000Z	388	2,243				
315324519139135488	67	andykeep	After all of our nice weather in SLC, the last two days of snow have been a bit of a surprise (and it is snowing again now)! 	en	0	2	0		2013-03-23T04:49:58.000Z	388	2,243				
311350214927724546	67	andykeep	Facebook found a comment from someone in Lexington, KY that used the word "Keep" and decided she must mean me. Comment was "Keep us updated" 	en	0	0	1		2013-03-12T05:37:30.000Z	388	2,243				
303559525808623616	67	andykeep	And it only took me like 20 minutes to figure it out :) 	en	0	0	0		2013-02-18T17:40:05.000Z	388	2,243				
303559371193987074	67	andykeep	Always fun learning the transit schedules. Today I learned UTA runs on Sunday schedule on President's Day and there is no 2 bus on Sunday. 	en	0	0	0		2013-02-18T17:39:28.000Z	388	2,243				
287646995152257024	67	andykeep	I think @comcast needs more customer service reps. On Friday the wait was 45 minutes, today it is over 3 hours. Glad for auto-callback. 	en	0	2	0		2013-01-05T19:49:22.000Z	388	2,243				
280771800730853376	67	andykeep	Successfully defended my dissertation this morning! Managed to talk for a couple hours, despite a cold that just will not go away. 	en	2	9	0		2012-12-17T20:29:48.000Z	388	2,243				
1293222955284082688	76	marciadorsey	NEVER apologize for sharing this.... BEAUTIFUL feast for our eyes..! 	en	19	3	3		2020-08-11T16:29:14.000Z	3,423	11,779				
1293205320223916032	76	marciadorsey	((👇🏻)) ((👍🏻)) ((🤞🏻)) 	und	8	1	3		2020-08-11T15:19:09.000Z	3,423	11,779				
1293155595047112704	76	marciadorsey	Dangerous Information shared on @Twitter ..... Now I want one! #willpowerneeded 	en	21	4	3		2020-08-11T12:01:34.000Z	3,423	11,779				
1293150270625546240	76	marciadorsey	Good Morning! ((☕️)) 	en	45	11	3		2020-08-11T11:40:24.000Z	3,423	11,779				
1293033253373390849	76	marciadorsey	Buonanotte ..... 	it	24	2	0		2020-08-11T03:55:25.000Z	3,423	11,779				
1292849778389397510	76	marciadorsey	Join the club ((😔)) ((😩)) ((🤷🏽‍♂️)) ((🤦🏻‍♂️)) 	en	5	1	1	kzieff	2020-08-10T15:46:21.000Z	3,423	11,779				
1292859908396920835	76	marciadorsey	((♥️)) ((♥️)) ((♥️)) ((👇🏻)) ((♥️)) ((♥️)) ((♥️)) 	und	28	5	5		2020-08-10T16:26:36.000Z	3,423	11,779				
1292787888002916353	76	marciadorsey	Good Morning! ((☕️)) 	en	56	12	1		2020-08-10T11:40:25.000Z	3,423	11,779				
1292671503973199873	76	marciadorsey	Buonanotte ..... 	it	27	4	1		2020-08-10T03:57:57.000Z	3,423	11,779				
1292568918968721418	76	marciadorsey	Escapees ((❗️)) .... Jefferson County ((🐒)) ((🐒)) 	en	4	1	0		2020-08-09T21:10:19.000Z	3,423	11,779				
1292511763011952642	76	marciadorsey	Urban hunter..... 	en	38	11	5		2020-08-09T17:23:12.000Z	3,423	11,779				https://pbs.twimg.com/media/Ee_sltxXkAIVBg6?format=jpg&amp;name=360x360
1292493776745832452	76	marciadorsey	((👇🏻)) ((❤️)) #theinnovationstack 	und	11	3	2		2020-08-09T16:11:44.000Z	3,423	11,779				
1292492616072933377	76	marciadorsey	((🍀)) @citymuseum ((⁉️)) 	und	6	3	0		2020-08-09T16:07:07.000Z	3,423	11,779				
1292473940598718464	76	marciadorsey	((♥️)) ((♥️)) ((♥️)) When generous neighbors share. ((♥️)) ((♥️)) ((♥️)) ((♥️)) 	en	66	11	3		2020-08-09T14:52:55.000Z	3,423	11,779				
1292469565876838403	76	marciadorsey	Immoral. Unconstitutional. Heartless. President Trump is exploiting a global pandemic to cut Social Security, Medicare and unemployment. This city and country won’t forget. 	en	1051	1173	469	NYCMayor	2020-08-09T14:35:32.000Z	3,423	11,779				
1292466745878482950	76	marciadorsey	I LOVE passionate consumers... ((♥️)) ((♥️)) ((♥️)) ((♥️)) ((♥️)) 	en	20	5	4		2020-08-09T14:24:19.000Z	3,423	11,779				
1292460403423731712	76	marciadorsey	Have A Blessed Day !!! 	en	178	19	35	MCHammer	2020-08-09T13:59:07.000Z	3,423	11,779		blob:https://twitter.com/d4cf9927-368c-4742-8b55-05bf1ff0c923	https://pbs.twimg.com/ext_tw_video_thumb/1292412636273840129/pu/img/o0_yYpFF3Wsxyt9a.jpg	
1292460966328836107	76	marciadorsey	((♥️)) ((♥️)) ((♥️)) ((♥️)) ((♥️)) ((♥️)) ((♥️)) ((♥️)) ((♥️)) ((♥️)) 	und	7	3	0		2020-08-09T14:01:21.000Z	3,423	11,779				
1292455180726939648	76	marciadorsey	WEAR A MASK! 	en	17	0	6	Brpkelly	2020-08-09T13:38:22.000Z	3,423	11,779				
1292454931052613632	76	marciadorsey	Lingering storms in the metro east, still some downpours 	en	10	1	2	SteveTempleton	2020-08-09T13:37:22.000Z	3,423	11,779		blob:https://twitter.com/4092e4d8-42e4-4d4c-b226-077bcc45e30c	https://pbs.twimg.com/ext_tw_video_thumb/1292454913784647680/pu/img/Q9-tct1eM9Q-cSuI.jpg	
1292457141257801728	76	marciadorsey	Happy Birthday @ChrisCuomo ! ((Birthday cake)) ((Balloon)) 	en	8	4	0		2020-08-09T13:46:09.000Z	3,423	11,779				
1292439480008347649	76	marciadorsey	Good Morning! ((Hot beverage)) 	en	67	17	5		2020-08-09T12:35:59.000Z	3,423	11,779				
1292306608555528192	76	marciadorsey	Buonanotte ..... 	it	22	11	0		2020-08-09T03:48:00.000Z	3,423	11,779				
1292269581784903680	76	marciadorsey	Have you subscribed to our new cooking channel #WolfitDown on YouTube yet? We have a ton of great recipes up already that I know you’ll love and we’re dropping fresh new content every week. See you in the kitchen! https://www.youtube.com/channel/UC2yXkarXY8FFmMXDl7LNW-g 	en	89	7	16	TylerFlorence	2020-08-09T01:20:52.000Z	3,423	11,779				https://pbs.twimg.com/media/Ee8QVJmUwAEwiHI?format=jpg&amp;name=360x360
1292252045961961473	76	marciadorsey	Results of oxtail night! Butter beans, rice and peas, some of kind mango something to cut the heat, johnny cakes and plantains! 	en	12508	632	736	chrissyteigen	2020-08-09T00:11:11.000Z	3,423	11,779		blob:https://twitter.com/7944b5c7-708e-44fd-a612-026965d4be66	https://pbs.twimg.com/ext_tw_video_thumb/1292251999426113536/pu/img/vYdDr-CCc7qgFegL.jpg	
1292258210515169282	76	marciadorsey	Beautiful @NellieBragg ! Thank you for sharing your favorite. ((Two hearts)) 	en	6	3	4		2020-08-09T00:35:41.000Z	3,423	11,779				
1292256659419561987	76	marciadorsey	((Down pointing backhand index)) ((Smiling face)) 	und	8	3	2	AlisaMS	2020-08-09T00:29:31.000Z	3,423	11,779				
1292226672771686403	76	marciadorsey	note the casual entry and hurried exit this is an experienced seagull shoplifter 	en	427073	2396	110209	ziyatong	2020-08-08T22:30:21.000Z	3,423	11,779		blob:https://twitter.com/5f5688df-2e30-4d54-944c-229b8b7ed4aa	https://pbs.twimg.com/amplify_video_thumb/1292226281594028038/img/RXFqJnwDQYJcmeVE.jpg	
1292236098790469633	76	marciadorsey	BEAUTIFUL ((Heart exclamation)) 	en	29	3	5		2020-08-08T23:07:49.000Z	3,423	11,779				
1291849891879288832	76	marciadorsey	Thank you. 	en	2	0	1	AishaS	2020-08-07T21:33:10.000Z	3,423	11,779				
1291840734165905408	76	marciadorsey	It amazes me how many so-called adults are just whiney, selfish children. Suck it up. #Wearamask #sociallydistance Let's end this pandemic so we can reopen restaurants, hold concerts, have fans at games, etc. Grow up!! Trust doctors, not politicians and talk show hosts. 	en	150	5	24	Brpkelly	2020-08-07T20:56:46.000Z	3,423	11,779				
1292186596394106881	76	marciadorsey	Steak night is pork steak night. 	en	7	0	1	WJohnson68	2020-08-08T19:51:06.000Z	3,423	11,779				
1292181247641477126	76	marciadorsey	I hear the galley’s specialty is toasted ravs. 	en	10	1	1	WJohnson68	2020-08-08T19:29:51.000Z	3,423	11,779				
1292213298138681347	76	marciadorsey	And YOU @kodacohen ! 	en	3	0	0		2020-08-08T21:37:13.000Z	3,423	11,779				
1292211310634184704	76	marciadorsey	HA! I do! Twitter expanded my world. I get to interact with people like you! 	en	39	0	3		2020-08-08T21:29:19.000Z	3,423	11,779				
1288612817533308929	76	marciadorsey	Get a sneak peek of the vast views of #DowntownSTL from @onecardinalway ! ((Cityscape)) ((⚾)) The new apartment tower is opening this August, welcoming potential tenants to see the space on Tour Tuesdays: https://bit.ly/3hKhEUI 	en	89	5	13	downtownstlouis	2020-07-29T23:10:11.000Z	3,423	11,779				https://pbs.twimg.com/media/EeISfsIXYAEhUeq?format=jpg&amp;name=240x240 https://pbs.twimg.com/media/EeIShP_XkAA9I7B?format=jpg&amp;name=240x240 https://pbs.twimg.com/media/EeISgf_WoAEETnS?format=jpg&amp;name=240x240 https://pbs.twimg.com/media/EeIShaLXsAIYPgc?format=jpg&amp;name=240x240
1292202430709587969	76	marciadorsey	Congratulations! And thank you for your service! Please keep sending tweets when possible.... 	en	10	2	2		2020-08-08T20:54:02.000Z	3,423	11,779				
1292160933788364806	76	marciadorsey	USS ST. LOUIS ((Anchor)) ((Flag of United States)) ((Red heart)) 	en	4	0	2	AlisaMS	2020-08-08T18:09:08.000Z	3,423	11,779				
1292093629994065920	76	marciadorsey	This morning at 9 a.m. CST, the @USNavy will officially commission the USS St. Louis (LCS 19) at Naval Station Mayport in Jacksonville, Florida. It is the seventh ship to bear the name of our great City. Here's a link to the live stream of the ceremony: https://allhands.navy.mil/Media/Live-Stream/fbclid/IwAR1IBNiKrEiBvPbDVtF5h2VC_TOxqEpDzbfBNfggs38ykunnwsgBzMLD3Ek 	en	60	6	15	LydaKrewson	2020-08-08T13:41:41.000Z	3,423	11,779				
1292194347719565315	76	marciadorsey	I KNOW!!! #whatsthepoint 	en	10	1	1		2020-08-08T20:21:54.000Z	3,423	11,779				
1292191789714219011	76	marciadorsey	Congratulations to you both! Thank you for sharing the beautiful pics ((Heart exclamation)) 	en	16	1	1		2020-08-08T20:11:45.000Z	3,423	11,779				
1291437439630708736	76	marciadorsey	Introducing Talking Squarely, candid conversations with business owners about the issues impacting their lives, from navigating the pandemic to the changing rules of commerce. Listen wherever you get your podcasts. 	en	376	48	110	Square	2020-08-06T18:14:14.000Z	3,423	11,779				
1292188654492889089	76	marciadorsey	Would have never thought of this..... Weekend ⁦ @WSJ ⁩ 	en	9	2	3		2020-08-08T19:59:17.000Z	3,423	11,779				https://pbs.twimg.com/media/Ee7Gun0X0AAMQlZ?format=jpg&amp;name=360x360
1292132128407326720	76	marciadorsey	Progress ..... Future ⁦ @Square ⁩! 	en	109	6	4		2020-08-08T16:14:40.000Z	3,423	11,779				https://pbs.twimg.com/media/Ee6TUdNX0AIe7QY?format=jpg&amp;name=360x360
1292092556663300098	76	marciadorsey	#SaturdayMorning 	und	17	5	1		2020-08-08T13:37:26.000Z	3,423	11,779				
1291918403893186560	76	marciadorsey	One of my favorite things about St. Louis is everyone has a different favorite donut shop and everyone is right. 	en	1157	68	133	ianfroeb	2020-08-08T02:05:24.000Z	3,423	11,779				
1292076712482701312	76	marciadorsey	Good Morning! ((Hot beverage)) 	en	56	8	2		2020-08-08T12:34:28.000Z	3,423	11,779				
1291943709983088640	76	marciadorsey	Buonanotte ..... 	it	18	3	0		2020-08-08T03:45:58.000Z	3,423	11,779				
1291819018152808448	76	marciadorsey	It’s good to have a dose of adorable during your day..... ((Two hearts)) 	en	87	7	10		2020-08-07T19:30:29.000Z	3,423	11,779				
1291745267495002112	76	marciadorsey	What to do with all of those amazing tomatoes you’re getting right now. Creamy Tomato &amp; Rosemary Soup and the perfect grilled cheese. https://youtu.be/qcQC-C8cInA via @YouTube #WolfitDown 	en	233	20	29	TylerFlorence	2020-08-07T14:37:25.000Z	3,423	11,779		blob:https://twitter.com/1bfec80e-8eef-4f3a-88d3-5a0aa71b4a1c	https://pbs.twimg.com/ext_tw_video_thumb/1291745206795001861/pu/img/NdEoCARYK2GxHro6.jpg	
1291690523166736384	76	marciadorsey	Good Morning! ((Hot beverage)) 	en	73	16	4		2020-08-07T10:59:53.000Z	3,423	11,779				
1291586979063365633	76	marciadorsey	Buonanotte ..... 	it	35	5	2		2020-08-07T04:08:26.000Z	3,423	11,779				
1291385796143063042	76	marciadorsey	((👇🏽)) ((👇🏽)) ((👇🏽)) ((👇🏽)) ((👇🏽)) ((👇🏽)) ((👇🏽)) ((👇🏽)) ((👇🏽)) ((👇🏽)) ((👇🏽)) ((👇🏽)) 	und	14	2	2	kzieff	2020-08-06T14:49:01.000Z	3,423	11,779				
1291437656774066176	76	marciadorsey	Amazing, next level enchiladas dish for this weekend. #WolfitDown on @YouTube https://youtu.be/rHfZOJo2Acs We’ve got some amazing new content coming this month, so Subscribe to our new cooking channel to not miss a single recipe. Love ya! 	en	170	9	34	TylerFlorence	2020-08-06T18:15:05.000Z	3,423	11,779		blob:https://twitter.com/72cb5f1d-6585-4cc4-a9a1-e17b70f4d02f	https://pbs.twimg.com/ext_tw_video_thumb/1291437589660983296/pu/img/k6yrua8zThsmu0AG.jpg	
1291485062081503233	76	marciadorsey	BEAUTIFUL dish with a mouthwatering description. YUM ((Heart exclamation)) #WolfitDown 	en	10	4	1		2020-08-06T21:23:28.000Z	3,423	11,779				
1286405187821805569	76	marciadorsey	New research suggests that face coverings help reduce the transmission of droplets, though some masks are more protective than others. 	en	16849	2244	8314	WSJ	2020-07-23T20:57:51.000Z	3,423	11,779				
1291348952139390977	76	marciadorsey	Because we can all use a laugh and because Lucille Ball, who was born on this day in 1911, is trending: 	en	54	4	10	MariaCuomoCole	2020-08-06T12:22:36.000Z	3,423	11,779				
1291337829067497472	76	marciadorsey	Good Morning! ((Hot beverage)) 	en	54	11	2		2020-08-06T11:38:25.000Z	3,423	11,779				
1291228943434027010	76	marciadorsey	Buonanotte ..... 	it	34	6	0		2020-08-06T04:25:44.000Z	3,423	11,779				
1134982182710042624	89	al	Epic gender reveal! Congrats Chuy and Abby cc @CieloHillsRanch 	en	21	0	4		2019-06-02T00:36:53.000Z	312	16,328		blob:https://twitter.com/9e1e8cf9-2be4-4ed5-b8b5-9f89bc3fb98f	https://pbs.twimg.com/ext_tw_video_thumb/1134981777829711872/pu/img/5lCHDFNX6yVtew6R.jpg	
1108088901019721728	89	al	Ok here we go Cactus Reining Classic! Can’t believe it’s here already. One of my favorite shows ((😀)) 	en	1	0	0		2019-03-19T19:32:35.000Z	312	16,328				
1061071449585156096	89	al	Also, fire bad. ((😞)) 	en	8	0	1		2018-11-10T01:42:01.000Z	312	16,328				
1061054474905473024	89	al	I rarely make it up here anymore but when I do, San Francisco still feels like home ((😍)) 	en	4	0	0		2018-11-10T00:34:34.000Z	312	16,328				
1026641273346613250	89	al	Instacart is available in Gilroy now!!! YAAAAYY I will NEVER go to the grocery store again!!Thank you Instacart! Had a couple ruff years tho 	en	2	1	1		2018-08-07T01:28:48.000Z	312	16,328				
1005116802081349634	89	al	I combed my hair with a plastic fork I ate a salad in the hotel room with last night. #horseshowlife 	en	4	2	1		2018-06-08T15:58:14.000Z	312	16,328				
986695598911795200	89	al	Yes, I want to keep my twitter account 	en	8	4	1		2018-04-18T19:58:57.000Z	312	16,328				
949137841707077634	89	al	I forget that my twitter account automatically updates to my FB account sometimes 	en	16	2	3		2018-01-05T04:37:50.000Z	312	16,328				
949128680218886146	89	al	When you’re watching men’s figure skating and thinking “I want that shirt for showing horses” 	en	4	0	1		2018-01-05T04:01:25.000Z	312	16,328				
946584643800768512	89	al	Are you F-ing kidding me @realDonaldTrump ?!?! (Actually, I can probly just repeat this tweet every day for the next 3 years :-/) 	en	8	0	3		2017-12-29T03:32:20.000Z	312	16,328				
928732851440201729	89	al	Cat on aquarium. Not an ordinary cat indeed. 	en	18	0	5		2017-11-09T21:15:41.000Z	312	16,328				https://pbs.twimg.com/media/DOOFmKWVoAA4ZsM?format=jpg&amp;name=360x360
851877207525867520	89	al	Hey, fashion trend setters: how about, wearing earrings that don't match each other!! That would be a good trend. And very helpful. Go. 	en	9	2	2		2017-04-11T19:18:48.000Z	312	16,328				
849075620424429569	89	al	It's a 2 beer Monday. 	en	4	2	0		2017-04-04T01:46:17.000Z	312	16,328				
833830227721662464	89	al	Woooot!!! Payday today from http://usedhorsestuff.com !! and it was super easy getting rid of this stuff I didn't need anyway! 	en	5	0	2		2017-02-21T00:06:32.000Z	312	16,328				
833459882871250944	89	al	Having electricity is fantastic!! I hope it stays. 	en	8	0	0		2017-02-19T23:34:55.000Z	312	16,328				
833432289396682752	89	al	That moment when you realize your dreams and fantasies as a kid is the life you're living right now. #Gulp 	en	6	0	1		2017-02-19T21:45:16.000Z	312	16,328				
819059672778838016	89	al	I am not prepared to be out of power :-( although I did just look at FB for the first time in weeks and it was very educational. So that. 	en	4	0	0		2017-01-11T05:53:38.000Z	312	16,328				
813839592499462145	89	al	LAX has told me wrong information twice, stupidest airport ever!! 	en	3	0	1		2016-12-27T20:10:53.000Z	312	16,328				
812880565892321280	89	al	Lol I guess I had me a hankerin' for a good ol' Coca Cola light!! 	en	7	1	2		2016-12-25T04:40:04.000Z	312	16,328				https://pbs.twimg.com/media/C0fuagwUcAEAog7?format=jpg&amp;name=360x360
805916084553412608	89	al	Got to see the grave of the late great Topsail Whiz in person. There are no words. 	en	6	0	0		2016-12-05T23:25:42.000Z	312	16,328				https://pbs.twimg.com/media/Cy8wZT5VQAANVtn?format=jpg&amp;name=360x360
803437356854505473	89	al	How to make spammy calendar notifications go away http://on.mash.to/2gAkSyd 	en	54	2	54	mashable	2016-11-29T03:16:07.000Z	312	16,328				https://pbs.twimg.com/media/CyZiBCsXUAAr7xU?format=jpg&amp;name=360x360
796423827433529344	89	al	I can't remember the last time I was this scared. Please please please Mr. Trump, please don't get us all killed. 	en	4	2	2		2016-11-09T18:46:51.000Z	312	16,328				
796402076788002816	89	al	I am sure going to miss having health insurance 	en	3	1	1		2016-11-09T17:20:26.000Z	312	16,328				
796401470123884544	89	al	I am not pro-Trump! (I am not pro- hate!!) I need a bunker to live in for the rest of my life. #Scaredtodeath how does this happen 	en	2	0	0		2016-11-09T17:18:01.000Z	312	16,328				
793174668073050112	89	al	Happy Halloween!! And for the record, I'm still alive #yaybeingalive 	en	5	1	0		2016-10-31T19:35:51.000Z	312	16,328				
784128885675790336	89	al	I signed up as well. Clinton supporters (and all non Racist xenophobes) should sign up en masse to watch the watchers. 	en	71	4	24	KristerJohnson	2016-10-06T20:31:09.000Z	312	16,328				
784131835643072513	89	al	Ugh. I think I'm coming down with a little old. 	en	4	0	0		2016-10-06T20:42:52.000Z	312	16,328				
783874702548885504	89	al	THERE HE IS! #BeliEVEN | 	en	2814	22	1925	SFGiants	2016-10-06T03:41:07.000Z	312	16,328		blob:https://twitter.com/a7d43cbc-5da3-481a-bc93-6fe41990e3d9	https://pbs.twimg.com/ext_tw_video_thumb/783874633917407233/pu/img/HQdrGrvb9smjD7Yx.jpg	
783874189296017408	89	al	Conor, we're waiting for you... ((🍾)) ((🍾)) ((🍾)) 	en	3514	24	1698	SFGiants	2016-10-06T03:39:05.000Z	312	16,328		blob:https://twitter.com/f6710b40-5469-4e8b-b016-8991475a90db	https://pbs.twimg.com/ext_tw_video_thumb/783874138960199680/pu/img/rhpJq2YncrDp6fUr.jpg	
783874328244858880	89	al	Go @SFGiants !!! Woooot!!! #inBumwetrust indeed!! Hopefully announcers for the next series will be a little bit less anti-Giants!!! Lame!! 	en	1	0	0		2016-10-06T03:39:38.000Z	312	16,328				
783845325509308416	89	al	#INBUMWETRUST !!! 	und	1	0	0		2016-10-06T01:44:23.000Z	312	16,328				
783839493124075520	89	al	It's do or die time!! Did it before, they can do it again. Go @SFGiants #InBumwetrust . 	en	1	0	0		2016-10-06T01:21:12.000Z	312	16,328				
782712427594952704	89	al	Believable! That postseason magic is back. Looking forward to Wednesday cc @SFGiants . #INBUMWETRUST !! 	en	1	0	0		2016-10-02T22:42:39.000Z	312	16,328				
782075808668016640	89	al	HERE COME THE GIANTS!!! 	en	2	0	0		2016-10-01T04:32:57.000Z	312	16,328				
780588770726993920	89	al	"Just listen to what you heard" best advice of the night for our nation. Thank you @HillaryClinton #debatenight 	en	28459	556	12760	Oprah	2016-09-27T02:04:00.000Z	312	16,328				
780600745846566912	89	al	This is the top Retweeted Tweet during the first US presidential debate: 	en	2123	35	2294	TwitterGov	2016-09-27T02:51:35.000Z	312	16,328				
780600536957489152	89	al	"Did Trump commit 'suicide by overweight shut-in' tonight?" -- @aimeeman , just now. #Debates2016 	en	1948	68	242	pattonoswalt	2016-09-27T02:50:45.000Z	312	16,328				
780583165505130497	89	al	If you stay in a Trump hotel, refuse to pay. Say that you weren't satisfied. He said that's cool. #debatenight 	en	43982	477	27773	BettyFckinWhite	2016-09-27T01:41:43.000Z	312	16,328				
780579411737268224	89	al	Baby has a lot of tantrums #DEBATES 	en	4146	97	1246	SarahKSilverman	2016-09-27T01:26:48.000Z	312	16,328				
780579159009431552	89	al	...."Bigly" ? 	en	2	0	0		2016-09-27T01:25:48.000Z	312	16,328				
780578955145256960	89	al	I think that's the first time I've ever heard the word "biggly" 	en	1	0	0		2016-09-27T01:25:00.000Z	312	16,328				
780578116523532288	89	al	Hillary prepared for this debate by ignoring two dozen drunks at a Dave and Busters in Irvine, CA. #Debates2016 	en	8200	82	3577	pattonoswalt	2016-09-27T01:21:40.000Z	312	16,328				
780578227211292673	89	al	Trump on climate change being created by the Chinese: "I never said that" 	en	344	8	338	GavinNewsom	2016-09-27T01:22:06.000Z	312	16,328				
776269040281018368	89	al	It is possible that I did it and forgot, but that's not really how I normally roll - sorry, couldn't resist. 	en	2	0	0		2016-09-15T03:58:56.000Z	312	16,328				
776268544199712768	89	al	At reining (horse) show in Vegas, did room service roll my pollos? - I got back to this... My mind is blown 	en	2	0	0		2016-09-15T03:56:57.000Z	312	16,328				https://pbs.twimg.com/media/CsXcGbnUkAEty7u?format=jpg&amp;name=360x360
773613808958963713	89	al	Driving,30 mins outside Vegas- what the heck is this? Looks like enormous solar/ light panels? 	en	4	1	0		2016-09-07T20:07:59.000Z	312	16,328				https://pbs.twimg.com/media/CrxtpsmWEAAvwC2?format=jpg&amp;name=360x360
772545883653058561	89	al	What is the approach @SFGiants ? – Leave Casilla in until the game is lost for sure? I'm so over it 	en	2	0	0		2016-09-04T21:24:26.000Z	312	16,328				
772543030276427776	89	al	Casilla needs to go! How many saves does he have to blow to prove that he sucks 	en	0	0	0		2016-09-04T21:13:06.000Z	312	16,328				
760219310493044736	89	al	When speak texting emails, it's always good to read before you send! Case in point: " Hank's again! poop face " 	en	4	0	0		2016-08-01T21:03:02.000Z	312	16,328				
758844140880666626	89	al	. @realDonaldTrump you will not use our incredible country to feed your insecurities and your growing ego. Not gonna happen. 	en	398	5	143	GavinNewsom	2016-07-29T01:58:36.000Z	312	16,328				
754539768097144832	89	al	And Casilla blows it again! Come on @SFGiants , lets get some relievers/closers that can do the job. 	en	2	1	0		2016-07-17T04:54:34.000Z	312	16,328				
753764343527841792	89	al	P.S. It's my 1st car. :-) 	en	5	1	0		2016-07-15T01:33:18.000Z	312	16,328				
753761396593074176	89	al	Zoom-zoom 	nl	5	1	0		2016-07-15T01:21:35.000Z	312	16,328				https://pbs.twimg.com/media/CnXl-tpUMAAhKNg?format=jpg&amp;name=360x360
753729440601911296	89	al	A big couple of days. I'm now a legally licensed driver and, just within the last few minutes, a car owner. Who'd a thunk it. 	en	6	0	0		2016-07-14T23:14:36.000Z	312	16,328				
753075248166166528	89	al	Well said!! http:// 855586e4b03fc3ee4e626f/amp?0830ynt7rezmpldi= … 	en	1	0	0		2016-07-13T03:55:05.000Z	312	16,328				
746555039477436416	89	al	Haha, I need a tempurpedic couch. 	en	1	0	0		2016-06-25T04:06:06.000Z	312	16,328				
744596603055439872	89	al	Yay for huge monitors!! I feel so organized and spacious!! Best purchase ever! 	en	4	1	0		2016-06-19T18:23:58.000Z	312	16,328				https://pbs.twimg.com/media/ClVWpyAUkAAywbH?format=jpg&amp;name=360x360
744594622387748864	89	al	“Michelle Marks is dead, Brock Turner is a rapist, &amp; men are still blaming literally every single…” by @LauraLBishop 	en	3	0	1		2016-06-19T18:16:06.000Z	312	16,328				
738452130944548864	89	al	HR gives Bumgarner most by an active pitcher Sent with @MLB At Bat 	en	0	0	0		2016-06-02T19:28:02.000Z	312	16,328				
729102665125273600	89	al	Holy crap!! #PanikandCraw !!! Wooot!! Cc @SFGiants 	en	3	1	0		2016-05-08T00:16:36.000Z	312	16,328				
726852616005672960	89	al	Ugh. Why do people act like I'm not hot. #gettingoldplussadface 	en	5	0	0		2016-05-01T19:15:42.000Z	312	16,328				
725103388908654593	89	al	I would use anyone's chap stick right now. ANYONE'S. 	en	2	1	0		2016-04-26T23:24:54.000Z	312	16,328				
725033104386101248	89	al	Wow. People's timing can be real fucking impeccable sometimes. 	en	1	0	0		2016-04-26T18:45:37.000Z	312	16,328				
724994476674928640	89	al	Can't seem to attach photos to my tweets now. I'm probably doing something wrong but nothing happens when I touch camera icon, updated app ( 	en	0	0	0		2016-04-26T16:12:07.000Z	312	16,328				
722548110455517184	89	al	Recipe for frustration: trying to get groceries at Safeway in Gilroy quickly. 	en	1	3	0		2016-04-19T22:11:08.000Z	312	16,328				
721175661692325888	89	al	WHERE'S CRAW ?!?! 	en	0	0	0		2016-04-16T03:17:31.000Z	312	16,328				
721168004415758336	89	al	Oooh! .... Found a bottle of Reisling in the fridge. 	en	3	1	0		2016-04-16T02:47:05.000Z	312	16,328				
721166981039202306	89	al	He's warming up! Bumgarner hits a single off of Kershaw. 	en	2	0	0		2016-04-16T02:43:01.000Z	312	16,328				
721155481755000832	89	al	Come on @SFGiants ! Ok Bummy, how's about another homer off of Kershaw.? #makemyday #Countrystrong #beatLA 	en	1	0	0		2016-04-16T01:57:19.000Z	312	16,328				
720320128051621889	89	al	Now, if everyone I know who owns a car starts avoiding me, I'll know why. 	en	0	0	0		2016-04-13T18:37:56.000Z	312	16,328				
720313734556594176	89	al	Woot! I passed 	en	4	0	0		2016-04-13T18:12:31.000Z	312	16,328				
720289104135467009	89	al	Mistakes so far: not bringing a working pen. Not bringing hand sanitizer. 	en	2	0	0		2016-04-13T16:34:39.000Z	312	16,328				
720287071525478400	89	al	At the DMV - excited and nervous to take my learners permit test lol 	en	2	2	0		2016-04-13T16:26:34.000Z	312	16,328				
719030073886572545	89	al	I'm emoji illiterate. Is that just called 'blind'? 	en	2	0	0		2016-04-10T05:11:43.000Z	312	16,328				
719028043872796672	89	al	I SAID the Giants LOST TODAY!!' I SAID- I feel like a GIANT SLOTH TODAY!! 	en	2	1	0		2016-04-10T05:03:39.000Z	312	16,328				
717053388198793216	89	al	Psyched about my new boy "John" - had some good schoolings, happy with it for only 2-3 weeks on him. I just need to get my confidence on him 	en	1	0	0		2016-04-04T18:17:04.000Z	312	16,328				
717029854500225024	89	al	It's opening day!! Psyched that I'll be watching @SFGiants in less than an hour and a half! The long, cold, baseball-less winter is over! 	en	3	0	0		2016-04-04T16:43:33.000Z	312	16,328				
717029343516450816	89	al	Got a new phone and didn't have my twitter password so I've been dying to tweet for days! 	en	2	1	0		2016-04-04T16:41:31.000Z	312	16,328				
717027497024434176	89	al	Had a great show! But with the recommended dose of frustration and disappointment mixed in, haha. Fuels the fire for the next one I guess. 	en	2	0	0		2016-04-04T16:34:11.000Z	312	16,328				
711997723872862209	89	al	Haha, sitting on the bus tweeting, just like the old days;) 	en	7	2	0		2016-03-21T19:27:40.000Z	312	16,328				
711997572953407492	89	al	Sometimes I feel like everyone I have to talk to or be near must have eaten a raw onion for breakfast. Damn this sense of smell!!! 	en	0	0	0		2016-03-21T19:27:04.000Z	312	16,328				
711967029318668288	89	al	Twitter, working there, and the people that made it happen has affected my life in countless, immeasurable ways. 	en	5	0	0		2016-03-21T17:25:42.000Z	312	16,328				
711962740831617024	89	al	Thanks Twitter, and Happy B-day!! 	en	4	0	4		2016-03-21T17:08:39.000Z	312	16,328				
703383713925636096	89	al	A long hot tub sesh counts as a shower, right? ...(And am I joking?);-) 	en	2	0	0		2016-02-27T00:58:40.000Z	312	16,328				
697902665020215296	89	al	I miss having a gas range. Why isn't it doing anything? Hoping chicky gets cooked before it gets bad. 	en	2	0	1		2016-02-11T21:58:56.000Z	312	16,328				
695366340169732100	89	al	Lysol!, make refill packs for the wipes? I won't buy anymore because I hate wasting all the plastic unnecessarily. It's so easy to fix this 	en	0	0	0		2016-02-04T22:00:29.000Z	312	16,328				
694197906304163840	89	al	Downsized to one bathroom and now the cat and I have to share a toilet. He seems to be rejecting the idea. 	en	1	0	0		2016-02-01T16:37:33.000Z	312	16,328				
693846399952117761	89	al	Ok, challenge accepted. I have an hour to find remote controls and tv cords, and make a path to TV's before the cable ppl get here.... 	en	1	1	0		2016-01-31T17:20:47.000Z	312	16,328				
685918271338491904	89	al	Kerning is important 	en	11	1	2	roach	2016-01-09T20:17:14.000Z	312	16,328				https://pbs.twimg.com/media/CYTfBkmUEAA04QU?format=jpg&amp;name=360x360
683785668066209792	89	al	A gas leak has been spewing methane into a Los Angeles neighborhood since October 23. More details: http://on.nrdc.org/1mXhpcq 	en	12	2	27	NRDC	2016-01-03T23:03:02.000Z	312	16,328				
683786195042725889	89	al	A Mosaic of Donald Trump Made With 500 Dick Pics http://buff.ly/1OtcJW7 	en	120	12	91	reddit	2016-01-03T23:05:07.000Z	312	16,328				https://pbs.twimg.com/media/CX1L69EWYAAtyG4?format=jpg&amp;name=360x360
683788594947817472	89	al	Lazy, lazy Sunday. And it's not in sharp contrast with all days, recently. #adjustmentperiod 	en	1	0	0		2016-01-03T23:14:39.000Z	312	16,328				
674287859688333312	89	al	Awwwwe! The ponies have stockings! 	en	1	1	0		2015-12-08T18:02:08.000Z	312	16,328				https://pbs.twimg.com/media/CVuM8cqVEAA8Pjc?format=jpg&amp;name=360x360
668176880948789248	89	al	https://m.youtube.com/watch?v=gAD59h1R27g This pony will make a fine Christmas present for me- in case you were stressing about it. ;-) 	en	1	1	0		2015-11-21T21:19:17.000Z	312	16,328				
665341095748878337	89	al	Oh! @Medium has a new 'M' 	en	2	0	0		2015-11-14T01:30:53.000Z	312	16,328				
659486052734734336	89	al	The line between 'creepy' and 'charming' - so fine 	en	4	1	1		2015-10-28T21:45:02.000Z	312	16,328				
658722937550192640	89	al	Yep, another year, another beautiful day in paradise and living the dream. 	en	2	1	1		2015-10-26T19:12:41.000Z	312	16,328				
658487716242296832	89	al	TV roaches aren't as scary as regular roaches. 	en	0	1	0		2015-10-26T03:38:00.000Z	312	16,328				
655667201186205696	89	al	Here I'm home. And I look beautiful, dammit. And the cat is meowing, at me, dammit. The cat. 	en	0	1	3		2015-10-18T08:50:17.000Z	312	16,328				
652662560034951168	89	al	Friday night and there's no place I'd rather be. 	en	5	0	0		2015-10-10T01:50:54.000Z	312	16,328				https://pbs.twimg.com/media/CQ65IuNVEAARiyJ?format=jpg&amp;name=360x360
1286396547479949313	92	Mike	I’ve learned from watching Karen videos that there are laws on the books that give Americans the unalienable right to order pizza and froyo. 	en	0	0	0		2020-07-23T20:23:31.000Z	177	7,505				
1283793732001624065	92	Mike	What has been the worst part about 2020 so far? 	en	0	1	0		2020-07-16T16:00:52.000Z	177	7,505				
1283526466660163584	92	Mike	if someone hacked our president's account and made it look like he was fucking moron, how could anyone tell 	en	75608	1542	9380	itsJeffTiedrich	2020-07-15T22:18:51.000Z	177	7,505				
1283622815908769792	92	Mike	Remember when you could fit all of AWS's services on one screen? Pepperidge Farm remembers. ((👴🏻)) 	en	1	0	0		2020-07-16T04:41:42.000Z	177	7,505				
1283070562340749313	92	Mike	You can tell how long someone has been in the tech industry if they still say something like 'let me project the slides' although hardly anyone uses actual projectors in conference rooms these days. 	en	1	0	0		2020-07-14T16:07:15.000Z	177	7,505				
1281287686662377476	92	Mike	What would happen if all the “40 under 40” or “30 under 30” lists excluded people whose parents paid for their college, paid the down payment on their first place, or paid the bills while they worked unpaid or low-wage internships? 	en	107583	759	16686	kristenmeinzer	2020-07-09T18:02:44.000Z	177	7,505				
1263163537137926144	92	Mike	The last time I used cash was in February. 	en	7	0	0		2020-05-20T17:43:50.000Z	177	7,505				
1260274730893897729	92	Mike	2020. The year the word 'masterclass' became another word for 'class.' 	en	21	1	0		2020-05-12T18:24:45.000Z	177	7,505				
1255210805961854976	92	Mike	If "hubby" is irritable, or addicted to talking about the war, feed him pickles. Pickles strengthen the teeth and sweeten the temper. Missouri1915 	en	125	1	43	TweetsofOld	2020-04-28T19:02:31.000Z	177	7,505				
1248440942924890112	92	Mike	just gonna come out and say it: vulnerable people are always the most susceptible to propaganda, misinformation, and conspiracy, especially in times of cultural anxiety, and if there is a way to help them out of these traps, targeted self-righteous vilification isn’t it 	en	55618	1211	14543	steak_umm	2020-04-10T02:41:30.000Z	177	7,505				
1247032404990210053	92	Mike	They did. The crazy bastard actually did it! 	en	302114	2311	122474	null4bl3	2020-04-06T05:24:28.000Z	177	7,505				
1247336928703213570	92	Mike	All websites selling or servicing something are broken right now. 	en	3	2	0		2020-04-07T01:34:32.000Z	177	7,505				
1246121293658783744	92	Mike	5G is causing coronavirus. Actual flyer from my neighborhood. Stay weird, SF! 	en	2	1	1		2020-04-03T17:04:02.000Z	177	7,505				
1245742569180368897	92	Mike	Time to get up and stare at the wall. 	en	4	0	0		2020-04-02T15:59:07.000Z	177	7,505				
1242546259610591232	92	Mike	This is an illustration of the effectiveness of the surgical hand washing technique 	en	11036	69	4902	ThingsWork	2020-03-24T20:18:08.000Z	177	7,505				
762739172054601728	92	Mike	Just imagine Donald Trump in the Oval Office facing a real crisis. We can’t afford that kind of risk. 	en	56111	4117	33137	HillaryClinton	2016-08-08T19:56:04.000Z	177	7,505				
1235711469531959296	92	Mike	Dixie Chicks Release First New Single In 14 years https://trib.al/lf6yEjn #WhatDoYouThink ? 	en	833	14	91	TheOnion	2020-03-05T23:39:07.000Z	177	7,505				
1235370803719327744	92	Mike	If you use are using the Express npm module, you're liking a Hickory Ham @hotpockets tweet. ((😮)) 	en	2	0	1		2020-03-05T01:05:26.000Z	177	7,505				
1196888676451549184	92	Mike	Price for a flu shot in Sacramento without insurance: $25. With insurance: $85. 	en	6	1	1		2019-11-19T20:31:12.000Z	177	7,505				
1196834090189672448	92	Mike	Trying to figure out how to use my 6,500 American Airlines miles and I think I might go with Arby's. 	en	8	1	1		2019-11-19T16:54:17.000Z	177	7,505				
1195151236556673024	92	Mike	How can you get into Twitter? I want to like it. I need some ideas. 	en	3	0	0		2019-11-15T01:27:14.000Z	177	7,505				
1189278631211737088	92	Mike	Hi Googlers! ((👋🏻)) 	en	9	2	1		2019-10-29T20:31:36.000Z	177	7,505				
1186337657149747202	92	Mike	Seriously, @patagonia ? My 3-year old shell jacket disintegrated and you offer less than half the original cost as the replacement? I'd rather have the screwed up jacket back so I can attempt to repair it myself. 	en	3	1	0		2019-10-21T17:45:13.000Z	177	7,505				https://pbs.twimg.com/media/EHa3zv9UcAAUv3o?format=jpg&amp;name=small
1146453608646397952	92	Mike	'Straight Pride Parade' organizers say they received suspicious envelopes in the mail. They were full of glitter. 	en	7	2	0		2019-07-03T16:20:15.000Z	177	7,505				
1141464648891240448	92	Mike	From a news update to the Apollo 11 crew from Mission Control: "190:23:58 Air Canada says it has accepted 2300 reservations for flights to the Moon in the past 5 days. It might be noted that more than 100 have been made by men for their mothers-in-law." 	en	2	1	0		2019-06-19T21:55:54.000Z	177	7,505				
1141458775410274305	92	Mike	The Apollo 11 Mission in realtime. So amazing to go through this. And amazing how light-hearted much of the mission was. 	en	6	0	0		2019-06-19T21:32:33.000Z	177	7,505				
1140738991093776384	92	Mike	I remember waiting in a lot of bureaucrats’ lines as a child in Soviet Poland. I get nostalgic when I visit the DMV. 	en	3	0	0		2019-06-17T21:52:24.000Z	177	7,505				
1138479879295569920	92	Mike	What UI wizardry is this?? 	en	47050	634	25578	wendynather	2019-06-11T16:15:29.000Z	177	7,505				https://pbs.twimg.com/media/D8yxaiKXoAYHzuc?format=png&amp;name=360x360
1139665172677586944	92	Mike	How many human followers do I have? Are you a bot? 	en	4	2	1		2019-06-14T22:45:25.000Z	177	7,505				
1127285936977522688	92	Mike	Ladies and Gentlemen: The saddest and funniest testament to American bigotry we've ever seen in our data. 	en	63875	2073	29911	jdcivicscience	2019-05-11T18:54:45.000Z	177	7,505				https://pbs.twimg.com/media/D6TskeIXoAAnZHL?format=png&amp;name=360x360
1129224257337061377	92	Mike	~92% of Nextdoor posts in my neighborhood are about lost cats. 	en	3	0	0		2019-05-17T03:16:57.000Z	177	7,505				
1128843048979353600	92	Mike	Whenever I play Fugazi, I can literally imagine feeling the CD case. #synaesthesia 	en	2	0	0		2019-05-16T02:02:10.000Z	177	7,505				
1128744697181003776	92	Mike	How did this guy become the poster child of every modern company and why do we think it's ok? Hell, why do we celebrate it? 	en	2	0	0		2019-05-15T19:31:21.000Z	177	7,505				https://pbs.twimg.com/media/D6obUcXUYAAcbTq?format=jpg&amp;name=360x360
1128089754740723712	92	Mike	Do you remember when call volumes were not unusually high? Neither do I. 	en	3	0	0		2019-05-14T00:08:51.000Z	177	7,505				
1126909965828943872	92	Mike	Ya might want to tell your employees not to flick off the Google Maps car, especially if your business has no other significant presence on the internet. 	en	2	1	0		2019-05-10T18:00:47.000Z	177	7,505				https://pbs.twimg.com/media/D6OWiYYUIAAGfgF?format=jpg&amp;name=360x360
1126513208133423110	92	Mike	Connect your @ring doorbell to other home automation devices through @blynk_app : 	en	2	0	0		2019-05-09T15:44:13.000Z	177	7,505				
1123082203787710465	92	Mike	This is a real product. Only $199. 	en	0	0	0		2019-04-30T04:30:37.000Z	177	7,505				
1121617435138768898	92	Mike	Is there a bar that doesn’t have a sign about sensitive plumbing? 	en	1	0	1		2019-04-26T03:30:09.000Z	177	7,505				
1118687917591814145	92	Mike	Dudes — lots of reports of Monster 796s not starting and throwing 0005 r.SW errors. Replaced the battery and fully charged it. What should I do ⁦ @DucatiMotor ⁩ ⁦ @DucatiUSA ?? The bike only has 3000 miles on it! 	en	0	0	0		2019-04-18T01:29:18.000Z	177	7,505				https://pbs.twimg.com/media/D4ZguuHUwAE8VQG?format=jpg&amp;name=small
1118303781752430592	92	Mike	I knew it! 	en	3	2	1		2019-04-17T00:02:53.000Z	177	7,505				
1116384046739668993	92	Mike	New thing to be frightened of: sweat bees 	en	0	1	0		2019-04-11T16:54:32.000Z	177	7,505				
1115995496227659777	92	Mike	Yay, measles has come to Caltrain, the 49 bus, and a pastry shop near you. Thanks #antivaxxers ! 	en	0	0	0		2019-04-10T15:10:35.000Z	177	7,505				
1115854084437889025	92	Mike	I can still run DOS binaries on Windows, but should I? 	en	0	0	0		2019-04-10T05:48:39.000Z	177	7,505				
1111658246438158337	92	Mike	Trump would like to make this legal. 	en	2	0	0		2019-03-29T15:55:54.000Z	177	7,505				
1110299909133991936	92	Mike	Every clickbaity question-based headline: "Could [hypothetical scenario]?" 45-paragraph answer: "No." 	en	2	0	0		2019-03-25T21:58:21.000Z	177	7,505				
1109240240575635456	92	Mike	Also, if you recently joined AA, suffered a miscarriage, or your dog ran away, you can tweak that experience as well. 	en	2	0	0		2019-03-22T23:47:36.000Z	177	7,505				https://pbs.twimg.com/media/D2TQHpuUkAE8Kkw?format=jpg&amp;name=360x360
1109237838137061377	92	Mike	New Facebook feature. On an ad, tap the post’s options menu, then choose “why am I seeing this ad?” 	en	1	0	0		2019-03-22T23:38:03.000Z	177	7,505				https://pbs.twimg.com/media/D2TN7nXUcAAfBhg?format=jpg&amp;name=360x360
1108880236785991680	92	Mike	Tales of the City, the remake, debuts 4/10 	en	1	0	0		2019-03-21T23:57:05.000Z	177	7,505				
1108826690715701248	92	Mike	The EULA for my P-Touch label maker. It’s a frocking *label maker*! 	en	0	0	0		2019-03-21T20:24:18.000Z	177	7,505				https://pbs.twimg.com/media/D2NX_v6U0AAjRAF?format=jpg&amp;name=small
1108527182144405504	92	Mike	What one of the first iPhones looked like: http://bit.ly/2ufO42O 	en	1	0	0		2019-03-21T00:34:10.000Z	177	7,505				
1108240759453450240	92	Mike	People on the phone in Uber Pools are as bad as people on their phones on the bus or train. 	en	0	0	0		2019-03-20T05:36:01.000Z	177	7,505				
1099074860184039428	92	Mike	Never buying Blitzu gear again. They rate their tail lights at IPX-4 but normal rain will enter the light and will kill it. Looks like their customer support is dead for others as well: https://www.facebook.com/blitzugear/posts_to_page?ref=page_internal 	en	2	0	0		2019-02-22T22:34:01.000Z	177	7,505				https://pbs.twimg.com/media/D0Cysd8U8AAn16b?format=jpg&amp;name=360x360
1092173714928463873	92	Mike	Decided to do a last-minute adventure circumnavigating the Big Island of Hawaii with my best bud. This is my gear for the week. #knolling #bikes https://www.instagram.com/p/Btb09ochjIV/?utm_source=ig_twitter_share&amp;igshid=1isabnimn89i6 	en	6	0	0		2019-02-03T21:31:19.000Z	177	7,505				
1091427381703630848	92	Mike	From a 1994 @CDCgov study https://www.dogsbite.org/pdf/1989-1994-fatal-dog-attacks.pdf 	en	3	0	0		2019-02-01T20:05:40.000Z	177	7,505				
1091426458029834240	92	Mike	I love dogs. But it seems that pit bulls are objectively the most aggressive. Especially un-neutered male ones. 	en	4	1	0		2019-02-01T20:01:59.000Z	177	7,505				https://pbs.twimg.com/media/DyWGk-KVAAYp-XU?format=jpg&amp;name=360x360
1091383341973069825	92	Mike	Where I live. Dairy farms until about 1940. It’s a little more expensive now. 	en	3	0	0		2019-02-01T17:10:40.000Z	177	7,505				https://pbs.twimg.com/media/DyVfXUVVAAA4zZL?format=jpg&amp;name=360x360
1090757220659212288	92	Mike	/usr stands for "Unix System Resources." Wah?? 	de	1	1	0		2019-01-30T23:42:41.000Z	177	7,505				
828025342191218688	94	alissa	We warm our hands and sing and chant emphatically around a cozy fire fueled entirely by straw men. 	en	9	1	3		2017-02-04T23:40:00.000Z	279	8,344				
985573389002686465	94	alissa	"Intimacy is the longest spoon we have to stir up all the shit." #sopoco18 	en	3	0	0		2018-04-15T17:39:41.000Z	279	8,344				
984865737163624448	94	alissa	How to Fix What Social Media Has Broken https://medium.com/@tobiasrose/how-to-fix-what-social-media-has-broken-cb0b2737128 	en	83	4	45	TobiasRose	2018-04-13T18:47:44.000Z	279	8,344				
962774893266796545	94	alissa	@marcoarment There's another method I haven't tried, which also syncs your ios reminders to Things: https://blog.mbcharbonneau.com/2016/12/14/how-to-send-to-dos-from-amazon-echo-to-cultured-codes-things/ 	en	0	0	0		2018-02-11T19:46:36.000Z	279	8,344				
962772758483451904	94	alissa	@marcoarment I was reminded the integration is not obvious. If &gt; Alexa &gt; Item added to my todo list Then &gt; Gmail &gt; Send an email. Settings: To address: from https://culturedcode.com/things/blog/2017/12/mail-to-things/ ; Subject: {{AddedItem}} 	en	0	1	0		2018-02-11T19:38:07.000Z	279	8,344				
953826691373240320	94	alissa	I'm a little too excited to finally have an excuse to make one of those solve-a-case walls with photos and post-it notes and yarn. 	en	3	0	0		2018-01-18T03:09:39.000Z	279	8,344				
950042901874065408	94	alissa	lulz. On the BBC Alexa briefing this morning the anchor paused for a moment to mutter under her breath, "fuck hell! ... there's no time!" before resuming her report. 	en	9	0	0		2018-01-07T16:34:13.000Z	279	8,344				
949054138037530624	94	alissa	Thoughtful @NYTimes piece from pediatrician (and researcher) @aaronecarroll on what he says when parents ask him: which is worse for their kids. alcohol or pot? 	en	246	16	156	Atul_Gawande	2018-01-04T23:05:13.000Z	279	8,344				
948948921694302209	94	alissa	We'll give Jeff Sessions our legal pot when he pries it from our warm, extremely interesting to look at hands. 	en	102631	1214	35178	COSenDem	2018-01-04T16:07:08.000Z	279	8,344				
948922990653263872	94	alissa	Important to remember that Twitter is not a news source. It’s a recreation ground where people roleplay the personas they think will make them popular, and vent the frustrations of their daily lives by disguising them as political views. 	en	58	5	21	G_S_Bhogal	2018-01-04T14:24:05.000Z	279	8,344				
940006885914300416	94	alissa	isnt rick and morty that thing you get when you die and your body gets all stiff 	en	265320	2039	123208	sadgirlkms	2017-12-10T23:54:40.000Z	279	8,344				
940394200545353729	94	alissa	I’d like to personally congratulate each and every individual involved 	en	123349	520	51703	dogfather	2017-12-12T01:33:43.000Z	279	8,344				https://pbs.twimg.com/media/DQzziL_UQAA_WHn?format=jpg&amp;name=240x240 https://pbs.twimg.com/media/DQzziMAUIAEa9_g?format=jpg&amp;name=240x240 https://pbs.twimg.com/media/DQzziL-VQAEr21B?format=jpg&amp;name=240x240 https://pbs.twimg.com/media/DQzziMKVwAAqqM4?format=jpg&amp;name=240x240
939800173223411712	94	alissa	Child: Mum, can computers do emails? Me: Er. Um. What? Child: Can they send emails? Me (penny dropping): Like a phone can? Child: Yes! Can you get an app for email on a computer? #thenextgeneration 	en	8319	77	2594	nye_nicola	2017-12-10T10:13:16.000Z	279	8,344				
939292967864385536	94	alissa	Do you run a forum or other site that hosts material posted by users? Don't forget: you can lose your safe harbor status if you don't register with the Copyright Office by December 31. 	en	82	4	116	EFF	2017-12-09T00:37:49.000Z	279	8,344				
925477750395334658	94	alissa	RT if you know these are delicious. 	en	5	3	5	SaraJChipps	2017-10-31T21:41:04.000Z	279	8,344				https://pbs.twimg.com/media/DNf1Gf0WAAA4Dzi?format=jpg&amp;name=360x360
923172540545228801	94	alissa	Software predicts how jurors might vote—we all knew this Brave New World legal moment was coming. @zeynep 	en	17	0	19	ricfouad	2017-10-25T13:01:00.000Z	279	8,344				
918673117354000384	94	alissa	Somehow there are now political figures I recognize, sportsball news I follow, and Hollywood events I care about. What happened to my life?! 	en	6	2	0		2017-10-13T03:01:53.000Z	279	8,344				
913919557567356928	94	alissa	How did we not make this joke sooner? 	en	1	0	0		2017-09-30T00:12:56.000Z	279	8,344				
913906184310054912	94	alissa	I lol'd. 	en	0	0	0		2017-09-29T23:19:48.000Z	279	8,344				
913252952726421505	94	alissa	Artificial intelligence could make fake news even harder to spot 	en	1345	43	1504	verge	2017-09-28T04:04:06.000Z	279	8,344		blob:https://twitter.com/fd93974b-c0e1-48ba-9f57-debd671ad6b7	https://pbs.twimg.com/media/DKmBLXyU8AAu_5z.jpg	
913196663841349632	94	alissa	Referring to other nations as "our competitors" speaks to perhaps the one true ideal of Trumpism: Winning. 	en	0	0	0		2017-09-28T00:20:25.000Z	279	8,344				
874657025619369986	94	alissa	Read my new report on The 5 Types of Trump Voters: Who they are &amp; what they believe http://www.voterstudygroup.org/reports/2016-elections/the-five-types-trump-voters #VOTERSG 	en	133	27	140	emilyekins	2017-06-13T15:57:39.000Z	279	8,344				https://pbs.twimg.com/media/DCNn7XvWsAE9PPE?format=jpg&amp;name=360x360
912483456323428352	94	alissa	It’s good that the whitehouse has developed strong communication practices before having to deal with a major international incident. 	en	1	0	0		2017-09-26T01:06:23.000Z	279	8,344				
912483261124771840	94	alissa	“Aides to President Trump are rejecting the notion that the commander in chief declared war…” 	en	0	1	0		2017-09-26T01:05:37.000Z	279	8,344				
912170888623042561	94	alissa	Damn. 	en	2	0	0		2017-09-25T04:24:21.000Z	279	8,344				
908804222786908162	94	alissa	Choose your own micro story. (Thread.) 	en	1	1	0		2017-09-15T21:26:26.000Z	279	8,344				
905606361647640577	94	alissa	someone has been replacing the NYC MTA ads with their own way more subversive (and subtle) versions 	en	65020	386	31446	nevona	2017-09-07T01:39:16.000Z	279	8,344				https://pbs.twimg.com/media/DJFcGetW4AEFbcp?format=jpg&amp;name=240x240 https://pbs.twimg.com/media/DJFcGfmXoAAcVkB?format=jpg&amp;name=240x240 https://pbs.twimg.com/media/DJFcGfQXcAAkfH2?format=jpg&amp;name=240x240 https://pbs.twimg.com/media/DJFcGo6XUAEb5o2?format=jpg&amp;name=240x240
906628855229812737	94	alissa	I know I'm way late to the party (it's probably passé by now) but it seems I'm doing the Instagram thing now. https://www.instagram.com/alissa.thorne/ 	en	2	0	0		2017-09-09T21:22:18.000Z	279	8,344				
906283859322527744	94	alissa	True. Facebook was focused on solving yesterday's problems. Seems short sighted, but recall--it was yesterday at the time. 	en	4	0	0		2017-09-08T22:31:24.000Z	279	8,344				
906282925506924544	94	alissa	And here I'd just assumed it was faked. 	en	0	0	0		2017-09-08T22:27:42.000Z	279	8,344				
905453771513323520	94	alissa	IN A POST APOCALYPTIC WORLD I WOULD BE AN INCREDIBLE WARLORD A KING UNLESS I ENCOUNTERED OBSTACLES OF ANY KIND THEN I WOULD JUST BE DEAD 	en	1595	8	494	SICKOFWOLVES	2017-09-06T15:32:56.000Z	279	8,344				
903437787294302208	94	alissa	Rhetoric aimed at frightening the public is making the opioid overdose problem worse http://j.mp/2vNqIzU #OverdoseAwarenessDay 	en	14	3	12	CatoInstitute	2017-09-01T02:02:08.000Z	279	8,344				https://pbs.twimg.com/media/DImn4P2WsAAz_LO?format=jpg&amp;name=360x360
900923097624100864	94	alissa	I sure hope the next aspiring despot we elect is as politically inept and fundamentally incompetent as this one. 	en	5	1	2		2017-08-25T03:29:39.000Z	279	8,344				
900920785727930368	94	alissa	"It's not the destination, but the endless, exhausting journey." - @NightValeRadio 	en	2	0	0		2017-08-25T03:20:28.000Z	279	8,344				
899641054512594946	94	alissa	Now is your moment to shine. ((🌕)) 	en	4225	14	2056	Oatmeal	2017-08-21T14:35:16.000Z	279	8,344				https://pbs.twimg.com/media/DHwqw__VYAAR-tL?format=jpg&amp;name=360x360
899520399146274816	94	alissa	I'm not even sure bringing back that one white walker was even worth it guys 	en	7229	105	855	mindykaling	2017-08-21T06:35:50.000Z	279	8,344				
898951071996854272	94	alissa	It's band-aids all the way down. 	en	1	0	0		2017-08-19T16:53:31.000Z	279	8,344				
898929544442200064	94	alissa	It is SO satisfying to watch someone punch a nazi! But now is the time to take a breath, refuse the bait, and be smarter than the nazis. 	en	2	0	0		2017-08-19T15:27:59.000Z	279	8,344				
898925872001843201	94	alissa	I'm down to donate $1 to @lifeafterhate for every nazi who attends a ralley this weekend up to $1,000. Who's in? 	en	1	0	1		2017-08-19T15:13:23.000Z	279	8,344				
898924501064228864	94	alissa	Let's do something like this. 	en	2	1	0		2017-08-19T15:07:56.000Z	279	8,344				
897442972756656128	94	alissa	Meanwhile, Satanists suggest homosexuals enjoy a feast with friends and loved ones while ignoring this doofus pastor's dingbat superstition. 	en	11588	65	5708	ChurchofSatan	2017-08-15T13:00:53.000Z	279	8,344				
896311791843770368	94	alissa	"I've heard all writers use the same kind of tool?" the kitten said. "A human?" the poet purred. "Yes. Not ideal, but easily Inspired." 	en	588	1	249	MicroSFF	2017-08-12T10:05:58.000Z	279	8,344				
895768537859584002	94	alissa	Play this game. It is brilliant. @ncasenmare https://ncase.itch.io/wbwwb 	en	4	0	2	TobiasRose	2017-08-10T22:07:16.000Z	279	8,344				
896235704920834049	94	alissa	The most effective #RESIST movement would be Democrats for President Pence. *ducks* 	en	0	0	0		2017-08-12T05:03:37.000Z	279	8,344				
896217458981216257	94	alissa	I mean, as long as we're all going to spend all our time being terrified anyway, at least it can be intellectually engaging terror. 	en	4	0	0		2017-08-12T03:51:07.000Z	279	8,344				
896212823444934656	94	alissa	Nod. Very wise. 	en	1	0	0		2017-08-12T03:32:42.000Z	279	8,344				
895075100369633280	94	alissa	Today is my grandmother's birthday. She passed away in May. We never have as much time with the people we love as we think. 	en	2	0	0		2017-08-09T00:11:48.000Z	279	8,344				https://pbs.twimg.com/media/DGvxPlwUIAAt3K9?format=jpg&amp;name=360x360
895063312966139905	94	alissa	Pouring one out for all of the possibly inflammatory jokes I've refrained from making today. 	en	4	0	0		2017-08-08T23:24:57.000Z	279	8,344				
893896817305243648	94	alissa	"I don't know how long this vision in which we all pretend to be real will last. I am pretending as hard as I can." -- @NightValeRadio 	en	3	0	0		2017-08-05T18:09:43.000Z	279	8,344				
893300137405030402	94	alissa	I can't stop watching this. 	en	2	0	2		2017-08-04T02:38:44.000Z	279	8,344				
12602740087	94	alissa	"What was I thinking, clicking that link?" --me, dozens of times a day 	en	2	0	1	alissa	2010-04-21T22:50:42.000Z	279	8,344				
890323439898300416	94	alissa	I had a long, fascinating talk with Tristan Harris about how he wants the tech industry to change. 	en	170	3	77	nxthompson	2017-07-26T21:30:24.000Z	279	8,344				
890322318416781313	94	alissa	"Technology is neither good nor bad; nor is it neutral" --Melvin Kranzberg via @zeynep 's Twitter and Tear Gas 	en	19	0	11		2017-07-26T21:25:56.000Z	279	8,344				
889181949914267648	94	alissa	That reminds me, I recently discovered "find on page" on iOS safari. Did y'all know about this? And if so why didn't you tell me? 	en	3	0	0		2017-07-23T17:54:31.000Z	279	8,344				https://pbs.twimg.com/media/DFcCRA5XYAADHrX?format=jpg&amp;name=240x240 https://pbs.twimg.com/media/DFcCRA0XkAIhIyC?format=jpg&amp;name=240x240
888909759474266114	94	alissa	Sweet mother of God. 	en	106	7	50	ftrain	2017-07-22T23:52:56.000Z	279	8,344				
888887489187913732	94	alissa	Me: Don't put that in your mouth. You don't know where that's been. Nephew: I don't care. That's for future me to deal with. 	en	2	0	1	MaggieM	2017-07-22T22:24:26.000Z	279	8,344				
888873216596353024	94	alissa	I deal. You deal. We all deal with ideals. 	en	3	0	1	hoverbird	2017-07-22T21:27:43.000Z	279	8,344				
888978657133211650	94	alissa	All I want for my birthday is a little empathy, nuance, and critical thinking. Don't worry, you've got a couple months. 	en	2	1	0		2017-07-23T04:26:42.000Z	279	8,344				
888808975285800960	94	alissa	"You must take over. I'll retire," the Dread Pirate Roberts said. "But why?" his first mate asked. "To watch all films, and play all games." 	en	295	0	98	MicroSFF	2017-07-22T17:12:27.000Z	279	8,344				
888244782358827008	94	alissa	I was a receptionist and I was bored. 	en	10	0	0		2017-07-21T03:50:33.000Z	279	8,344				
887024256533516288	94	alissa	Also a fun thought experiment: What was the last thing you said online that, given the right circumstances, could destroy your life? 	en	0	1	0		2017-07-17T19:00:37.000Z	279	8,344				
887009333396905984	94	alissa	Crazy idea, but hear me out. What if, when we're fixin to get mad on the internet, we first imagine they're a real person? 	en	5	1	0		2017-07-17T18:01:19.000Z	279	8,344				
886659761340469248	94	alissa	More often then I'd like. 	en	5	1	1	bs	2017-07-16T18:52:15.000Z	279	8,344				
345559476176314369	94	alissa	Confused? At a loss for what to do? Wow, sounds like you're human. Good luck. 	en	3875	8	3205	NightValeRadio	2013-06-14T15:12:53.000Z	279	8,344				
886633456901513216	94	alissa	This is How Your Fear and Outrage Are Being Sold for Profit 	en	301	28	255	TobiasRose	2017-07-16T17:07:43.000Z	279	8,344				
886832076917551105	94	alissa	Game of Thrones really is the best. 	en	0	0	0		2017-07-17T06:16:58.000Z	279	8,344				
886512363901300736	94	alissa	"Let's not dwell on our corpse strewn past. Let's celebrate our corpse strewn future!" -- @NightValeRadio 	en	2	0	0		2017-07-16T09:06:32.000Z	279	8,344				
883046387780386817	94	alissa	somethin kinda neat i found out…if you ignore a problem for long enough, it either goes away or ruins your life. so 50/50. pretty good odds. 	en	49428	86	18955	bobby	2017-07-06T19:33:59.000Z	279	8,344				
883198495590563840	94	alissa	I love you, but I'm disappointed in you. 	en	1	1	0		2017-07-07T05:38:25.000Z	279	8,344				
822504053057929218	94	alissa	This is the stupidest day in American history, a record that will be broken by every subsequent day in American history. 	en	34844	509	12731	cushbomb	2017-01-20T18:00:22.000Z	279	8,344				
860234274842324993	94	alissa	Gaze not into the abyss, lest you become recognized as an abyss domain expert, and they expect you keep gazing into the damn thing. 	en	6610	56	4168	nickm_tor	2017-05-04T20:46:48.000Z	279	8,344				
881231406004883456	94	alissa	Me: Wow I love my new apartment! Brain: someday you'll be dead and you won't get to hang out here anymore Me: who made you like this 	en	1016	9	261	ItsDanSheehan	2017-07-01T19:21:54.000Z	279	8,344				
796870708412358657	94	alissa	*wakes up and looks at phone* ah let's see what fresh horrors await me on the fresh horrors device 	en	18336	67	9340	missokistic	2016-11-11T00:22:36.000Z	279	8,344				
881052678175965185	94	alissa	In the last several hours of trying to find a specific tweet amongst 6+ months of my favs, I've gotta say--I've got some great favs, y'all. 	en	3	0	0		2017-07-01T07:31:42.000Z	279	8,344				
881045804521185280	94	alissa	We were so innocent back then. 	en	2	0	0		2017-07-01T07:04:23.000Z	279	8,344				
1265692747043913728	107	pud	Today is exactly the 20-year anniversary of when I launched Fuckedcompany ((😱)) 	en	407	75	43		2020-05-27T17:14:00.000Z	1,388	44,244				
1237755739252436992	107	pud	Hey everyone I’ve been away from Twitter for a while. What’d I miss? 	en	38	28	1		2020-03-11T15:02:19.000Z	1,388	44,244				
1200252028246790144	107	pud	((🧡)) 	und	22	5	1		2019-11-29T03:15:57.000Z	1,388	44,244				
1200251889499148288	107	pud	Happy thanksgiving! 	en	27	2	1		2019-11-29T03:15:24.000Z	1,388	44,244				
1196137914171682822	107	pud	Something smells good 	en	4	5	0		2019-11-17T18:47:56.000Z	1,388	44,244				
1192493536190648322	107	pud	I made a thing 	en	21	3	4		2019-11-07T17:26:29.000Z	1,388	44,244				
1166931015039967232	107	pud	pretty much all shoes are slip-ons 	en	25	4	1		2019-08-29T04:30:09.000Z	1,388	44,244				
1162918577982365697	107	pud	pud soap 	en	15	2	0		2019-08-18T02:46:09.000Z	1,388	44,244				
1132743747136086023	107	pud	Cabbage &gt; Lettuce 	it	15	3	0		2019-05-26T20:22:09.000Z	1,388	44,244				
1118762332098846720	107	pud	Do normal people know what "SMS" means? Or do I have to use a longer phrase like "Text Messaging" 	en	19	11	0		2019-04-18T06:25:00.000Z	1,388	44,244				
1235828190964101121	126	brandooon	Yah YEEEET 	en	0	0	0		2020-03-06T07:22:55.000Z	250	3,408				
1235827941201735680	126	brandooon	YIKES 	en	0	0	0		2020-03-06T07:21:56.000Z	250	3,408				
1230400968434446336	126	brandooon	EVGA RMAs gone wrong #evga 	en	0	0	0		2020-02-20T07:57:05.000Z	250	3,408				
1218132640227827712	126	brandooon	((😭)) ((😭)) ((😭)) 	und	0	0	1	WhiteEagleTV	2020-01-17T11:27:07.000Z	250	3,408				
1185140918049001478	126	brandooon	Preliminary 0.12 patch notes #EscapefromTarkov https://forum.escapefromtarkov.com/topic/103667-the-preliminary-patchnote-012/ 	en	1721	258	502	bstategames	2019-10-18T10:29:48.000Z	250	3,408				
1164530205882347522	126	brandooon			1165	172	329	ihateSKINNY	2019-08-22T13:30:11.000Z	250	3,408				
1161289278153998337	126	brandooon	Dear tarkovians! As you guessed (or not) we are adding BattlEye anticheat to increase protection from the unfair players (yes, it's that Big thing we mentioned earlier). https://forum.escapefromtarkov.com/topic/101955-we-are-adding-battleye/ 	en	945	90	179	BetaEFT	2019-08-13T14:51:54.000Z	250	3,408				
1161370406852411393	126	brandooon	Say hello to ViacomCBS, but maybe don’t go to the website yet 	en	3	0	2	FastCompany	2019-08-13T20:14:16.000Z	250	3,408				
1120510995519148032	126	brandooon	Came across these today when going through some old PC parts @CORSAIR 	en	0	0	0		2019-04-23T02:13:34.000Z	250	3,408				
1049772431748059136	126	brandooon	Con advice in 2018 LUL 	en	133	23	14	Sequisha	2018-10-09T21:23:46.000Z	250	3,408				
1108842595864567808	126	brandooon	New MED and Guilty Simpson album on the way… Jackson Brothers coming soon…. Thinking about an album with @chriscrackndc . What do you guys think? 	en	2528	240	564	madlib	2019-03-21T21:27:30.000Z	250	3,408				
1111889539075731456	126	brandooon	#CYKA #blyat 	und	0	0	0		2019-03-30T07:14:58.000Z	250	3,408				
1098338810016890880	126	brandooon	Cousin @Alchemist - Madlib Invazion gang affillate 	en	888	10	127	madlib	2019-02-20T21:49:13.000Z	250	3,408				
1089772923043250176	126	brandooon			0	0	0		2019-01-28T06:31:26.000Z	250	3,408				
1072731205433466881	126	brandooon	So @Pestily challenged me to a Glock Duel! Who do you think would win?? https://clips.twitch.tv/CarelessBlatantCheesecakeThisIsSparta #eft #escapefromtarkov @bstategames @BetaEFT 	en	6	4	5	DottyHackTV	2018-12-12T05:53:44.000Z	250	3,408				
1023445695917772800	126	brandooon	#EscapeFromTarkov @escapetarkovfr $150 USD for pre-order in beta and all temporary codes have been disabled? No refund policy if you connectivity is too low, or performance is an issue? EOD customer lost ? Maybe, just maybe! #Tarkovtempcodeenable 	en	0	0	0		2018-07-29T05:50:43.000Z	250	3,408				
1019803796354945026	126	brandooon	#vbucksgiveaway #Fortnite #epicgames #PCGamer #PCMasterRace 	und	0	0	0		2018-07-19T04:39:06.000Z	250	3,408				
1019792564369514497	126	brandooon	Low interaction stream! Will be playing with SinematicYT! Come hang out &lt;3 https://www.youtube.com/watch?v=z3mxEVh8Q3U 	en	20	2	8	Foxyzilla	2018-07-19T03:54:28.000Z	250	3,408				
1017929012599980032	126	brandooon	We're live with more @IslandsOfNyne ! Get yourself in here and enjoy some fast-paced, futuristic battle royale action! https://gaming.youtube.com/watch?v=jTlyd1taUL0 	en	8	1	6	BassistDood	2018-07-14T00:29:23.000Z	250	3,408				
1012865630624669696	126	brandooon	#pubg #PLAYERUNKNOWNSBATTLEGROUNDS #quake #quakechampions 	und	0	0	0		2018-06-30T01:09:19.000Z	250	3,408				
1007587188173889536	126	brandooon	Q&amp;A - Answers is rendering right now! I'll schedule the upload this afternoon (CST). Get ready! ((😁)) 	en	4	0	1	Easelm	2018-06-15T11:34:40.000Z	250	3,408				
991845868130070529	126	brandooon	#GPU #GPUs #gtx970 #geforcenow 	und	3	0	0		2018-05-03T01:04:17.000Z	250	3,408				
989666152891613185	126	brandooon	Come join us, new weapons, cars, etc... #pubg #PLAYERUNKNOWN #PLAYERUNKNOWNSBATTLEGROUNDSPublicTestServer #PUBGpartners 	en	0	0	0		2018-04-27T00:42:52.000Z	250	3,408				
987097607259541504	126	brandooon	Going live with PUBG! #PUBG #battlegrounds #stream #streaming #youtubegaming 	en	1	0	2	Easelm	2018-04-19T22:36:23.000Z	250	3,408				
986631476732030984	126	brandooon	In the upcoming months, we plan to add new weapons, vehicles, and areas to Codename: Savage. This includes an underground cave system. Discover how our art team drew inspiration from real life places in Thailand to create this location: https://steamcommunity.com/games/578080/announcements/detail/3229520292640822642 	en	6440	281	1392	PUBG	2018-04-18T15:44:09.000Z	250	3,408				https://pbs.twimg.com/media/DbE2gjFVQAE_JQi?format=jpg&amp;name=360x360
983118290091499520	126	brandooon	Going live with PUBG! #PUBG #battlegrounds #stream #streaming #youtubegaming 	en	3	0	2	Easelm	2018-04-08T23:04:00.000Z	250	3,408				
980988335425335296	126	brandooon	New map live stream https://gaming.youtube.com/watch?v=z_2UsWbLgyk @OfficialEaselm #PUBG #PlayersUnknownBattleGrounds 	en	1	0	0		2018-04-03T02:00:19.000Z	250	3,408				
979240149593837569	126	brandooon	Starting to come together ((😃)) ((😆)) https://www.instagram.com/p/Bg5WkPohp6690l4uA8uQAYZ-ZcAfx88kpTzIt00/ 	en	0	0	0		2018-03-29T06:13:39.000Z	250	3,408				
978285464925831168	126	brandooon	Wu Wisdom... 	en	482	5	174	WuTangClan	2018-03-26T15:00:05.000Z	250	3,408				https://pbs.twimg.com/media/DZOIP4eX4AEFrAC?format=jpg&amp;name=360x360
978379243712229376	126	brandooon	Installing a new CPU cooler on my coffee lake 8700k i7, been feeling… https://www.instagram.com/p/BgzRLwHhbzhzFmDIDKBaDi9eeDxfVCZba2Y7rY0/ 	en	0	0	0		2018-03-26T21:12:43.000Z	250	3,408				
978165679483441152	126	brandooon	Healed up @EternalArt676 ((✊🏽)) ((✊🏽)) https://www.instagram.com/p/BgxwG8ghcQccfcBrthOR1SbFWj_vu6tKDsbGJE0/ 	en	0	0	0		2018-03-26T07:04:06.000Z	250	3,408				
974861715077677056	126	brandooon	Go show this man some love @Injusticemonk great live game play on #PUBG #PLAYERUNKNOWNSBATTLEGROUNDS #GamersUnite 	en	0	0	0		2018-03-17T04:15:19.000Z	250	3,408				
972645145391677441	126	brandooon	https://gaming.youtube.com/watch?v=QdHzJIEqhc4 Trying to get to 14k tonight! Click and subscribe #PUBG #PlayersUnknownBattleGrounds @GaZe_Savage 	en	0	0	0		2018-03-11T01:27:28.000Z	250	3,408				
960505468216008704	126	brandooon	Watch the new teaser trailer for Solo: A Star Wars Story and see it in theaters May 25. #HanSolo 	en	86592	1618	53120	starwars	2018-02-05T13:28:43.000Z	250	3,408		blob:https://twitter.com/c0d1caae-b95d-4118-ad36-4d2cc866c2c5	https://pbs.twimg.com/media/DVRljdRVAAA-G_t.jpg	
947030862574391296	126	brandooon	We #NeedtoImpeach @RealDonaldTrump . Join me and sign on to @TomSteyer ’s petition demanding Congress impeach Trump. http://action.needtoimpeach.com/t4-img-3?sc=tws 	en	0	0	0		2017-12-30T09:05:27.000Z	250	3,408				
939765890282766336	126	brandooon	Get the best streetwear clothing and a personal designer. Packages are delivered every month like a subscription to your doorstep! http://threadbeast.refr.cc/brandont2 via @threadbeast 	en	0	0	0		2017-12-10T07:57:02.000Z	250	3,408				
936356942896861186	126	brandooon	Stranger Wars 	en	5917	29	1599	_Snape_	2017-11-30T22:11:06.000Z	250	3,408				https://pbs.twimg.com/media/DP6brR5XkAECP1A?format=jpg&amp;name=small
935340646898061317	126	brandooon	Who's coming to Brooklyn this weekend? 	en	190	6	39	WuTangClan	2017-11-28T02:52:42.000Z	250	3,408				https://pbs.twimg.com/media/DPr_WnaW4AA3Dtq?format=jpg&amp;name=360x360
923775985169793024	126	brandooon	Help rebuild Northern California http://helpsonomacounty.com #sonomafire #SonomaStrong #sonomacountyfires #santarosafire 	en	0	0	0		2017-10-27T04:58:52.000Z	250	3,408				
921867149420957696	126	brandooon	London London bridge! @RZA @MathematicsWU 	en	482	10	155	WuTangClan	2017-10-21T22:33:50.000Z	250	3,408		blob:https://twitter.com/fef7ee44-df30-4a70-91cf-725f3f28ffd6	https://pbs.twimg.com/ext_tw_video_thumb/921867018298642432/pu/img/emkoQ7ecRhblnnQv.jpg	
907842723520053248	126	brandooon	Quote of the year "you're going to be so happy." ((Face with tears of joy)) 	en	0	0	0		2017-09-13T05:45:46.000Z	250	3,408				
893351487392186368	126	brandooon	My natural #gymnast #gymnastics , go soren ! ((🙌🏽)) ((🙌🏽)) https://www.instagram.com/p/BXXHFR7ANBOf3u4FJU4CPdFGfAPh5RqkUHqYHc0/ 	en	0	0	0		2017-08-04T06:02:46.000Z	250	3,408				
891167248081076224	126	brandooon	I haven't done anything in a while, so, don't judge me ((Winking face with tongue)) ((Winking face with tongue)) https://www.instagram.com/p/BXHlzVLAqAwU73G7Nkor_u58zyMIu2V3gbCoWo0/ 	en	0	0	0		2017-07-29T05:23:23.000Z	250	3,408				
890458746127831040	126	brandooon	Finding something so simple can bring back so the best or worst… https://www.instagram.com/p/BXCjnN6ArEKcHj4nZOPdGXVxuE-Ea7S_6bHSn00/ 	en	0	0	0		2017-07-27T06:28:03.000Z	250	3,408				
888928819939336192	126	brandooon	Hey baby don't you worry Even though the road is rocky I'll be… https://www.instagram.com/p/BW3r4aZAdQ1rkEzlYOZnp-VhRFxsHf0UDT5O_Y0/ 	en	0	0	0		2017-07-23T01:08:40.000Z	250	3,408				
888262697199915008	126	brandooon	Little munchkin ((Face with tears of joy)) ((Face with tears of joy)) https://www.instagram.com/p/BWy89v5gWyebJWVBwpTOwgkNOjssJ6fgOeBR-I0/ 	en	0	0	0		2017-07-21T05:01:44.000Z	250	3,408				
886430981653241856	126	brandooon	#nofilter #chemclouds ((Rolling on the floor laughing)) #funnybutnotfunny @ Glen Ellen, California https://www.instagram.com/p/BWl7_1sgWWa/ 	en	0	0	0		2017-07-16T03:43:09.000Z	250	3,408				
884983703788769283	126	brandooon	I tried.. maybe we should have done it my way ((Neutral face)) #realtalk https://www.instagram.com/p/BWbp2V1AHov/ 	en	0	0	0		2017-07-12T03:52:11.000Z	250	3,408				
883826807618895872	126	brandooon	Because I think I might do ((Fire)) https://www.instagram.com/p/BWTbwmmg_9a/ 	en	0	0	0		2017-07-08T23:15:06.000Z	250	3,408				
883501522717294592	126	brandooon	Stop being so #koi https://www.instagram.com/p/BWRH1SZg2co/ 	en	1	0	0		2017-07-08T01:42:32.000Z	250	3,408				
883456307809968128	126	brandooon	Good god 102 degrees https://www.instagram.com/p/BWQzRROgfZe/ 	en	0	0	0		2017-07-07T22:42:52.000Z	250	3,408				
882782639849054208	126	brandooon	#delete ((👋🏽)) https://www.instagram.com/p/BWMA7LHA5KO/ 	und	0	0	0		2017-07-06T02:05:57.000Z	250	3,408				
882447673562988544	126	brandooon	#happy4thofjuly https://www.instagram.com/p/BWJomHTgCWA/ 	und	0	0	0		2017-07-05T03:54:55.000Z	250	3,408				
877415324307648512	126	brandooon	Yiggitie ((Grinning face with smiling eyes)) ((Squinting face with tongue)) https://www.instagram.com/p/BVl4JRngaKR/ 	und	0	0	0		2017-06-21T06:38:09.000Z	250	3,408				
876275980729556994	126	brandooon	Blue hair don't care! https://www.instagram.com/p/BVdyC03AzL4/ 	en	0	0	0		2017-06-18T03:10:48.000Z	250	3,408				
875209990570508288	126	brandooon	My baby ((Smiling face with heart-shaped eyes)) ((Smiling face with heart-shaped eyes)) https://www.instagram.com/p/BVWNSaFghj3/ 	en	0	0	0		2017-06-15T04:34:57.000Z	250	3,408				
874403170746871808	126	brandooon	It's going down in the DM !! ((Winking face with tongue)) ((Squinting face with tongue)) #starwarsbattlefront2 #starwarsbattlefrontii https://www.instagram.com/p/BVQeY4Rg2tZ/ 	en	0	0	0		2017-06-12T23:08:56.000Z	250	3,408				
872950384226172928	126	brandooon	Facebook is speeding up training for visual recognition models 	en	34	1	32	TechCrunch	2017-06-08T22:56:04.000Z	250	3,408				
872592867000242176	126	brandooon	#textures https://www.instagram.com/p/BVDnKB8g3Hv/ 	und	0	0	0		2017-06-07T23:15:26.000Z	250	3,408				
872287985097748482	126	brandooon	So this happened today.. ((Grinning face)) ((Grinning face with smiling eyes)) https://www.instagram.com/p/BVBcg2xgGjm/ 	en	0	0	0		2017-06-07T03:03:56.000Z	250	3,408				
871980163067768832	126	brandooon	Love these plugs ! #lobe ((Smiling face with open mouth and tightly-closed eyes)) https://www.instagram.com/p/BU_Qh-9gDI5/ 	en	0	0	0		2017-06-06T06:40:46.000Z	250	3,408				
869676618381393920	126	brandooon	This whip doh.. ((Smiling face with heart-shaped eyes)) ((Smiling face with heart-shaped eyes)) #teslamodels https://www.instagram.com/p/BUu5AHYgsDR/ 	en	0	0	0		2017-05-30T22:07:18.000Z	250	3,408				
869255563733061632	126	brandooon	((✊🏽)) ((✊🏽)) https://www.instagram.com/p/BUr5hvNgPfI/ 	und	0	0	0		2017-05-29T18:14:11.000Z	250	3,408				
868627642764996609	126	brandooon	game ready ! ((✊🏽)) https://www.instagram.com/p/BUnb-4KgUB-/ 	en	0	0	0		2017-05-28T00:39:03.000Z	250	3,408				
868618336531251200	126	brandooon	My favorite view in the world ((Smiling face)) https://www.instagram.com/p/BUnXwAVghWI/ 	en	0	0	0		2017-05-28T00:02:04.000Z	250	3,408				
868308862537019392	126	brandooon	Floppy tattoo ears ((Face with tears of joy)) ((Face with tears of joy)) ((Face with tears of joy)) https://www.instagram.com/p/BUlLBDVArp0/ 	en	0	0	0		2017-05-27T03:32:19.000Z	250	3,408				
868291931100545024	126	brandooon	Not fast enough ((Smiling face)) ((Face with tears of joy)) ((Face with tears of joy)) @ Sonoma Taekwondo Center https://www.instagram.com/p/BUlDUQrABNU/ 	ca	0	0	0		2017-05-27T02:25:03.000Z	250	3,408				
868256481291972610	126	brandooon	#taekwondo @ Sonoma Taekwondo Center https://www.instagram.com/p/BUkzMl0A2yn/ 	pt	1	0	0		2017-05-27T00:04:11.000Z	250	3,408				
866524476405624832	126	brandooon	#la https://www.instagram.com/p/BUYfktIA_U-/ 	und	0	0	0		2017-05-22T05:21:49.000Z	250	3,408				
864625887681138688	126	brandooon	Enjoying this baby in addition to the #civicsport https://www.instagram.com/p/BULAMfjAgvh/ 	en	0	0	0		2017-05-16T23:37:30.000Z	250	3,408				
862499136825962496	126	brandooon	My baby ((✊🏽)) ((✊🏽)) #openhouse #hamandcheese ((Smiling face with heart-shaped eyes)) @ Glen Ellen, California https://www.instagram.com/p/BT75D0Ugi_8/ 	en	0	0	0		2017-05-11T02:46:33.000Z	250	3,408				
862343783161229313	126	brandooon	#rupikaur https://www.instagram.com/p/BT6yafBA_vI/ 	und	1	0	0		2017-05-10T16:29:14.000Z	250	3,408				
862050097508515840	126	brandooon	Trip on that #ferrari #1stinvinte https://www.instagram.com/p/BT4s3GbA8O4/ 	en	0	0	0		2017-05-09T21:02:14.000Z	250	3,408				
856566128683794433	126	brandooon	This statement explains it all - "I think the 100 days is, you know, it’s an artificial barrier. It’s not very meaningful" #trump100days 	en	0	0	0		2017-04-24T17:50:53.000Z	250	3,408				
853713507937914884	126	brandooon	#happyeaster ((Rabbit face)) ((Hatching chick)) https://www.instagram.com/p/BS9d0a0giN3/ 	und	0	0	0		2017-04-16T20:55:36.000Z	250	3,408				
851266181310726144	126	brandooon	#sometimes https://www.instagram.com/p/BSsE52eg9Fd/ 	und	0	0	0		2017-04-10T02:50:48.000Z	250	3,408				
850794049296531456	126	brandooon	I just had to ; The Russian warships off the coast of Syria #thingsmoretrustedthantrump https://www.instagram.com/p/BSouM-9gAY9/ 	en	0	0	0		2017-04-08T19:34:42.000Z	250	3,408				
850456817163481088	126	brandooon	Tongue out ((Tongue)) https://www.instagram.com/p/BSmU2RoAjjD/ 	en	0	0	0		2017-04-07T21:14:40.000Z	250	3,408				
847315893621096450	126	brandooon	LOBE! ((Rolling on the floor laughing)) ((Rolling on the floor laughing)) https://www.instagram.com/p/BSQAhaPAgMb/ 	en	1	0	0		2017-03-30T05:13:46.000Z	250	3,408				
1114243859133947904	136	meikel	((🎉)) Two storks are better than one. So let’s hope for some baby storks this year. ((🐣)) ((🍼)) ((🤱)) @ Gießelrade, Schleswig-Holstein, Germany https://www.instagram.com/p/Bv4pTZ-n-RH/?utm_source=ig_twitter_share&amp;igshid=1nf1014pa1fhq 	de	1	0	0		2019-04-05T19:10:12.000Z	774	1,730				
1113848264036626433	136	meikel	Good morning Sir! Welcome back. https://www.instagram.com/p/Bv11aIqniJs/?utm_source=ig_twitter_share&amp;igshid=k139cqmo4emv 	en	0	0	0		2019-04-04T16:58:15.000Z	774	1,730				
1104128982830723073	136	meikel	Worth reading… 	en	0	0	0		2019-03-08T21:17:17.000Z	774	1,730				
1040573560165683205	136	meikel	Ich will ein #Baumhaus für meine Kinder bauen. Ist bei mir auch ein Polizeieinsatz bei Nichteinhalten der Brandschutzbestimmungen zu befürchten? Ich habe heute bei meinem Bauamt nachgefragt. Macht das zur Sicherheit auch, bevorzugt in #NRW . #HambiBleibt #Kohleausstieg 	de	2957	71	1128	VQuaschning	2018-09-14T12:10:44.000Z	774	1,730				https://pbs.twimg.com/media/DnDcEOQXoAAdnOF?format=jpg&amp;name=360x360
978740237689122817	136	meikel	Hey @sketchapp , is there any way to turn of dithering on gradients when you export your assets? Dithered Bitmaps don't scale that well ;-) 	en	1	1	0		2018-03-27T21:07:11.000Z	774	1,730				
724071152835026944	136	meikel	If video games have taught me anything it's that this guy is selling rare items that I'll need later in my quest. 	en	18814	223	13122	thepierrebear	2016-04-24T03:03:10.000Z	774	1,730				https://pbs.twimg.com/media/Cgxq3cTUoAATOJg?format=jpg&amp;name=360x360
718368260413132800	136	meikel	Let’s get this started. https://theta360.com/s/lqkkXP9BDwEJpTFhGD3KSVWLo #sketchhackday 	en	7	2	5		2016-04-08T09:21:54.000Z	774	1,730				
715652896193437696	136	meikel	The birth of midcentury modernism, as photographed by its architects http://buff.ly/1q63wuv 	en	46	0	23	FastCoDesign	2016-03-31T21:32:01.000Z	774	1,730				https://pbs.twimg.com/media/Ce6ChErXIAA6aao?format=jpg&amp;name=360x360
711910354175922176	136	meikel	Thank you @csshsh for writing the majority of the code that made Twitter work! Pair programming between SF and Hamburg! 	en	416	8	117	jack	2016-03-21T13:40:29.000Z	774	1,730				
675393475131535362	136	meikel	“People don’t buy products; they buy better versions of themselves.” 	en	54	1	37	jnack	2015-12-11T19:15:27.000Z	774	1,730				https://pbs.twimg.com/media/CV96yWRUAAAJndh?format=jpg&amp;name=360x360
666369343152922625	136	meikel	Folks — pls RT Need some help getting the word out about our new personalised #kidsbook / http://kck.st/1GYttTr 	en	5	0	14	DanielFreytag	2015-11-16T21:36:46.000Z	774	1,730				https://pbs.twimg.com/media/CT9rYuQWwAA_dOh?format=jpg&amp;name=360x360
663848442955894784	136	meikel	A physical mechanism moving for real under real glass will always be cooler than a screen—own that. The Activité *looks* rad immediately. 	en	12	5	3	mrgan	2015-11-09T22:39:37.000Z	774	1,730				
663847752195928065	136	meikel	I know little about the watch market, but I wish more companies tried it like this—analog readouts of digital values http://www.withings.com/us/en/products/activite 	en	27	7	8	mrgan	2015-11-09T22:36:52.000Z	774	1,730				
663291349219844097	136	meikel	That looks great and so I just backed Moss Carpet on @Kickstarter 	en	2	0	1		2015-11-08T09:45:55.000Z	774	1,730				
593509730758197249	136	meikel	Nackblog: Snapseed plans: The return of Grunge &amp; more: Snapseed 2.0 is an enormous new release, and along with... 	en	2	2	2	jnack	2015-04-29T20:18:41.000Z	774	1,730				
586218570499096576	136	meikel	Let me announce the all new Snapseed. Rollercoaster continues. #snapseed https://appsto.re/de/B0umA.i 	en	1	0	2		2015-04-09T17:26:13.000Z	774	1,730				
421686029075365888	136	meikel	● ● ⚀ ◔ ◙ • ° ((⚫)) ⚈ ⊙ ◕ ((⚫)) ❁ ◘ ° ((⚙)) ((⚙)) ((⚫)) ◉ ● 	und	299	5	282	crashtxt	2014-01-10T16:52:38.000Z	774	1,730				
530084776091189248	136	meikel	3 models on how design is shipped #FORMSF14 	en	70	3	49	kelvintow	2014-11-05T19:50:33.000Z	774	1,730				https://pbs.twimg.com/media/B1s9SpbCEAA49N3?format=jpg&amp;name=360x360
524156053702074368	136	meikel	Apple on Hamburger Menus http://feedly.com/e/W3fuHFp9 	en	86	11	113	joseph_carney	2014-10-20T11:11:56.000Z	774	1,730				
523215549636280320	136	meikel	If you have $800 and want to drift like a Mario Kart racer in real life... 	en	11	0	11	Polygon	2014-10-17T20:54:42.000Z	774	1,730				
522304163162882048	136	meikel	Good piece on Mark here from Joe Muggs http://www.factmag.com/2014/10/14/love-is-the-message-remembering-electronic-pioneer-mark-bell/ Get a brew and have a read. 	en	7	1	4	TheBlackDog	2014-10-15T08:33:11.000Z	774	1,730				
493483101272948736	136	meikel	Eine unglaubliche Doku über die Überwachung Deutschlands durch NSA, BND und Verfassungsschutz http://gutja.de/1o4wr8P 	de	49	2	62	gutjahr	2014-07-27T19:48:34.000Z	774	1,730				
483730818750103552	136	meikel	Check out these super cool tents. http://www.abeerseikaly.com/weavinghome.php 	en	21	8	28	biz	2014-06-30T21:56:29.000Z	774	1,730				
476789021759119361	136	meikel	@CatalinaNBock great image! How does your team see you? #UXSS 	en	3	0	4	sgbgrant	2014-06-11T18:12:15.000Z	774	1,730				https://pbs.twimg.com/media/Bp3lFqwCUAAhtfP?format=jpg&amp;name=360x360
465221416594718720	136	meikel	Mum??? 	und	9662	399	14378	ThatBloke_Jesus	2014-05-10T20:06:43.000Z	774	1,730				https://pbs.twimg.com/media/BnTMaYmIUAAJBRG?format=jpg&amp;name=360x360
448798281636659200	136	meikel	Steve Jobs on the disease of believing that 90% of the work is having a great idea … via @cdixon 	en	2846	115	3432	johnmaeda	2014-03-26T12:27:03.000Z	774	1,730				https://pbs.twimg.com/media/BjpzqL8CMAATUcM?format=jpg&amp;name=360x360
445667932241408001	136	meikel	Let's go mental to this http://youtu.be/Q48QS2fO250 Joey Beltram - Mentasm 	en	7	0	1	TheBlackDog	2014-03-17T21:08:09.000Z	774	1,730				
445681412801593344	136	meikel	Wes Anderson is obsessed with symmetry [supercut]: http://f-st.co/7MJ3B37 	en	24	2	17	FastCoDesign	2014-03-17T22:01:43.000Z	774	1,730				
442730666929557504	136	meikel	Books I read in 2013: http://www.mralancooper.com/ 	en	11	2	3	MrAlanCooper	2014-03-09T18:36:31.000Z	774	1,730				
434397982759198721	136	meikel	@CoelyCoely @beatville polaroidpano made with @Impossible_HQ #instantlab #bw600 	en	5	0	2	RoelandGrolus	2014-02-14T18:45:24.000Z	774	1,730				https://pbs.twimg.com/media/BgdKqe5CIAAxkQQ?format=jpg&amp;name=360x360
413137827388338176	136	meikel	an old one in celebration of a year of great gifts and friendships 	en	19	2	5	danielbressette	2013-12-18T02:45:08.000Z	774	1,730				https://pbs.twimg.com/media/BbvCqkVCMAEiPp0?format=png&amp;name=360x360
406317562113581056	136	meikel	A new toy arrived #nikondf 	en	0	1	0		2013-11-29T07:03:50.000Z	774	1,730				https://pbs.twimg.com/media/BaOHq3LIIAAUwDT?format=jpg&amp;name=360x360
402034487120633856	136	meikel	Happy Sunday! “ @EarthBeauties : Just when you thought Panda’s couldn’t get cuter. https://twitter.com/EarthBeauties/status/401975591765028864/photo/1 ” 	en	0	0	0		2013-11-17T11:24:25.000Z	774	1,730				
395238201477963776	136	meikel	For real though, Snapseed is amazeballs. One of Google’s best purchases, absolutely love it. Adding HDR is great. 	en	5	0	7	panzer	2013-10-29T17:18:25.000Z	774	1,730				
395077179270107136	136	meikel	http://whatdoesyourstartupdo.co/ Haaaaahaha 	tl	33	3	49	aub	2013-10-29T06:38:34.000Z	774	1,730				
390885466322395137	136	meikel	Pure gold. A selection of materials from the Typographische Monatsblätter http://www.tm-research-archive.ch 	en	10	2	3	folkertgorter	2013-10-17T17:02:12.000Z	774	1,730				
380590971458560000	136	meikel	So much of my late night life revolves around waiting for batteries to finish charging and wash cycles to finish... 	en	2	2	3	drwave	2013-09-19T07:15:33.000Z	774	1,730				
371502787529424897	136	meikel	Saving Google Maps for offline use is blowing my mind right now. 	en	41	7	36	mdo	2013-08-25T05:22:21.000Z	774	1,730				
367005420289667072	136	meikel	Love this! “ @kottke : iPhone 6 Infinity, a cool iPhone mockup featuring a wrap-around screen http://kottke.org/13/08/iphone-6-infinity ” 	en	0	0	0		2013-08-12T19:31:25.000Z	774	1,730				
355371685966393345	136	meikel	Crazy Cart, A Mini Electric Go-Kart That Can Move &amp; Drift in Any Direction http://squid.us/11G2gjW 	en	0	0	3	LaughingSquid	2013-07-11T17:03:07.000Z	774	1,730				
353192493203988480	136	meikel	Massimo Vignelli on “Quality” http://www.ghostinthepixel.com/?p=878 “Quality is a by-product of passion, curiosity, intensity, and professionalism.” 	en	10	0	12	odannyboy	2013-07-05T16:43:47.000Z	774	1,730				
346633616224292865	136	meikel	Jack White’s Third Man Record Booth Allows Fans to Record Themselves Live Onto Vinyl http://squid.us/1bNnbR8 	en	14	2	14	LaughingSquid	2013-06-17T14:21:08.000Z	774	1,730				
339944811920506880	136	meikel	Glass http://dcurt.is/glass (Some thoughts on ambient computers and my first experience with Google Glass.) 	en	54	11	62	dcurtis	2013-05-30T03:22:13.000Z	774	1,730				
339078445885693952	136	meikel	Photo Hack Day in Berlin this weekend! You should all go. The last one was amazing. Register here: http://photohackday.com 	en	1	0	2	csshsh	2013-05-27T17:59:35.000Z	774	1,730				
331701271130161152	136	meikel	Aaah I just want to make half-animals now! RT @McKelvie Google Street View cuts a cat in half http://google-street-view.com/new-cat-species-found-on-google-street-view/ https://twitter.com/streetviewfunny/status/331520975109763072/photo/1 	en	11	3	18	Han	2013-05-07T09:25:20.000Z	774	1,730				
323896463321079811	136	meikel	Boston police confirms another explosion at JFK Library #breaking 	en	131	306	6631	ReutersUS	2013-04-15T20:31:49.000Z	774	1,730				
323278419825668096	136	meikel	Wow holy what. Jai Paul just put his new album on Bandcamp I guess?! Instant purchase. http://cl.ly/3g1e2D240b1g 	en	3	1	1	CorySchmitz	2013-04-14T03:35:56.000Z	774	1,730				
319353226279391232	136	meikel	HAM ((✈)) SFO 	en	0	0	0		2013-04-03T07:38:37.000Z	774	1,730				
313553420101488640	136	meikel	"Color Thief" iOS app transfers #colors from a photo to another. Currently free. https://itun.es/ch/BugNI.i 	en	0	0	1	BuroDestruct	2013-03-18T07:32:15.000Z	774	1,730				
313554119770124288	136	meikel	⚑ Article: Gradient maps. 	en	56	2	24	bjango	2013-03-18T07:35:02.000Z	774	1,730				
311017682927509504	136	meikel	Said it before, will say it again: Be good. Be smart. Be true. Be nice. Then you'll be fine. IMO 	en	56	5	41	drwave	2013-03-11T07:36:08.000Z	774	1,730				
306627909551005696	136	meikel	Probably the biggest myth in business: The idea that you can change your corporate culture. 	en	18	10	17	MrAlanCooper	2013-02-27T04:52:45.000Z	774	1,730				
305672674418495489	136	meikel	THIS is how to wait in line: (via @160B @edyong209 @DocHackenbush 	en	16	2	39	golan	2013-02-24T13:36:59.000Z	774	1,730				https://pbs.twimg.com/media/BDs7Jh0CIAEn7Fq?format=jpg&amp;name=360x360
305257551027646464	136	meikel	Falls jemand noch zwei karten (erwachs.+kind) fürs Deine Freunde konzert im Tivoli hat, BITTE MELDEN! Danke. cc @deinefreundeHH 	de	0	0	0		2013-02-23T10:07:26.000Z	774	1,730				
303591218397466624	136	meikel	Recommended read for all riding the mobile first wave. http://www.uxmatters.com/mt/archives/2013/02/how-do-users-really-hold-mobile-devices.php 	en	0	1	0		2013-02-18T19:46:01.000Z	774	1,730				
298488256830525440	136	meikel	An old London water tower converted into a modern home. Could you live here? http://ow.ly/hp1v6 	en	1	0	1	florsquares	2013-02-04T17:48:40.000Z	774	1,730				
296603872636596224	136	meikel	"Soylent is a crowd-powered interface: one that embeds workers from Mechanical Turk into Microsoft Word...." http://tmblr.co/ZdGpWxc-AZ8P 	en	3	0	6	newaestheticbot	2013-01-30T13:00:48.000Z	774	1,730				
290910542623830018	136	meikel	Working this week at Google HQ. If you wanna meet, ping me. 	en	0	0	0		2013-01-14T19:57:32.000Z	774	1,730				
288123090968379392	136	meikel	Absolutely the best video this week. GoPro, meet trombone! http://youtu.be/_iSzgi2VhDw 	en	3	0	1	kfury	2013-01-07T03:21:12.000Z	774	1,730				
286486380186587136	136	meikel	Imagine if Twitter was around 50 years ago, and used by all the design greats... 	en	211	19	665	tomcrabtree	2013-01-02T14:57:31.000Z	774	1,730				https://pbs.twimg.com/media/A_nN2EyCUAADJUM?format=jpg&amp;name=small
284020950985494528	136	meikel	Google Think Quarterly did a great job condensing my thoughts in, "Karma to Millions." Read here: http://www.thinkwithgoogle.com/insights/featured/karma-to-millions/#utm_medium=social&amp;utm_campaign=twgplus&amp;utm_source=biz-stone 	en	38	4	36	biz	2012-12-26T19:40:46.000Z	774	1,730				
281477995955372033	136	meikel	On my blog: The Basement. A story of subterranean exploration. http://cabel.me/2012/12/19/the-basement/ 	en	85	17	122	cabel	2012-12-19T19:15:58.000Z	774	1,730				
278962088918003713	136	meikel	“People don’t buy WHAT you do, they buy WHY you do.” Simon Sinek 	en	5	0	10	_Everaldo	2012-12-12T20:38:39.000Z	774	1,730				
278043394633261056	136	meikel	Arrived in SF. 	en	0	0	0		2012-12-10T07:48:05.000Z	774	1,730				
273881656333570048	136	meikel	This is genius. https://itunes.apple.com/us/app/nudifier/id554023264?mt=8 	en	2	0	13	kulthouse	2012-11-28T20:10:50.000Z	774	1,730				
266965080531431424	136	meikel	There is no path, paths are made by walking. (Antonio Machado) 	en	11	0	8	folkertgorter	2012-11-09T18:06:49.000Z	774	1,730				
265182916596867073	136	meikel	I like the backup Gizmodo site 100 times more than the regular one: http://updates.gizmodo.com/ 	en	33	22	49	gruber	2012-11-04T20:05:08.000Z	774	1,730				
264480111955435520	136	meikel	"Nature of Code" by Daniel Shiffman ( @shiffman ) - book review by @AmnonOwed http://www.creativeapplications.net/processing/nature-of-code- 	en	1	0	1	Coleran	2012-11-02T21:32:27.000Z	774	1,730				
257507318227423233	136	meikel	A good designer would have thought about it... but maybe he did 	en	161	6	698	ke0man	2012-10-14T15:45:03.000Z	774	1,730				https://pbs.twimg.com/media/A5LZiqZCUAAjf6s?format=jpg&amp;name=small
260253613606174720	136	meikel	Picture of a grizzly bear checking out a boy in a bear costume at a zoo 	en	158	6	287	tedr	2012-10-22T05:37:51.000Z	774	1,730				
259783160290750464	136	meikel	Central Processing Unit @cpurecords http://fb.me/1uPJzNwsK 	en	1	0	2	DJCPS	2012-10-20T22:28:26.000Z	774	1,730				
259767189098360832	136	meikel	Sonntag um 12 im Museum für Kunst und Gewerbe Hamburg: Dieter Rams! http://www.mkg-hamburg.de/de/kalender/termine-finden/sammlung-design-und-spiegel-kantine.html 	de	3	0	5	mprove	2012-10-20T21:24:58.000Z	774	1,730				
255647248199864321	136	meikel	When is the new iTunes coming? #unpatient 	en	0	0	0		2012-10-09T12:33:48.000Z	774	1,730				
254522052395008000	136	meikel	If we reach our target within the next 5 days, then Google will donate an extra 10,000 euros to our campaign. http://www.indiegogo.com/terms-of-service-didnt-read 	en	1	0	7	ToSDR	2012-10-06T10:02:40.000Z	774	1,730				
253156429928734720	136	meikel	Wow. This is more than inspiring. German Teachers (I know you are not only but if you were...) CHECK IT OUT! https://diy.org/ 	en	2	0	4	robertstulle	2012-10-02T15:36:10.000Z	774	1,730				
246627802265305090	136	meikel	Rahmen sind der dunkle Lipliner Instagrams. 	de	11	1	3	bangpowwww	2012-09-14T15:13:44.000Z	774	1,730				
1139776328247308288	614	dcharrison			16	1	1		2019-06-15T06:07:07.000Z	2,590	1,796				https://pbs.twimg.com/media/D9FMhz7UYAQu0e1?format=jpg&amp;name=360x360
1293136953819504640	614	dcharrison	On top of revolting dehumanization of refugees as breakfast TV entertainment, the BBC and Sky have also taken the bait from bigots like Farage that this is actually a big story. Meanwhile, COVID19 and Brexit look to severely damage the UK. But, look at the boats with foreigners! 	en	85	4	41	ChrChristensen	2020-08-11T10:47:29.000Z	2,590	1,796				
1292980389766557696	614	dcharrison	This is why people march. #BLM 	en	7	0	1		2020-08-11T00:25:21.000Z	2,590	1,796				
1292648842781835264	614	dcharrison	What’s your favorite color? Where were you born? Sound familiar? They’re the questions banks ask to verify that you are you… And they’re ALSO showing up as “lifestyle quizzes” like this, online. Don’t participate in these quizzes. They aren’t harmless fun—they’re bait. 	en	0	0	0		2020-08-10T02:27:55.000Z	2,590	1,796				
1292553635927216128	614	dcharrison	I have heard the cries of Black students and been humbled...by the power of their truth. I have literally heard their cries. They have shed tears in my office, in class... I will never know the depth of their pain, but I will never stop fighting for them. 	en	430	8	94	JakeRugh	2020-08-09T20:09:35.000Z	2,590	1,796				
1292569337602011136	614	dcharrison	The City Planners’ Case to Defund the Police. 	en	1	0	2		2020-08-09T21:11:59.000Z	2,590	1,796				
1292316818753781764	614	dcharrison	Quit defacing gov't property! 	en	1	0	0		2020-08-09T04:28:34.000Z	2,590	1,796				
1292162805836050433	614	dcharrison	Check out this easy-to-understand primer—perfect for the farmers market aficianado—from @UCSDHealth ​: http://ucsdcommunityhealth.org/wp-content/uploads/2017/09/ethylene.pdf /end 	en	0	0	0		2020-08-08T18:16:34.000Z	2,590	1,796				
1292162805206941696	614	dcharrison	There's a good chance that naturally-occurring ethylene gas is a culprit. Ethylene gas speeds ripening—and some produce CREATES it and some produce is SENSITIVE to it. Knowing who is which is one of the secrets to longer-lasting fresh produce… /2 	en	0	1	0		2020-08-08T18:16:34.000Z	2,590	1,796				
1292162802551906305	614	dcharrison	I live across the street from one of the biggest farmers markets in the country— @SLCFarmersMrkt —which means fresh produce every weekend. But have you noticed that some fruits and veggies seem to speed through the ripening process when you bring them home? /1 	en	0	1	0		2020-08-08T18:16:34.000Z	2,590	1,796				https://pbs.twimg.com/media/Ee6ufArU0AEt2Qm?format=jpg&amp;name=360x360
1291472832950497282	614	dcharrison	Twitter will label govt-run media outlets. The new policy applies to “outlets where the state exercises control over editorial content thru financial resources, direct or indirect political pressures, and/or control over production and distribution.” ((👉🏻)) https://www.politico.com/news/2020/08/06/twitter-labeling-state-affiliated-media-outlets-392264 	en	82	18	43	FrankLuntz	2020-08-06T20:34:52.000Z	2,590	1,796				
1291711270903844867	614	dcharrison	Meanwhile two lawyers face a 45 years to life in prison in New York for damaging a police vehicle with no one inside of it. 	en	12604	61	4599	ScottHech	2020-08-07T12:22:20.000Z	2,590	1,796				
1166817555257942016	614	dcharrison	I just had such an affirming experience. On my 8hr intl flight back from a conference, I sat next to a father/son. In broken English, the father began to apologize/warn me that his ~10 yr-old son had severe nonverbal autism, and that this would like be a difficult journey. 1/ 	en	386856	5704	99147	RachelRRomeo	2019-08-28T20:59:18.000Z	2,590	1,796				
1291734442353008641	614	dcharrison	Raging pandemic, 160K dead, mass unemployment and we're taking the day off for a little golf 	en	130	8	48	BFriedmanDC	2020-08-07T13:54:24.000Z	2,590	1,796				
1291478132894117895	614	dcharrison	I was today years old when I found out another commonly used term for Hazelnuts are “Filberts”. Here I am thinking "legume" was awkward. #TheMoreYouKnow 	en	5570	204	380	MrPeanut	2020-08-06T20:55:56.000Z	2,590	1,796				
1291733739144458241	614	dcharrison	I go to church. I occasionally post my religious thoughts on my personal Twitter account. But it is wildly inappropriate for @USAttyGarrison , who must uphold the First Amendment and defend the religious rights of ALL Americans, to give his official account a religious theme. 	en	2446	121	663	waltshaub	2020-08-07T13:51:37.000Z	2,590	1,796				https://pbs.twimg.com/media/Ee0oZFhXsAUouvV?format=png&amp;name=360x360
1291549832507797504	614	dcharrison	Vice President Biden just released a remarkable statement about his faith and values, in the face of Trump’s attacks today. Worth reading in full. This is how a leader faces a bully. 	en	59200	1235	20812	joshuadubois	2020-08-07T01:40:50.000Z	2,590	1,796				https://pbs.twimg.com/media/EeyBuYVXsAEOojX?format=jpg&amp;name=240x240 https://pbs.twimg.com/media/EeyBueNWkAEIspH?format=jpg&amp;name=240x240 https://pbs.twimg.com/media/EeyBuYRX0AAJPq5?format=jpg&amp;name=240x240 https://pbs.twimg.com/media/EeyBuePWkAAONMC?format=jpg&amp;name=240x240
1291579750788395009	614	dcharrison	So you mighta seen the news yesterday that the @sltrib editor, @jnpearce had resigned. It came as a real shock. And I wanted to take a little time to process it before I posted. So I did that and then I had a few drinks, so here goes …. 	en	336	6	52	RobertGehrke	2020-08-07T03:39:43.000Z	2,590	1,796				
1287919038870573061	614	dcharrison	This is the centuries-long dynamic of race in America. 	en	12198	15	1319	BreeNewsome	2020-07-28T01:13:21.000Z	2,590	1,796				
1287918809907699712	614	dcharrison	“I must witness you patiently endure my violence against you in order for me to possibly feel sympathy toward you. It’s your responsibility to move my heart &amp; mind by allowing me to do that.” 	en	15748	19	3109	BreeNewsome	2020-07-28T01:12:27.000Z	2,590	1,796				
1287916032393445376	614	dcharrison	“I’m not racist, I just find it difficult to distinguish the murdering of a Black person from the breaking of a window. It’s equally violent, right?” 	en	24291	48	5278	BreeNewsome	2020-07-28T01:01:25.000Z	2,590	1,796				
1287915342896009216	614	dcharrison	“I was prepared to support the humanity of Black people until I saw someone set a car on fire.” 	en	122512	445	29757	BreeNewsome	2020-07-28T00:58:40.000Z	2,590	1,796				
1288463033115656195	614	dcharrison	Why is it necessary to kidnap people into unmarked vans under suspicion of property damage if it’s not necessary to arrest cops who’ve committed murder? This is pure political repression by the state; police have license both to murder us &amp; use force against us when we protest. 	en	31502	128	11248	BreeNewsome	2020-07-29T13:15:00.000Z	2,590	1,796				
1290242031978024965	614	dcharrison	I don’t mind folks screen grabbing my tweets or quoting me but lifting my words without citation is problematic for me as a writer, especially as many people continue to pretend my work hasn’t been influential ((🤷🏾‍♀️)) Be well &amp; cite Black women. Thanks ((🌺)) 	en	8663	38	2166	BreeNewsome	2020-08-03T11:04:06.000Z	2,590	1,796				https://pbs.twimg.com/media/EefcERMWkAExCmL?format=jpg&amp;name=240x240 https://pbs.twimg.com/media/EefcEPvXYAAZIU6?format=jpg&amp;name=240x240
1291449723098996738	614	dcharrison	Among single-family dwellings, large houses with rooms for rent, mid- and high-rise apartments, and commercial venues, no property looks out of place in this Midwestern city — and because of this, more people can find a place to fit in. https://bit.ly/3kir1wR 	en	31	1	12	StrongTowns	2020-08-06T19:03:02.000Z	2,590	1,796				https://pbs.twimg.com/media/EewmrdgWkAIi5CZ?format=jpg&amp;name=360x360
1291450100766486533	614	dcharrison	No IF… WHEN. 	en	0	0	0		2020-08-06T19:04:32.000Z	2,590	1,796				
1291443858203705345	614	dcharrison	Surviving Covid and suddenly being nearly two million dollars in debt is actually what scares me the most about the virus. 	en	260	5	100	lepas	2020-08-06T18:39:44.000Z	2,590	1,796				
1291395772617957376	614	dcharrison	Shame on @UtahCoronavirus . #utpol 	en	3	1	1		2020-08-06T15:28:39.000Z	2,590	1,796				
1291228084499144704	614	dcharrison	The mural may be complete… but the work it symbolizes is just beginning. All eyes are on @SLCMayor Erin Mendenhall and her administration, as they attempt to live up to the promise they laid at their own feet. I'm hopeful. And vigilant. #utpol 	en	10	1	2		2020-08-06T04:22:19.000Z	2,590	1,796				
1290808028954939392	614	dcharrison	Village Inn = Applebee’s Applebee’s. 	en	4	0	1		2020-08-05T00:33:10.000Z	2,590	1,796				
1290675460993622016	614	dcharrison	10/10 And if they do exist… well. Wouldn't that be something? Our Universe is a tremendously strange and surprising place. In fact the only surprising thing is when it *isn't* surprising. So I certainly wouldn't be surprised to be surprised by this. 	en	60	6	9	BadAstronomer	2020-08-04T15:46:24.000Z	2,590	1,796				
1290054334592331777	614	dcharrison	And...here we are. A Federal Reserve official is calling for the US economy to fully shut down for 4 to 6 weeks. 	en	3203	130	1773	byHeatherLong	2020-08-02T22:38:16.000Z	2,590	1,796				
1289978504969322499	614	dcharrison	If you live in Georgia, Wisconsin, Texas, Pennsylvania, North Carolina or Florida or anywhere. Anywhere at all. Check to see if you’re registered to vote. You might have been purged. Check it now. 	en	34387	534	20795	keithellison	2020-08-02T17:36:56.000Z	2,590	1,796				
1290161750583545857	614	dcharrison	If Jesus showed up in most Mormon neighborhoods they'd call the cops on him. 	en	1688	9	162	BrontMacklin	2020-08-03T05:45:06.000Z	2,590	1,796				
1290158539583807488	614	dcharrison	Remember in 2015 when Cottonwood Heights police cuffed &amp; arrested a 68 year old retired dude who liked to walk, dance, and waive at cars? Such tough guys. #UTPol 	en	11	2	3	MenaceSocietyUT	2020-08-03T05:32:20.000Z	2,590	1,796				
1290165187199111168	614	dcharrison	Kudos to @DeseretNews ' Scott G. Winterton for capturing these photos during today's Cottonwood Heights protest #utpol #slcprotests 	en	25	1	10	EnriqueLimon	2020-08-03T05:58:45.000Z	2,590	1,796				
1290157409290223621	614	dcharrison	This came together faster than I expected—a response to the naked brutality of #CottonwoodHeights police! #utpol http://facebook.com/events/317504832946942 	en	4	0	2		2020-08-03T05:27:50.000Z	2,590	1,796				
1290156991277445120	614	dcharrison	Came together faster than I expected! But here's the follow-up protest to the naked brutality of #CottonwoodHeights police: http://facebook.com/events/317504832946942 	en	5	0	1		2020-08-03T05:26:11.000Z	2,590	1,796				
1290155336918110211	614	dcharrison	Here’s the protest: https://www.facebook.com/events/317504832946942 	en	2	0	1		2020-08-03T05:19:36.000Z	2,590	1,796				
1290145221607473153	614	dcharrison	For some more context. This protest was held for Zane James, and that is his brother, Gabe, being beaten. 	en	720	3	312	_J01N_	2020-08-03T04:39:25.000Z	2,590	1,796				
1290142407715991554	614	dcharrison	Police in #CottonwoodHeights , #Utah just beat the hell out of #BLM protestors for dancing in largely empty streets. I’m thinking Cottonwood Heights should become the epicenter of Utah #BLM protests until whomever made that call resigns. #utpol 	en	250	7	92		2020-08-03T04:28:14.000Z	2,590	1,796				https://pbs.twimg.com/media/EeeBgYNVAAAchBF?format=jpg&amp;name=360x360
1290137031998349312	614	dcharrison	#TrumpHasNoPlan 	und	108	4	63	LannyDavis	2020-08-03T04:06:52.000Z	2,590	1,796				
1290138394111037442	614	dcharrison	One thing you said once was "there's two people I think Putin pays: Rohrabacher and Trump. Swear to God." 	en	903	5	187	brianbeutler	2020-08-03T04:12:17.000Z	2,590	1,796				
1290093098857447425	614	dcharrison	Heavy police presence is WHY tensions are rising. We all know the proclivity of police to riot. 	en	6	0	0		2020-08-03T01:12:18.000Z	2,590	1,796				
1290013168207409152	614	dcharrison	It’s clear from her tweet that @VoteSuz is speaking to a failure of leadership from the Executive. So are you struggling with basic reading comprehension or are you just an arse… 	en	4	0	0		2020-08-02T19:54:41.000Z	2,590	1,796				
1290012695043829760	614	dcharrison	She’s doing just fine, you’re the one who seems to be struggling with basic human decency. 	en	7	0	0		2020-08-02T19:52:48.000Z	2,590	1,796				
1286886938633334785	614	dcharrison	Sorry but if the spectacle of a ragtag band of savvy Home Depot shoppers armed with $50 leaf blowers choking out federal stormtroopers with their own tear gas doesn’t fill you with joy, you’re a bad patriot who hates America, sorry I don’t make the rules 	en	101351	651	22055	jaywillis	2020-07-25T04:52:10.000Z	2,590	1,796				
1290007762135523328	614	dcharrison	A rule of thumb for measuring whether a testing regime is effective is rate of positivity—if testing is at or above 10% positive, it's a sign testing needs to expand. For weeks, Utah's positivity rate was well below 10%. This new trend is really concerning. /utpol 	en	6	0	3		2020-08-02T19:33:12.000Z	2,590	1,796				
1290003677772570625	614	dcharrison	Quotes: Young children have higher amounts of SARS-CoV-2 viral RNA in their nasopharynx than older children &amp; adults. Young children can be important drivers of SARS-CoV-2 spread. Behavioral habits of young children in school &amp; day care raise concern. 	en	14	1	10	John_Pijanowski	2020-08-02T19:16:58.000Z	2,590	1,796				
1289929685292314624	614	dcharrison	He has people inside his own campaign that want him defeated. 	en	70399	2488	9594	Scaramucci	2020-08-02T14:22:57.000Z	2,590	1,796				
1289898326268112896	614	dcharrison	Need an example of how race and class have shaped the planning and design of our cities? Robert Moses designed dozens of parkway overpasses unusually low. 9 feet at the curb. Why? So private vehicles could get to his famous Long Island beaches and parks, but buses couldn’t. 	en	17464	137	6664	JasonThorne_RPP	2020-08-02T12:18:20.000Z	2,590	1,796				https://pbs.twimg.com/media/EeajsPIWoAErSER?format=jpg&amp;name=360x360
1289754829523320832	614	dcharrison	November is coming. 	en	62627	1601	7607	ProjectLincoln	2020-08-02T02:48:08.000Z	2,590	1,796				
1289641063561535491	614	dcharrison	Functionally illiterate. 	en	4	0	2		2020-08-01T19:16:04.000Z	2,590	1,796				
1289440727257292800	614	dcharrison	Forty-three New York billionaires have donated to Governor Andrew Cuomo’s political machine. Now he’s blocking attempts to tax his ultrarich friends. https://jacobinmag.com/2020/07/andrew-cuomo-billionaires-tax-hikes-nyc @WalkerBragman @davidsirota 	en	298	4	155	jacobinmag	2020-08-01T06:00:00.000Z	2,590	1,796				
1288935215235321856	614	dcharrison	Hey! Did everyone see what tenant warriors in Kansas City pulled off today?? Take notes. We need several tactics on the table to gum up the eviction gears. 	en	1367	14	541	KeeangaYamahtta	2020-07-30T20:31:17.000Z	2,590	1,796				
1288924022797991936	614	dcharrison	Today our leaders shut down all four Jackson County, Missouri eviction dockets, in person AND on the phone. On an average week, anywhere between 150-200 cases are heard or tried on these dockets. Since June 1, the courts have heard/tried approx 1600+ eviction cases. 	en	1335	15	523	KCTenants	2020-07-30T19:46:48.000Z	2,590	1,796				
1289412333559676928	614	dcharrison	COVID underscores how segregated the elderly are from the rest of the population. One of the weirdest things about our society relative to other parts of the world and previous 12k years of civilization. 	en	10190	63	1056	Liamjsm	2020-08-01T04:07:11.000Z	2,590	1,796				
108193680669675521	648	heif	“Collectively, connected humans will be capable of things we cannot imagine right now.” @Kevin2Kelly http://www.kk.org/thetechnium/archives/2011/08/why_the_impossi.php 	en	162	32	61		2011-08-29T15:05:58.000Z	826	23,074				
1293156809696595968	648	heif			0	0	1		2020-08-11T12:06:23.000Z	826	23,074				
1292426983167668226	648	heif	Yes, thank you 	en	6	0	0		2020-08-09T11:46:19.000Z	826	23,074				
1292425974672510977	648	heif	Love this, miss this, hoping we’ll have more of this than ever before too long. ⁦ @ivan___cash ⁩ 	en	8	2	2		2020-08-09T11:42:19.000Z	826	23,074				
1292304596086513664	648	heif	??!! 	und	2	1	0		2020-08-09T03:40:00.000Z	826	23,074				
1291374196837306368	648	heif	Veterans of the Warsaw Uprising 76 years later. #WarsawUprising #Poland 	en	23754	193	5989	rezahakbari	2020-08-06T14:02:55.000Z	826	23,074				
1291504427795447809	648	heif	donate https://banktoschool.weebly.com/ 	en	3	0	2		2020-08-06T22:40:25.000Z	826	23,074				
1291504113881100289	648	heif	lebanon was struggling before tuesday - this from monday 	en	3	0	2		2020-08-06T22:39:10.000Z	826	23,074				
1290793574536118273	648	heif	This is @juanpenalosa , the director of the Florida Democratic Party. “Icebreaker allows us to use technology to build relationships to better understand ourselves, our colleagues and the everyday people that rely on us and the policies we believe in.” Mic drop ((🎤)) #peoplewhogather 	en	11	0	6	IcebreakerVideo	2020-08-04T23:35:44.000Z	826	23,074				
1287969034210697217	648	heif	Two weeks before the 2016 presidential election. 	en	5698	291	2061	alexnazaryan	2020-07-28T04:32:01.000Z	826	23,074				
1288094383338815488	648	heif	Imagine more great talent rebuilding &amp; modernizing government &amp; gov-funded schools/health/services (getting paid well because taxes) while entrepreneurs/industry proud of doing critical things (with hope of being comfortable millionaires not B’s - because taxes). 	en	6	0	1		2020-07-28T12:50:07.000Z	826	23,074				
1288092865843863552	648	heif	And we need very well-funded government for public services that’s modern &amp; rebuilt for next generations. Can’t afford that while also having a billionaire hoarding class. 	en	5	1	0		2020-07-28T12:44:05.000Z	826	23,074				
1288090865274163200	648	heif	This isn’t a cop out like “do well, do good” or part of “elite charade to change the world”, it’s just facing reality/complexity that critical breakthroughs and change often come via entrepreneurs/markets — and these breakthroughs will still happen without out-of-whack incentive 	en	2	1	0		2020-07-28T12:36:08.000Z	826	23,074				
1288088804067282945	648	heif	“Dept of Energy forecast almost no fully elec cars by 2035, based on consult w auto experts” I believe in entrepreneurs+markts AND ban billionaires for great public schools/health/etc Yes @aoc ⁦ @AnandWrites ⁩ AND ⁦ @vkhosla ⁩ ⁦ @fredwilson ⁩ 	en	10	1	1		2020-07-28T12:27:57.000Z	826	23,074				
1287573781591076867	648	heif	Stopped multiple times in NYC today by people asking if I’d sign their petition to support “criminal justice reform”. When pressed, they say it’s a petition to get Kanye on the ballot. The petitioners said they weren’t really supporting Kanye, it’s just a job. Lots of signatures 	en	10	3	1		2020-07-27T02:21:26.000Z	826	23,074				
1286472174950395904	648	heif	“give permission to other men to do that to his daughters” @aoc 	en	4	0	0		2020-07-24T01:24:02.000Z	826	23,074				
1285789687710441475	648	heif	Pizza, skunk, gasoline 	sv	8	2	0		2020-07-22T04:12:05.000Z	826	23,074				
1285707355771088899	648	heif	“CHAOS in our cities. bring in the feds!” @davidfg 	en	8	0	1		2020-07-21T22:44:55.000Z	826	23,074				
1285344136267288577	648	heif	Join me, i signed up 	en	5	0	1		2020-07-20T22:41:37.000Z	826	23,074				
1284628473957539843	648	heif	Fishing with my dad on Lake Murray while a Trump Boat Parade is occurring &amp; multiple instances they called us the “n word” &amp; taunted us in (what they think) Africans sound like, all in front of their children. This is the ignorance we’re up against in 2020. Hurry up, November! 	en	1660	212	490	deerretlaw	2020-07-18T23:17:50.000Z	826	23,074				
1284436798479970304	648	heif	“What gives each new generation purpose is to take up the unfinished work of the last and carry it further — to speak out for what’s right, to challenge an unjust status quo, and to imagine a better world.” IMAGINE A BETTER WORLD I commit to do that 	en	18	0	5		2020-07-18T10:36:11.000Z	826	23,074				
1283237503781175297	648	heif	Founders for Life unite 	en	10	1	0		2020-07-15T03:10:36.000Z	826	23,074				
1282802989833629696	648	heif	Good morning 	en	23	0	2		2020-07-13T22:24:00.000Z	826	23,074				
1282802745418887169	648	heif	Experiment 	ca	4	1	0		2020-07-13T22:23:02.000Z	826	23,074				
1279288292781875205	648	heif	The Kyoto Aquarium has a flowchart illustrating the complicated romantic relationships and breakups between their penguins. 	en	43731	368	19534	OliverJia1014	2020-07-04T05:37:51.000Z	826	23,074				https://pbs.twimg.com/media/EcDx62cUEAAe6hN?format=jpg&amp;name=360x360
1281219671015010306	648	heif	It’s fun &amp; cute &amp; clever language - “Together mode” - meant to be kinda funny. Watch what happens: The alternate reality becomes the norm. 	en	2	0	0		2020-07-09T13:32:28.000Z	826	23,074				
1281219051105157121	648	heif	What if people really start to believe that “Together mode” is Iike being together? 	en	4	2	0		2020-07-09T13:30:00.000Z	826	23,074				
1281218106241748992	648	heif	If all our words that mean togetherness are corporate-co-opted (by good people with good intentions!) and twisted into corporate virtual versions of togetherness, then what happens? 	en	12	5	2		2020-07-09T13:26:15.000Z	826	23,074				
1281208776918478848	648	heif	When technology makes us feel like we’re together, we may be less likely to go out of our way to actually be together.(And actually being together forms the strongest bonds that keep us &amp; society healthy.) Some connective tech is great, too much is not. 	en	8	4	4		2020-07-09T12:49:10.000Z	826	23,074				
1281206336202702849	648	heif	How quickly normal can change. People weren’t dangerous https://graphics.reuters.com/HEALTH-CORONAVIRUS/SOCIALDISTANCING/qzjvqenmyvx/ 	en	3	0	0		2020-07-09T12:39:28.000Z	826	23,074				https://pbs.twimg.com/media/EcfCXxZWkAArtqX?format=jpg&amp;name=360x360
1281205622290165760	648	heif	2020-2021 https://www.etsy.com/shop/gizda?ref=simple-shop-header-name&amp;listing_id=801205952&amp;page=2#items 	und	3	2	4		2020-07-09T12:36:38.000Z	826	23,074				https://pbs.twimg.com/media/EcfBuKqXYAAF0go?format=jpg&amp;name=360x360
1277946321010294784	648	heif	Is @KabbageInc a scam or just overwhelmed? My sister is a dentist in Illinois, she got approved for PPP — critical for her practice and care — but now she can’t get through, it’s expiring and no options....? 	en	2	2	1		2020-06-30T12:45:20.000Z	826	23,074				https://pbs.twimg.com/media/EbwtZzeX0AYJZPd?format=jpg&amp;name=360x360
1277243024096088066	648	heif	via @elipariser 	und	14	1	3		2020-06-28T14:10:41.000Z	826	23,074				https://pbs.twimg.com/media/EbmtwnNXsAE6goL?format=jpg&amp;name=360x360
1277164838507220995	648	heif	▓▓▓▓▓▓▓░░░░░░░░ 49% 	und	15008	118	3496	year_progress	2020-06-28T09:00:00.000Z	826	23,074				
1276641169062182915	648	heif	May 30, June 26 2020 NYC 	en	22	3	5		2020-06-26T22:19:08.000Z	826	23,074				https://pbs.twimg.com/media/EbeKYBTWoAEoP8b?format=jpg&amp;name=240x240 https://pbs.twimg.com/media/EbeKYBTWkAwhVUp?format=jpg&amp;name=240x240
1276138285765705728	648	heif	meanwhile, in a Pennsylvanian ice cream store... none of the employees were wearing masks, either. the sign was placed conviently behind the tip jar. 	en	2	0	5	elspethjane	2020-06-25T13:00:51.000Z	826	23,074				https://pbs.twimg.com/media/EbXBAQGXsAMNjEp?format=jpg&amp;name=360x360
1276116633958973445	648	heif	This is 2-15% of the future. The reaction to overwhelming societal stress, trauma, uncertainty will be significant mental &amp; emotional breakdown - for some, a need for belonging or answers resulting in paranoia &amp; convincing declarations of “Are you insane?” 	en	16	3	2		2020-06-25T11:34:49.000Z	826	23,074		blob:https://twitter.com/d9808f5d-b454-4e47-b753-5faa217a6a6a	https://pbs.twimg.com/ext_tw_video_thumb/1275905092001169408/pu/img/OwdJPUl9uHjOWYIo.jpg	
1275533449634422785	648	heif	I loved this book! Highly recommend 	en	13	2	3		2020-06-23T20:57:27.000Z	826	23,074				
1275499260482641920	648	heif	In NYC? Vote today! 	en	2	0	0		2020-06-23T18:41:35.000Z	826	23,074				
1275154993121759236	648	heif	Hey, we flattened the curve! 	en	7	1	1		2020-06-22T19:53:36.000Z	826	23,074				
1274361034065809408	648	heif	We’ve built a site that recommends progressive candidates on your ballot, powered by endorsements from @ZephyrTeachout @AOC and others! 	en	3	0	3	JimEngland	2020-06-20T15:18:41.000Z	826	23,074				
1274168722844979200	648	heif	Juneteenth for kids, conversation starter 	en	2	0	0		2020-06-20T02:34:31.000Z	826	23,074				
1272659517025562624	648	heif	a reminder that a good question is important 	en	97	1	3	FuturamaKing	2020-06-15T22:37:28.000Z	826	23,074				
1271186745296551938	648	heif	amen 	en	9	0	0		2020-06-11T21:05:12.000Z	826	23,074				
1271154801754230784	648	heif	??!!? 	und	2	0	0		2020-06-11T18:58:16.000Z	826	23,074				
1271151714075398157	648	heif	9:40 	und	0	0	0		2020-06-11T18:46:00.000Z	826	23,074				
1271149854878838785	648	heif	Respectable 	es	0	1	0		2020-06-11T18:38:36.000Z	826	23,074				
1270937398373781507	648	heif	“Yeah it does suck, Pamela.” 	en	207	2	37	zachklein	2020-06-11T04:34:23.000Z	826	23,074				https://pbs.twimg.com/media/EaNG07lUYAYUXmZ?format=jpg&amp;name=small
1268164036790759424	648	heif	How to bible 	en	464646	10179	134020	sarahcpr	2020-06-03T12:54:02.000Z	826	23,074		blob:https://twitter.com/e291f5b8-0a4d-40e4-b483-38e419a20aa3	https://pbs.twimg.com/ext_tw_video_thumb/1268163947716362249/pu/img/3z_EUecNDdSsocNJ.jpg	
1268384452599844865	648	heif	My kids need to hear me say we’ll be “back to normal” — but my great fear is that we’ll be back to normal (unchanged power structures and systemic issues) 	en	19	2	0		2020-06-04T03:29:53.000Z	826	23,074				
1268368791936864256	648	heif	Hope (for massive generational shift) 	en	2	0	0		2020-06-04T02:27:39.000Z	826	23,074				
1268191651182370816	648	heif	Adaam’s thread. Reminder that you can know someone for a big chunk of your life and not really know what they go through 	en	4	0	0		2020-06-03T14:43:46.000Z	826	23,074				
1268179127074467840	648	heif	And the protestors were gassed out of the park because they needed to cut the grass. 	en	709	10	40	john__rosevear	2020-06-03T13:54:00.000Z	826	23,074				
1267878266691600384	648	heif			6	1	1		2020-06-02T17:58:29.000Z	826	23,074		blob:https://twitter.com/c539501a-8e34-4c50-84f4-a133f27bc275	https://pbs.twimg.com/ext_tw_video_thumb/1267598459965788161/pu/img/f12oiQ5e1N3i_8FT.jpg	
1267652314728402948	648	heif	This is NYPD Chief 	en	1	0	0		2020-06-02T03:00:38.000Z	826	23,074				
1267650425806864385	648	heif	Hope 	en	13	2	1		2020-06-02T02:53:07.000Z	826	23,074		blob:https://twitter.com/08cf3990-b706-4137-b0ac-9f1c362075d8	https://pbs.twimg.com/amplify_video_thumb/1267596592963620867/img/ivEgHE2jQ8Vj8jko.jpg	
1267639412134948864	648	heif	“the more specific we can make demands for criminal justice and police reform, the harder it will be for elected officials to just offer lip service to the cause and then fall back into business as usual once protests have gone away” ⁦ @BarackObama ⁩ 	en	5	0	0		2020-06-02T02:09:22.000Z	826	23,074				
1267432842679721985	648	heif	Hope 	en	0	0	0		2020-06-01T12:28:32.000Z	826	23,074				
1267432678292361218	648	heif	Hope 	en	9	0	1		2020-06-01T12:27:52.000Z	826	23,074				
1265335550246092800	648	heif	Facebook's own researchers found that “64% of all extremist group joins are due to our recommendation tools" and that “our recommendation systems grow the problem.” Facebook VP for policy Joel Kaplan (known for throwing a party for Kavanaugh after confirmation) nixed any action. 	en	8898	122	6436	zeynep	2020-05-26T17:34:38.000Z	826	23,074				
1267230766196355073	648	heif	((Television)) NEW VIDEO The White House is the Hate House. #VoteOutHate 	en	22791	792	19334	MeidasTouch	2020-05-31T23:05:33.000Z	826	23,074		blob:https://twitter.com/73cfa032-3189-4ed2-b9ea-9df19267ebc1	https://pbs.twimg.com/media/EZYaRW2VAAA7jSB.jpg	
1267185971323437056	648	heif	“If we wait for governments, it will be too late. If we act as individuals, it will be too little. But if we act as communities, it might just be enough, and it might just be in time.” - @robintransition , From What Is to What If (thanks for the book Rob!) 	en	58	3	23	xdamman	2020-05-31T20:07:33.000Z	826	23,074				https://pbs.twimg.com/media/EZXy7AqXkAAWREF?format=jpg&amp;name=360x360
1267161250821279746	648	heif	Black lives matter 	en	29	0	1		2020-05-31T18:29:19.000Z	826	23,074				
1266831375648190464	648	heif	i was just at a local home goods store w/ my cousin getting furniture for my place when an elderly white woman approached me at the check out counter. she looked at me w/ tears in her eyes... &amp; then said “i’m from Minneapolis &amp; I just want you to know “you matter to me.” 	en	818762	2654	93738	zayjones11	2020-05-30T20:38:31.000Z	826	23,074				
1266390510278569984	648	heif	Agree this should be open source and thus verifiable by everyone 	en	15003	1573	2482	jack	2020-05-29T15:26:40.000Z	826	23,074				
1266363164406493184	648	heif	Anybody who gives a darn about the First Amendment or civil liberties should watch this video. Having covered wars, riots &amp; tense stand-offs myself, I can say I have never, anywhere, seen a calm, polite, legal reporting team arrested like this, while obviously breaking no laws. 	en	3369	120	1289	Laurie_Garrett	2020-05-29T13:38:00.000Z	826	23,074				
1266156390361505792	648	heif	#GeorgeFloydWasMurdered 	und	2	0	1		2020-05-28T23:56:22.000Z	826	23,074				
1266122576549593089	648	heif			3	0	0		2020-05-28T21:42:00.000Z	826	23,074		blob:https://twitter.com/db88b4fd-c329-4c28-bebc-47af72b9de5e	https://pbs.twimg.com/ext_tw_video_thumb/1266122539589402624/pu/img/nXW9IlJsC-fljp4P.jpg	
1265869466610610176	648	heif	Zoom-free summer Who’s with me? 	en	29	5	0		2020-05-28T04:56:14.000Z	826	23,074				
1265829078613065733	648	heif	meetup organizers are the best (and this one is beyond) 	en	11	2	1		2020-05-28T02:15:44.000Z	826	23,074				
1265529026686472193	648	heif	Yeah but the texts are green. 	en	123	8	2	thecaptable	2020-05-27T06:23:27.000Z	826	23,074				
1265499398865326081	648	heif	Proud. Watch this space 	en	39	2	2		2020-05-27T04:25:43.000Z	826	23,074				
1262504263588220930	648	heif	True 	en	11	0	0		2020-05-18T22:04:07.000Z	826	23,074				
1262342842489454598	648	heif	And @BenSasse even wrote the book on blaming Them, the hypocrite 	en	1	1	0		2020-05-18T11:22:41.000Z	826	23,074				https://pbs.twimg.com/media/EYS-H5YXQAEeLdK?format=jpg&amp;name=small
1262341256342130688	648	heif	National embarassment: @BenSasse “Thanks a lot, China” Deflecting responsibility during election year. Normalizing racism. Imagine being Chinese-American. This is Republican Strategy: Casual racism. Casual turns violent. Disgusting, anti-American 	en	6	1	0		2020-05-18T11:16:23.000Z	826	23,074				
1277082592110538753	649	MaryHodder	UCSF on the science of mask wearing: 	en	0	0	0		2020-06-28T03:33:11.000Z	874	10,648				
1248726696989093888	649	MaryHodder	Thank them for adding to your breadth and then examine why you don't like that answer and what it means for you. (I know that's not what you want to hear.. but I'm sick of hearing what I want to hear.) 	en	3	1	0		2020-04-10T21:36:59.000Z	874	10,648				
1248725576585588738	649	MaryHodder	Congrats Eve! Super cool!! 	en	1	0	0		2020-04-10T21:32:32.000Z	874	10,648				
1237925646371717120	649	MaryHodder	Just in case you were thinking ("i'm young.. i'll just get a plane ticket &amp; take advantage of the cheap fares") it doesn't affect you.. read this. Don't be #selfish take care of those around you. https://www.newsweek.com/young-unafraid-coronavirus-pandemic-good-you-now-stop-killing-people-opinion-1491797 ? 	en	1	0	0		2020-03-12T02:17:28.000Z	874	10,648				
1223388714602098688	649	MaryHodder	#WeWantWitnessesAndDocuments 	und	0	0	0		2020-01-31T23:32:53.000Z	874	10,648				
1223369590064865281	649	MaryHodder	2/2 Basically the White House doesn't want to allow for this to go beyond Monday and McConnell is trying to negotiate with them to get it until Monday -- WH wants it done by tonight. They're the fucking defendants and they're dictating the trial. Vote is Monday. 	en	0	0	0		2020-01-31T22:16:54.000Z	874	10,648				
1223369561262608384	649	MaryHodder	Wow Claire McCaskill is the coup of the god damned century for @MSNBC .. She's reading texts from senators on the floor as they deliberate how to vote on witnesses etc.. 1/2 	en	0	0	0		2020-01-31T22:16:47.000Z	874	10,648				
1201185174479785984	649	MaryHodder	Done...please donate! 	en	1	0	0		2019-12-01T17:03:57.000Z	874	10,648				
1199244557403086849	649	MaryHodder	Free Font Bundle | http://TheHungryJPEG.com https://thehungryjpeg.com/free-font-bundle via @TheHungryJPEG 	en	0	0	0		2019-11-26T08:32:38.000Z	874	10,648				
1195036471150837760	649	MaryHodder	I'm totally going to tell the people I know who are trump-heads that it is a strain of cannabis just to mess with them. 	en	2	0	0		2019-11-14T17:51:12.000Z	874	10,648				
1166839650306052096	649	MaryHodder	As the Arctic melts, 1.8 trillion tons of carbons will be released. 2x what's up in the atmosphere now. 	en	1	0	1		2019-08-28T22:27:06.000Z	874	10,648				
1157405716950347776	649	MaryHodder	Except the website (at links) are down for maintenance. Do you know when the deadline is.. tweet it? 	en	1	2	0		2019-08-02T21:40:01.000Z	874	10,648				
1154408296524046336	649	MaryHodder	Chalk one up for #HistoricPreservation ! @LivableMV today announced a major win in its campaign to preserve the Weilheimer House and former Air Base Laundry building in @MtnViewCA ’s historic downtown: they're now listed on Calif.'s state historic registry. http://bit.ly/LivMVPR1 	en	2	0	2	LivableMV	2019-07-25T15:09:20.000Z	874	10,648				
1152061318376988672	649	MaryHodder	Can't wait for that @RonanFarrow story in the @newyorker that @AlanDersh just promoted. Thanks Alan! Your crazy just Streisanded the whole thing. 	en	1	0	0		2019-07-19T03:43:17.000Z	874	10,648				
1103203109902344192	649	MaryHodder	+++ to @margaretabekoga on Cannabis in #MountainView City Council being an issue going one way or another based upon race etc. THANK YOU! It's not &amp; it's been horrible hearing the race implications. And Thanks to @ellenkamei @Alison4Council and @lmatichak for the positive words. 	en	1	0	1		2019-03-06T07:58:12.000Z	874	10,648				
1096499260747481088	649	MaryHodder	From @AnnCoulter “The only national emergency is that our president is an idiot.” Funniest thing I’ve heard all day. ((👏)) ((👏)) ((👏)) 	en	1	0	2		2019-02-15T19:59:30.000Z	874	10,648				
1093964016173473793	649	MaryHodder	Brillant. Best headline of the week. 	en	6	1	1		2019-02-08T20:05:20.000Z	874	10,648				
1093963923676553216	649	MaryHodder	Haahahahahaahahahaha. Of all people. 	it	1	0	0		2019-02-08T20:04:58.000Z	874	10,648				
1084347480005734401	649	MaryHodder	HIstory repeats. With a twist. 	en	1	0	0		2019-01-13T07:12:40.000Z	874	10,648				
1073725346086760448	649	MaryHodder	What happens at home? Is it a fight? Or do you and KAC have a pact, knowing T is a liar, that you cancel out her work in the karma department? 	en	0	0	0		2018-12-14T23:44:06.000Z	874	10,648				
1072629376070623233	649	MaryHodder	bad·ass /ˈbadˌas/Submit INFORMAL•NORTH AMERICAN noun 1. a tough, uncompromising, or intimidating person. "one of them is a real badass, the other's pretty friendly" #TrumpShutDown 	en	1023	30	456	laureldavilacpa	2018-12-11T23:09:06.000Z	874	10,648				https://pbs.twimg.com/media/DuK-uKQW0AAnEcv?format=jpg&amp;name=360x360
1072598488679153664	649	MaryHodder	Go Nancy Go !!! 	en	0	0	0		2018-12-11T21:06:22.000Z	874	10,648				
1071268514562899968	649	MaryHodder	Congrats Alison! Mountain View needs you! 	en	0	0	0		2018-12-08T05:01:31.000Z	874	10,648				
1071268350372667393	649	MaryHodder	Opps I should have said @scrawford 	en	1	0	0		2018-12-08T05:00:52.000Z	874	10,648				
1071129224864501760	649	MaryHodder	Turned on car. Radio: @susancrawford is talking about Fiber. Nice. ((☺️)) 	en	2	1	0		2018-12-07T19:48:02.000Z	874	10,648				
1068615953989087232	649	MaryHodder	A QA engineer walks into a bar. Orders a beer. Orders 0 beers. Orders 99999999999 beers. Orders a lizard. Orders -1 beers. Orders a ueicbksjdhd. First real customer walks in and asks where the bathroom is. The bar bursts into flames, killing everyone. 	en	63516	467	26846	brenankeller	2018-11-30T21:21:12.000Z	874	10,648				
1060279499047268353	649	MaryHodder	HO HO GDPR http://brucesterling.tumblr.com/post/179862742293 	en	305	3	165	doctorow	2018-11-07T21:15:06.000Z	874	10,648				https://pbs.twimg.com/media/DrbeldTX0AAqcVT?format=jpg&amp;name=360x360
1058362853311332352	649	MaryHodder	It would *really* be a show of solidarity with Trump's efforts to end birthright citizenship if @marcorubio renounced his U.S. citizenship. He wouldn't have it without the 14th Amendment. He was born in 1971. Both of his parents did not become U.S. citizens until 1975. 	en	8362	176	3954	MattOrtega	2018-11-02T14:19:02.000Z	874	10,648				
1057727432310935552	649	MaryHodder	VOTED !!! ((😋)) 	en	0	0	0		2018-10-31T20:14:06.000Z	874	10,648				
1057681525326528513	649	MaryHodder	VOTE !!!! The voting gnome says YES ! ((🧙‍♂️)) 	en	0	0	0		2018-10-31T17:11:41.000Z	874	10,648				
1055641593590407168	649	MaryHodder	I'm so sorry to hear this Jill. What a giant tragedy with so much grief and sadness. Thinking about you and your family, particularly you and your husband. ((💔)) 	en	2	0	0		2018-10-26T02:05:43.000Z	874	10,648				
1050641923772301312	649	MaryHodder	Welcome to 1952 Jim Crow. 	en	0	0	0		2018-10-12T06:58:49.000Z	874	10,648				
1050640491455295489	649	MaryHodder	There is no way to call you about your stealing money out of my bank account. I sent screen shots of my acct and asked you to call me two times today.. it's been 14 hours. WTF? You "help" sucks. 	en	2	1	0		2018-10-12T06:53:07.000Z	874	10,648				
1044989437816451073	649	MaryHodder	Bottom line: #IBelieveChristine #IBelieveChristineBlaseyFord #IBelieveJulieSwetnick #IBelieveTheWomen 	en	1	0	0		2018-09-26T16:37:51.000Z	874	10,648				
1044985947039748096	649	MaryHodder	This has to be investigated. Kavanaugh cannot be confirmed. He was part of the perp scene. 	en	1	1	1		2018-09-26T16:23:59.000Z	874	10,648				
1044985709696757761	649	MaryHodder	Fix was in.. as they say. Boys ran the show. The answer was to not attend, once I realized. It was horrifying. But my friends and I just wouldn't go and found other social things to do with each other. Because DC was a drunken sex party scene for all the schools then. 	en	1	0	1		2018-09-26T16:23:02.000Z	874	10,648				
1042836074869866496	649	MaryHodder	Great discussion you two! Lovely discussion all around in the room too! 	en	1	0	0		2018-09-20T18:01:09.000Z	874	10,648				
1039556405282459648	649	MaryHodder	And yet, somehow, we manage not to shoot up large numbers of people. Huh. 	en	18	1	1	lolagoetz	2018-09-11T16:48:55.000Z	874	10,648				
1041869524637638656	649	MaryHodder	Thanks and looking forward to it!!! 	en	0	0	0		2018-09-18T02:00:26.000Z	874	10,648				
1040297319080423424	649	MaryHodder	. @SouthwestAir why don't you give frequent flyer for pet travel? You know: buy 10 passes, get a free trip? Reward people who don't abuse the "support pet" thing. 	en	0	0	0		2018-09-13T17:53:03.000Z	874	10,648				
1031590219525439490	649	MaryHodder	. @SeaTacAirport Just told by @SouthwestAir that Seatac is closed due to smoke. Update in 1-2 hours. What is your prognosis? PLEASE ADVISE. Thanks 	en	0	0	0		2018-08-20T17:14:09.000Z	874	10,648				
1029432460768030720	649	MaryHodder	Good move.. Nazi's shouldn't be a tech conferences giving talks on tech. Ugg. 	en	0	0	1		2018-08-14T18:19:59.000Z	874	10,648				
1029156034860859392	649	MaryHodder	Alison Hicks is a great candidate for City Council in Mountain View. She's a planner and the city needs that skill on Council. Consider supporting her if you live in MV! http://alisonhicks4council.com 	en	0	0	0		2018-08-14T00:01:34.000Z	874	10,648				
1000040692037533696	649	MaryHodder	This is my favorite. #GDPRday 	en	15353	119	9035	wbm312	2018-05-25T15:47:35.000Z	874	10,648		https://video.twimg.com/tweet_video/DeDbqQoU0AAx4QW.mp4	https://pbs.twimg.com/tweet_video_thumb/DeDbqQoU0AAx4QW.jpg	
990378755385450496	649	MaryHodder	Kantara Workshop https://www.kuppingercole.com/events/eic2018-kantara via @kuppingercole specifications, good practice guides, conformity assessment &amp; assurance 	en	2	0	1	IDmachines	2018-04-28T23:54:30.000Z	874	10,648				
989888813462798336	649	MaryHodder	To talk about religious freedom and then fire the House priest because you didn’t like what he said about your bill is an absurdly perfect encapsulation of what has happened to the GOP. 	en	21578	217	6755	brianschatz	2018-04-27T15:27:39.000Z	874	10,648				
989914004268040192	649	MaryHodder	To just hate on people who have homes (most of Wallingford are families with little kids and younger couples) and want to level them is a #failureofimagination why not use the open spaces we have to put up tall housing.. and keep the mix. Wallingford is quite dense.. see photo: 	en	0	0	0		2018-04-27T17:07:44.000Z	874	10,648				https://pbs.twimg.com/media/DbzhfjkU8AAlUAm?format=jpg&amp;name=360x360
989912994069921792	649	MaryHodder	It's fine to point out disparity.. it's a whole other thing to make fun of the old &amp; their clutter, to make them sound like monsters for living in their homes etc. You are really talking about bigger US issue: wage stagnation that makes it hard for youth to buy expensive housing. 	en	0	2	0		2018-04-27T17:03:44.000Z	874	10,648				
989907380035977217	649	MaryHodder	But trashing older people by showing photos of their cluttered homes? Most of Wallingford has families with little kids, young couples and so your dichotomy just seems #agist and makes @zachlubarsky seem hateful toward people who own a home. 	en	0	1	0		2018-04-27T16:41:25.000Z	874	10,648				
989906983573639169	649	MaryHodder	With this map - you see Wallingford is pulling it's weight. So why focus on older people and trash them (and show photos of their clutter) #agist @Pauledroberts @POLITICOMag @zachlubarsky cc: @JeffreyLinn https://sightline.carto.com/ 	en	0	0	0		2018-04-27T16:39:51.000Z	874	10,648				https://pbs.twimg.com/media/DbzaP2qUQAAPjsX?format=jpg&amp;name=360x360
989614856163676160	649	MaryHodder	Thanks for this! btw, the map that Lubarsky mentions has already been made. I made this one, first as an independent project, then for the Sightline Institute 	en	0	0	1	JeffreyLinn	2018-04-26T21:19:02.000Z	874	10,648				
989901985687093248	649	MaryHodder	Also note in areas of Wallingford I know, it's blk after blk of mostly young families with kids, young couples, young engineers from tech companies.. older 55+ residents are maybe 1-2 per block? But you did manage to pit one really old couple + clutter against youth. #agism 	en	0	0	0		2018-04-27T16:19:59.000Z	874	10,648				
989899993984086016	649	MaryHodder	But keep the housing we have and build new in open spaces and fill in where we can. Until spaces are filled in, you come off as angry at people who have what you don't have. @Pauledroberts @zachlubarsky 	en	1	1	1		2018-04-27T16:12:04.000Z	874	10,648				
989899478084734976	649	MaryHodder	Were you aware that the best affordable housing is existing housing we have now? @Pauledroberts @zachlubarsky ? I don't mind density.. that's what ADU and DADU law is all about .. but just gunning to level an existing neighborhood when you could just build on all that open land? 	en	0	0	1		2018-04-27T16:10:01.000Z	874	10,648				
989898922305843201	649	MaryHodder	I think you are just angry and hate older homeowners, @Pauledroberts @zachlubarsky . If you wanted housing, if that's what you really cared about, you would write an article with alternatives and press for housing in open areas, without taking out the housing already exisiting. 	en	0	0	1		2018-04-27T16:07:49.000Z	874	10,648				
989898615274418177	649	MaryHodder	For ex, from the Stadium to top of Georgetown, from 5 to Marginal Way, there are miles of underutilized land that could be upzoned right now, with transit, for housing, without displacing anyone, acres and acres of open land. Failure of imagination? @Pauledroberts @zachlubarsky 	en	0	0	1		2018-04-27T16:06:35.000Z	874	10,648				
989897921247129600	649	MaryHodder	I don't get why you target a neighborhood that wants to keep what it has, when Seattle has loads of unused land, in city limits, w/ good transit, that could be upzoned for dense housing. I get you hate homeowners @Pauledroberts @zachlubarsky but there are acres and acres of land 	en	2	0	1		2018-04-27T16:03:50.000Z	874	10,648				
989897035422679040	649	MaryHodder	. @Pauledroberts , in your article on Wallingford in Seattle.. You make youthful hatred of homeowners cool, and you make fun of older retired people who want to stay in their homes, by showing their cluttered spaces.. how ageist and sad of you. https://www.politico.com/magazine/story/2018/04/26/seattle-housing-what-works-next-218058#superComments 	en	1	0	1		2018-04-27T16:00:19.000Z	874	10,648				
988147779691339779	649	MaryHodder	Also HT @rlloyd @ScottLDavid @cyberlawclinic @DCNorg @EFF @w3c @khopper @timhwang @MaryHodder @nitinbadjatia @iainh1 @ccarfi @seanbohan @DeanLand et. many al. 	en	6	0	4	VRM	2018-04-22T20:09:24.000Z	874	10,648				
989892743945056261	649	MaryHodder	Hey tweeps, do yourself a favor -- go here to uncheck all that personalization (read: tracking) crap that @twitter does: https://twitter.com/settings/personalization 	en	0	0	0		2018-04-27T15:43:16.000Z	874	10,648				
986850248893935616	649	MaryHodder	Yep every historic building would be subject to the no zoning changes. They would be leveled and any historic designation would be gone. 	en	0	0	0		2018-04-19T06:13:28.000Z	874	10,648				
986849149608804354	649	MaryHodder	That would actually be fine because at least the community would have the choice. But the way 827 was set up it was really not cool and would level all historic buildings in downtown's in California. 	en	0	1	0		2018-04-19T06:09:06.000Z	874	10,648				
981279639682260992	649	MaryHodder	Why remove them? Why not only allow them to talk to each other and never show up in anybody else's feeds or ads? Then they keep on wasting resources, we could see what they were saying by going to their accounts and they would be neutralized. 	en	3	0	0		2018-04-03T21:17:52.000Z	874	10,648				
980668743167741952	649	MaryHodder	Europe's new data protection rules export privacy standards worldwide https://www.politico.eu/article/europe-data-protection-privacy-standards-gdpr-general-protection-data-regulation/ 	en	5	0	4	IDmachines	2018-04-02T04:50:22.000Z	874	10,648				
981206511094464512	649	MaryHodder	Dinner last night at Luc on Madison #SRW was fantastic. Definitely going next week again. 	en	0	0	0		2018-04-03T16:27:16.000Z	874	10,648				
979013879010353152	649	MaryHodder	#KNOWIdentity @1WorldIdentity 	und	0	0	0		2018-03-28T15:14:32.000Z	874	10,648				
979012640382078976	649	MaryHodder	Jeremy Grant on the Better Identity Coalition https://www.betteridentity.org at #KnowID : "...not assuming every ID system isn't going to do harm." Me: Giving individuals transparent rating of products and services they use could put mkt pressure -- one piece of the puzzle. 	en	2	0	1		2018-03-28T15:09:37.000Z	874	10,648				
978654443041382400	649	MaryHodder	Yeah.. it would be great. But they would never do it lest they have even more liability just for tracking and "knowing". #TOOBAD 	en	1	0	0		2018-03-27T15:26:16.000Z	874	10,648				
978653293651091457	649	MaryHodder	I've been saying this since 2005. Finally some traction. Thank you Steve! It was a fun discussion on certifications! #idefregistry @idefregistry 	en	1	1	1		2018-03-27T15:21:42.000Z	874	10,648				
978629389876367360	649	MaryHodder	Certifications get you info on a service, and can motivate stakeholders to modify behaviors. They could also work to move markets for good by exposing bad behaviors. 	en	1	0	0		2018-03-27T13:46:43.000Z	874	10,648				
978358298595545088	649	MaryHodder	"Exposing readers to #data vampires is simply wrong on its face, and we need to fix it. That it’s normative in the extreme is no excuse. Nor is the fact that it makes money." @dsearls on news organizations and tracking-based advertising http://blogs.harvard.edu/doc/2018/03/23/nothing/ #CambridgeAnalytics 	en	5	0	3	strelnik	2018-03-26T19:49:30.000Z	874	10,648				https://pbs.twimg.com/media/DZPTnpWXkAAavj7?format=jpg&amp;name=small
978463595708153856	649	MaryHodder	Agree.. but how can you know, and anticipate, years down the road, how your data might be used against you. Consent can't just be about comprehension -- has to also cover future user control over what happens in partnership with companies that agree to our terms too. 	en	1	1	0		2018-03-27T02:47:54.000Z	874	10,648				
978463132912881669	649	MaryHodder	Let me guess: Russian BOTS + the @NRA ? 	en	0	0	0		2018-03-27T02:46:04.000Z	874	10,648				
978461963293544448	649	MaryHodder	Comprehension? My issue is that individuals cannot anticipate the future, even if they do understand what they are agreeing / consenting to.... 	en	1	1	0		2018-03-27T02:41:25.000Z	874	10,648				
978271818300690433	649	MaryHodder	Scott Galloway @profgalloway "we need to do better" by Facebook really means 'we aren't changing anything than affects the bottom line' #owi2018 	en	1	0	1		2018-03-26T14:05:51.000Z	874	10,648				
976175714138501121	649	MaryHodder	$40b does seem compelling. And FB has lost 9% of their users in the past year. That's compelling too. 	en	2	1	1		2018-03-20T19:16:41.000Z	874	10,648				
976140135703212032	649	MaryHodder	Hoping our Lord of the Flies-Silicon Valley ethos can grow up a bit after this latest blast of cold air toward our usual hubris. 	en	3	1	0		2018-03-20T16:55:18.000Z	874	10,648				
976139273522081794	649	MaryHodder	Love her.. also Spinning Wheel "What goes up, must come down..." https://www.youtube.com/watch?v=wGdAmBiCD3M 	en	0	0	0		2018-03-20T16:51:53.000Z	874	10,648				
974312124477530112	649	MaryHodder	ZOMG Notorious RBG is 85! 	nl	0	0	0		2018-03-15T15:51:26.000Z	874	10,648				
974311715511861249	649	MaryHodder	from @Dsearls Help Us Cure Online Publishing of Its Addiction to Personal Data http://www.linuxjournal.com/content/help-us-cure-online-publishing-its-addiction-personal-data 	en	0	0	0		2018-03-15T15:49:49.000Z	874	10,648				
952940516311670784	649	MaryHodder	. @AOSmithHotWater is getting us a new part, but WE HAVE TO PAY THE SECOND ROUND OF LABOR. #FAIL WTF? And did I mention I spent 4 days over last weekend without hot water? And now I had this past 3 days / weekend without hot water. $#%!$!^%$#@^$^$@%$@%$@ 	en	1	1	1		2018-01-15T16:28:18.000Z	874	10,648				
952940515401412608	649	MaryHodder	. @AOSmithHotWater #FAIL Our 3y old waterheater (that cost $1k) had the thermostat with gas valve inside go out. 4 days later, you covered a new thermostat, but not the $250 labor to replace. 2 days after the new part was installed, it failed. (1of2) 	en	1	1	1		2018-01-15T16:28:18.000Z	874	10,648				
933485257621372929	649	MaryHodder	The basic principle of Net Neutrality is that access to all websites should be treated equally. What the FCC wants to do is empower broadband service provides to distort the online marketplace and set up a pay-for-play system. This would be a terrible mistake. 	en	22280	397	11630	KamalaHarris	2017-11-23T00:00:03.000Z	874	10,648				
932937402481565696	649	MaryHodder	Can't make it up: The leading pick to run the Census Bureau is the author of a book called "Redistricting and Representation: Why Competitive Elections Are Bad for America.” 	en	6213	273	8823	blakehounshell	2017-11-21T11:43:04.000Z	874	10,648				
933023707135582208	649	MaryHodder	Without your ISP can: 1. Charge you extra to reach certain websites. 2. Slow down streaming services like Netflix that compete with their streaming services. 3. Block some websites altogether. This is the end of the free and open Internet. 	en	98395	1015	79569	billprady	2017-11-21T17:26:01.000Z	874	10,648				
933072301096136705	649	MaryHodder	So Doug Jones, a lifelong prosecutor who convicted the monsters that murdered four little girls is "soft on crime," but Roy Moore, the district attorney alleged to have molested a child and sexually assaulted a 16yo is not. Got it. 	en	81250	1776	34929	chrislhayes	2017-11-21T20:39:06.000Z	874	10,648				
933383753476358144	649	MaryHodder	Alarming is right. Support @AGSchneiderman 's work to figure out who the bot farm is that is submitting anti-net neutrality comments to FCC 	en	0	0	0		2017-11-22T17:16:42.000Z	874	10,648				
931311812405891073	649	MaryHodder	How to know if you really care about sexual assault victims: If you're calling for the head of #AlFranken today, but you're still not willing to investigate the 19 women who claim to have been assaulted by @realDonaldTrump —you don't. 	en	3242	108	1467	johnpavlovitz	2017-11-17T00:03:33.000Z	874	10,648				
928074229542658048	649	MaryHodder	Mountain View building design: Boxy? Or human and livable? https://www.livablemountainview.org/2017/11/08/cbs-video-on-mountain-view-city-council-rejects-boxy-architecture-seeks-more-organic-designs/ 	en	2	0	1	LivableMV	2017-11-08T01:38:33.000Z	874	10,648				
925568522868097024	649	MaryHodder	Rolling a political convention. ((Weary cat face)) ((Robot face)) ((Fire)) ((Collision symbol)) ((Face screaming in fear)) ((Skull)) ((Japanese goblin)) ((Japanese ogre)) ((Ghost)) 	en	0	0	0		2017-11-01T03:41:46.000Z	874	10,648				
925568522591309829	649	MaryHodder	Just heard my first wedding toast--Rick Roll.. Way better than Rick 	en	0	0	0		2017-11-01T03:41:46.000Z	874	10,648				
923246843596640256	649	MaryHodder	Thanks for the great party Saturday night! Congrats on the grand opening! 	en	1	0	0		2017-10-25T17:56:15.000Z	874	10,648				
921820217109385216	649	MaryHodder	It's time to get serious about saving the last few historic buildings in MV before we become a corp campus full of dead zones. #SaveChezTied 	en	2	0	0		2017-10-21T19:27:21.000Z	874	10,648				
920798048850030592	649	MaryHodder	Somewhere, Bill O'Reilly is typing and then erasing his 4,576th draft response to this. 	en	1482	25	121	petersagal	2017-10-18T23:45:37.000Z	874	10,648				
5747128632	662	Danse	Hasn't tweeted since September 2007! 	en	7	1	2		2009-11-15T22:03:10.000Z	0	1,056				
284329782	662	Danse	feeling like I've done one too many chatarangas this week in yoga class 	en	2	0	0		2007-09-21T16:32:25.000Z	0	1,056				
284328902	662	Danse	Bored, so bored at work 	en	0	0	0		2007-09-21T16:31:58.000Z	0	1,056				
279662292	662	Danse	I wish I could have gone too. Whats up with these tuesday night concerts =) 	en	0	0	0		2007-09-19T17:41:47.000Z	0	1,056				
279552342	662	Danse	Also wondering if the Def Leppard concert goers made it out alive! 	en	0	0	0		2007-09-19T16:47:05.000Z	0	1,056				
279550742	662	Danse	contemplating gymming it at lunch today. Obsession is key to success ;) 	en	0	0	0		2007-09-19T16:46:22.000Z	0	1,056				
183233492	662	Danse	Hey peoples =) 	en	0	0	0		2007-08-02T21:47:11.000Z	0	1,056				
442493	662	Danse	I feel your pain Jade! Can't wait until this semester is over, blah. BUT, I will be seeing you on Saturday for sure and that'll be good times! 	en	0	0	0		2006-11-29T19:41:30.000Z	0	1,056				
50121	662	Danse	found a cute pumpkin one online that I might be able to get at Spirit tho! 	en	0	0	0		2006-10-27T17:16:15.000Z	0	1,056				
50120	662	Danse	no costume for halloween yet, doh. 	en	0	0	0		2006-10-27T17:15:48.000Z	0	1,056				
50049	662	Danse	Good morning, happy Friday =) 	en	0	0	0		2006-10-27T15:43:09.000Z	0	1,056				
43987	662	Danse	woke up with a cold this morning... must have been that last vodka/cran! 	en	0	0	0		2006-10-16T14:58:06.000Z	0	1,056				
41746	662	Danse	wondering if she needs to buy a ticket for DeepDish this saturday? 	en	0	0	0		2006-10-11T16:52:38.000Z	0	1,056				
41744	662	Danse	just type that question into google, Aly. It's got all the answers! 	en	1	0	0		2006-10-11T16:51:54.000Z	0	1,056				
38335	662	Danse	Just finished with the shareholders meeting. Very interesting! 	en	0	0	0		2006-10-03T17:49:14.000Z	0	1,056				
38288	662	Danse	gotta go to a meeting...be back soon! 	en	0	0	0		2006-10-03T15:54:03.000Z	0	1,056				
38287	662	Danse	Hi Bao, welcome! 	en	0	0	0		2006-10-03T15:52:47.000Z	0	1,056				
38286	662	Danse	Good morning =) 	en	0	0	0		2006-10-03T15:52:30.000Z	0	1,056				
37007	662	Danse	I learned a couple of years ago Crystal... then broke the oven 	en	0	0	14		2006-09-29T23:01:24.000Z	0	1,056				
36997	662	Danse	ahh crazy at work today! 	en	0	0	0		2006-09-29T22:37:12.000Z	0	1,056				
36947	662	Danse	vinodsivan and sadegh saei - not sure who these people are? 	en	0	0	0		2006-09-29T20:30:20.000Z	0	1,056				
36939	662	Danse	membership is $115/mo. They have EVERYTHING though. What to do! 	en	0	0	0		2006-09-29T20:23:04.000Z	0	1,056				
36938	662	Danse	street from my work. They're offering $15 enrollment (down from $400 reg) but 	en	0	0	0		2006-09-29T20:22:37.000Z	0	1,056				
36937	662	Danse	dilemma! I visited Equinox during lunch today - a beautiful gym across the 	en	0	0	0		2006-09-29T20:22:10.000Z	0	1,056				
30932	662	Danse	Had a very stressfull morning due to leaving my purse at work, ahhh.. Crystal, still on for lunch? 	en	0	0	0		2006-09-15T16:55:50.000Z	0	1,056				
28691	662	Danse	yes it is. And so far, I'm mostly a backup so there's not much to do! 	en	0	0	0		2006-09-11T17:42:42.000Z	0	1,056				
28687	662	Danse	meaning that it's clients are all banks rather than people like you &amp; I 	en	0	0	0		2006-09-11T17:37:00.000Z	0	1,056				
28686	662	Danse	The same - banking. The difference is that this company is a "banker's bank" 	en	0	0	1		2006-09-11T17:36:44.000Z	0	1,056				
28682	662	Danse	uhm, bored that is! 	en	0	0	0		2006-09-11T17:31:53.000Z	0	1,056				
28680	662	Danse	borded at work, aahh 	en	1	0	0		2006-09-11T17:31:00.000Z	0	1,056				
27798	662	Danse	Liking the new look of twitter. When/why did twttr change to twitter tho? 	en	2	0	1		2006-09-09T18:03:56.000Z	0	1,056				
24539	662	Danse	No margs so far today, maybe next Friday! I think there has to be a considerable reason for celebration =) 	en	1	0	2		2006-09-01T20:32:43.000Z	0	1,056				
24538	662	Danse	Soooo glad it's Friday and sunny 	en	0	0	1		2006-09-01T20:32:11.000Z	0	1,056				
24441	662	Danse	Going to have to schedule a lunch date with Miss Krissy and Miss Crystal some day soon! 	en	0	0	1		2006-09-01T15:24:38.000Z	0	1,056				
24434	662	Danse	Oh, I see Jade has finally accepted my twttr request! I wonder how she is these days 	en	0	0	1		2006-09-01T15:16:23.000Z	0	1,056				
24433	662	Danse	Sorry Jess, and thanks =) 	en	0	0	1		2006-09-01T15:15:46.000Z	0	1,056				
24429	662	Danse	Good morning! Immersed in my new job and loving it! No more clocking in and out... no more nasty old supervisor.. oh! and margaritas in the afternoon! 	en	0	0	1		2006-09-01T15:08:42.000Z	0	1,056				
16984	662	Danse	a bundle of nerves this morning! 	en	1	1	1		2006-08-08T16:09:40.000Z	0	1,056				
16874	662	Danse	Got that job I interviewed for yay! Kicking myself for not asking for more money, but still ecstatic at the considerable pay raise. Veeery nervous about resi... 	en	2	0	58		2006-08-07T22:51:16.000Z	0	1,056				
16239	662	Danse	Happy Birthday Jess!! Wow, Brad and Ashley having a baby! congrats! 	en	1	0	1		2006-08-04T16:52:33.000Z	0	1,056				
16237	662	Danse	FINALLY has an interview for a new job today! 	en	1	0	1		2006-08-04T16:50:37.000Z	0	1,056				
15540	662	Danse	stuffed! 	en	1	0	1		2006-08-01T20:45:17.000Z	0	1,056				
15433	662	Danse	going wine tasting this weekend, very excited 	en	1	0	1		2006-08-01T15:43:54.000Z	0	1,056				
15424	662	Danse	back at my lovely job. yay 	en	1	0	1		2006-08-01T15:21:07.000Z	0	1,056				
14873	662	Danse	Hanging out in Susanville, CA. About to go swimming in the river for old times sake! 	en	1	0	1		2006-07-29T20:00:56.000Z	0	1,056				
13954	662	Danse	watching Sean play catch with the kitty. Such a strange kitty! 	en	1	0	1		2006-07-26T20:02:40.000Z	0	1,056				
13953	662	Danse	*relaxing 	en	2	0	1		2006-07-26T20:01:23.000Z	0	1,056				
13952	662	Danse	spending a very relazing and uneventful day messing around online and reading 	en	1	0	1		2006-07-26T20:01:10.000Z	0	1,056				
13465	662	Danse	on vacation and planning on spending the day at Stinson Beach... lovin` the sunny weather 	en	1	0	1		2006-07-24T17:21:23.000Z	0	1,056				
13111	662	Danse	may be going to visit my aunt in Pacifica, where it's in the 70's-80's instead of staying here where it's in the 90's! Wonder if the beach rats are still in ... 	en	1	0	186		2006-07-22T23:01:46.000Z	0	1,056				
12774	662	Danse	wonders how Garett finds time to work with all of his lunching, surfing and rock climbing... ;) 	en	2	0	2		2006-07-21T22:03:50.000Z	0	1,056				
12699	662	Danse	imagining submitting a notice of resignation.. and being gone before my boss gets back from vaca! ouu, evil thoughts 	en	1	0	1		2006-07-21T18:50:04.000Z	0	1,056				
12157	662	Danse	nm... I got it 	en	1	0	2		2006-07-20T06:31:55.000Z	0	1,056				
12151	662	Danse	wondering how to email a hellodeo... 	en	1	0	2		2006-07-20T06:15:59.000Z	0	1,056				
12147	662	Danse	can't believe it's 10:50pm.... time to go to bed already! Where did the time go... 	en	1	0	1		2006-07-20T05:46:22.000Z	0	1,056				
11984	662	Danse	waiting to find out if I'm going to get a better than .43 cent raise. And if I'm going to get offered a new job. hmmmmm 	en	2	0	1		2006-07-19T21:50:10.000Z	0	1,056				
11863	662	Danse	forgot to do a hellodeo and wishing I had a cam at work! 	en	1	0	1		2006-07-19T17:14:06.000Z	0	1,056				
11474	662	Danse	staring at this "Individual Career Goals" questionnaire just handed to me by my supervisor. Rolling my eyes. None of your business! 	en	1	0	2		2006-07-18T21:11:57.000Z	0	1,056				
11296	662	Danse	thinking I betta update my cellphone plan pretty quick with the increased volume of text messages I've been engaging in lately! 	en	2	0	1		2006-07-18T16:28:15.000Z	0	1,056				
11261	662	Danse	wishing that I was outside where the sun is shining... preferably on a beach somewhere tropical 	en	1	0	1		2006-07-18T15:29:08.000Z	0	1,056				
11039	662	Danse	sneezing! and shaking my head at the injustice of office politics. Is it 4:30 yet?? 	en	1	0	1		2006-07-17T21:24:39.000Z	0	1,056				
10586	662	Danse	slept way to late and am now thinking that today looks like a beach day! 	en	1	0	3		2006-07-16T18:11:13.000Z	0	1,056				
10489	662	Danse	lounging at home instead of boogying in the city to Daniel's set =( Damn migraines! 	en	1	0	2		2006-07-16T05:17:21.000Z	0	1,056				
10396	662	Danse	saw pirates last night - it's pretty good, though we all firmly agree that nothing can beat the first! I have a webcam too, yay 	en	1	0	2		2006-07-15T23:54:08.000Z	0	1,056				
10145	662	Danse	mmmm...japanese food! 	en	1	0	4		2006-07-15T00:14:07.000Z	0	1,056				
10077	662	Danse	You know what that is, don't you... an unconcious desire to starve yourself! Yea, I don't have that problem =) 	en	1	0	2		2006-07-14T21:07:22.000Z	0	1,056				
10073	662	Danse	Had some hawaiian bbq for lunch and it was oh-so-grand. Exercise bike, here I come! 	en	1	0	1		2006-07-14T20:52:15.000Z	0	1,056				
9874	662	Danse	ohh..and please welcome Krissy to the land of sinners and hell for me :} 	en	2	1	1		2006-07-14T03:56:44.000Z	0	1,056				
9872	662	Danse	wonder how I get one of them nifty pics next to my name... 	en	2	0	1		2006-07-14T03:55:23.000Z	0	1,056				
9870	662	Danse	lounging on the floor after the gym and some vigorous weed cutting in the backyard - icing my ailments and playing with my new laptop....ah, life is grand.. 	en	1	1	2		2006-07-14T03:53:08.000Z	0	1,056				
558008823802523650	675	An_14690930418	BIG NEWS: Major new study finds that chronic marijuana smoking does not cause damage to lungs. http://mppne.ws/15zY8W2 	en	90	8	86	MarijuanaPolicy	2015-01-21T21:10:45.000Z	94	2,095				
557621722997071872	675	An_14690930418	Mill Ticket - Money 	en	1	0	0		2015-01-20T19:32:33.000Z	94	2,095				
557588127053651968	675	An_14690930418	@Anthony 	und	1	0	1	DelawareIdol	2015-01-20T17:19:03.000Z	94	2,095				
555777002062757888	675	An_14690930418	#BoyzOfZummer 	und	828	67	549	wizkhalifa	2015-01-15T17:22:17.000Z	94	2,095				
542881714679599105	675	An_14690930418	#IHateCartmanBrah 	und	1	0	0		2014-12-11T03:21:01.000Z	94	2,095				
536003204241428482	675	An_14690930418	Mill Ticket @DelawareIdol 	en	0	0	1		2014-11-22T03:48:17.000Z	94	2,095				
522054673746767872	675	An_14690930418	Go get @thegame "Year Of The Wolf " Album In stores Now!!! ..Track 1 "Bigger Than Me" Prod. By Me &amp; my… http://instagram.com/p/uI41_Gu0_n/ 	en	0	1	1	MosleyHD	2014-10-14T16:01:48.000Z	94	2,095				
522062785304604673	675	An_14690930418	Haters need not apply. #HatenDead 	en	0	1	1		2014-10-14T16:34:02.000Z	94	2,095				
520662200944713728	675	An_14690930418	@DelawareIdol new track called chosen press play fuck with it download tell me wat you think https://soundcloud.com/gwopgangmusic/tez-chosen 	en	0	0	2	ItsTezBoi	2014-10-10T19:48:36.000Z	94	2,095				
521684435193049088	675	An_14690930418	Delaware don't support $#!+ that another Delawarean is doing. It's such a hateful place. So when you have support here, you doing suin right 	en	16	3	45	DJBLAIRE	2014-10-13T15:30:36.000Z	94	2,095				
519305693652742144	675	An_14690930418	They goin believe a lie before they believe the truth !! #rememberthat http://cokeboysphoto.com/82Q 	en	74	9	76	FrencHMonTanA	2014-10-07T01:58:20.000Z	94	2,095				
518938146537734144	675	An_14690930418	Haters need not apply 	en	0	0	0		2014-10-06T01:37:50.000Z	94	2,095				
518920602145796098	675	An_14690930418	Your hard work is going to put you on, not another person. 	en	317	32	384	UncleRUSH	2014-10-06T00:28:07.000Z	94	2,095				
493568754241261568	675	An_14690930418	#Tomorrowland 	und	0	0	0		2014-07-28T01:28:55.000Z	94	2,095				
485203249365278721	675	An_14690930418	Hol' up hol' up hol' up 	en	0	1	1		2014-07-04T23:27:23.000Z	94	2,095				
483627445762142210	675	An_14690930418	Leasing Beats For $150 | Contact: Mosleymgmt@gmail.com ((‼️)) ((‼️)) *Up and Coming Artist http://instagram.com/p/p32KhHu0_L/ 	en	0	0	2	MosleyHD	2014-06-30T15:05:43.000Z	94	2,095				
481712055716970496	675	An_14690930418	Another rocket is set to launch from Wallops Island. Find out when: http://bit.ly/1q7YLO0 http://fb.me/3H8yhEbu0 	en	2	0	7	wboc	2014-06-25T08:14:38.000Z	94	2,095				
480940455022960641	675	An_14690930418	@Anthony 	und	0	0	1	DelawareIdol	2014-06-23T05:08:34.000Z	94	2,095				
476809435810365440	675	An_14690930418	Fuck your women crush Wednesday, I just fucked your women crush Wednesday 	en	0	0	0		2014-06-11T19:33:22.000Z	94	2,095				
472007012318855170	675	An_14690930418	Oh, snap! Joy &amp; Randy from #MyNameIsEarl are back together on #JenniferFalls - this time playing bro &amp; sis! 	en	425	23	130	JenniferFallsTV	2014-05-29T13:30:15.000Z	94	2,095				https://pbs.twimg.com/media/BowBikQCcAAeSrs?format=jpg&amp;name=360x360
471129955414605824	675	An_14690930418	In order to achieve happiness in this lifetime, you must make a real commitment. 	en	292	26	379	UncleRUSH	2014-05-27T03:25:09.000Z	94	2,095				
464801261003735040	675	An_14690930418	MacGruber 	de	0	0	0		2014-05-09T16:17:10.000Z	94	2,095				
464157763330134016	675	An_14690930418	You can always find a good spot to sit in silence. 	en	113	17	113	UncleRUSH	2014-05-07T21:40:09.000Z	94	2,095				
463989435143434240	675	An_14690930418	My name is earl 	en	0	0	0		2014-05-07T10:31:16.000Z	94	2,095				
462286932442353665	675	An_14690930418	Ancient aliens 	fr	0	0	0		2014-05-02T17:46:08.000Z	94	2,095				
462116133491838976	675	An_14690930418	Talk shit get the first aid kit 	en	0	0	0		2014-05-02T06:27:26.000Z	94	2,095				
460874539660890112	675	An_14690930418	I am gonna suck Chipotles dick when I get home 	en	11	1	2	iDontCharis	2014-04-28T20:13:47.000Z	94	2,095				
460864809370927104	675	An_14690930418	When they say turn down, we turn up and turn up some more. When they say put it down, it's too loud, We burn up some more 	en	0	0	0		2014-04-28T19:35:07.000Z	94	2,095				
459112006998843392	675	An_14690930418	Block out the noise and refocus on what's inside of you. 	en	201	11	291	UncleRUSH	2014-04-23T23:30:07.000Z	94	2,095				
458408561027325952	675	An_14690930418	Follow @DelawareIdol 	en	0	0	1		2014-04-22T00:54:52.000Z	94	2,095				
458323140222128128	675	An_14690930418	Here comes the sun 	en	0	0	0		2014-04-21T19:15:26.000Z	94	2,095				
458057403985297408	675	An_14690930418	What's good for 4.20 everyone 	en	0	0	0		2014-04-21T01:39:30.000Z	94	2,095				
458056192599027713	675	An_14690930418	http://instagram.com/p/nBoPYtQON-/ Happy 4:20 	en	0	0	0		2014-04-21T01:34:41.000Z	94	2,095				
457982959954714624	675	An_14690930418	Smokin OG lush from another time zone 	en	0	0	0		2014-04-20T20:43:41.000Z	94	2,095				
456875947846021120	675	An_14690930418	Work smarter not harder 	en	0	0	0		2014-04-17T19:24:48.000Z	94	2,095				
456662943938007040	675	An_14690930418	The weak are meat that the strong eats 	en	0	0	0		2014-04-17T05:18:24.000Z	94	2,095				
455867564472950784	675	An_14690930418	Hol up, we dem boyz 	en	0	0	0		2014-04-15T00:37:51.000Z	94	2,095				
454662560395313152	675	An_14690930418	Here comes the sun... 	en	0	0	0		2014-04-11T16:49:36.000Z	94	2,095				
453747858886258688	675	An_14690930418	My bands first recording ((😁)) check it http://m.soundcloud.com/dimestorepoets 	en	1	1	1	iDontCharis	2014-04-09T04:14:54.000Z	94	2,095				
453730241064599553	675	An_14690930418	Raging weed a holics everywhere 	en	3613	133	2583	wizkhalifa	2014-04-09T03:04:54.000Z	94	2,095				
452910281132638208	675	An_14690930418	Can I live... 	en	0	0	0		2014-04-06T20:46:40.000Z	94	2,095				
452148246375571456	675	An_14690930418	Todays weather: Delaware Grey 	en	0	0	0		2014-04-04T18:18:37.000Z	94	2,095				
451801883678486528	675	An_14690930418	Unfollowing all the zodiac accounts don't care about that shit anymore 	en	0	0	1	iDontCharis	2014-04-03T19:22:17.000Z	94	2,095				
451564608084783104	675	An_14690930418	Follow @Jackie_Comero so gorgeous and talented. 	en	1	0	0		2014-04-03T03:39:26.000Z	94	2,095				
451081976809025536	675	An_14690930418	#pilot #flying #planes #badass #yolo #idocoolthings http://instagram.com/p/mQmMrdMmkb/ 	und	1	0	1	jrose_beauty	2014-04-01T19:41:38.000Z	94	2,095				
450667392583360512	675	An_14690930418	Y'all don't understand me still I'll never enjoy success but my family will ------ @memphisbleek 	en	3	0	2	AnthoNY_d0rtch	2014-03-31T16:14:14.000Z	94	2,095				
450675083598917632	675	An_14690930418	My shit is butter for the bread, they wanna toast me, I keep my head, both of them where they supposed to be 	en	0	0	0		2014-03-31T16:44:47.000Z	94	2,095				
449605942557306881	675	An_14690930418	My new sounds: Ladies Man by Tone Raw &amp; Mill Ticket http://soundcloud.com/delawareidol/ladies-man-by-tone-raw-mill on #SoundCloud 	en	0	0	1	DelawareIdol	2014-03-28T17:56:24.000Z	94	2,095				
450061592978534400	675	An_14690930418	Nick kid choice awards with Jordyn. marky marky def gettin slimed 	en	0	0	0		2014-03-30T00:07:00.000Z	94	2,095				
449379526725083136	675	An_14690930418	you play pussy you gon get fucked 	en	1	1	0		2014-03-28T02:56:42.000Z	94	2,095				
449354255313293313	675	An_14690930418	#aol 	und	1	1	0		2014-03-28T01:16:17.000Z	94	2,095				https://pbs.twimg.com/media/BjxtUH6CUAIoqn0?format=jpg&amp;name=360x360
448770111319863296	675	An_14690930418	My name is Earl 	en	0	0	0		2014-03-26T10:35:06.000Z	94	2,095				
448185529511575552	675	An_14690930418	Got tracks coming I produced for major artist ((🙌)) #HD 	en	1	0	2	MosleyHD	2014-03-24T19:52:11.000Z	94	2,095				
448213393384550400	675	An_14690930418	Long weekends. The worst 	en	0	0	0		2014-03-24T21:42:55.000Z	94	2,095				
446710908266360832	675	An_14690930418	Wake n bake 	en	1	0	0		2014-03-20T18:12:34.000Z	94	2,095				https://pbs.twimg.com/media/BjMJNELCMAA0gIH?format=jpg&amp;name=360x360
445787350778806272	675	An_14690930418	@Anthony I'll slam out with the clam out 	en	1	0	1	iDontCharis	2014-03-18T05:02:41.000Z	94	2,095				
445380453349195776	675	An_14690930418	On my P's and Q's. Smokin Q.P's 	en	0	0	0		2014-03-17T02:05:49.000Z	94	2,095				
445318889254043648	675	An_14690930418	She treat my belt like a mistletoe 	en	0	0	0		2014-03-16T22:01:11.000Z	94	2,095				
444616041021587456	675	An_14690930418	#atg 	und	0	0	0		2014-03-14T23:28:19.000Z	94	2,095				https://pbs.twimg.com/media/BiuX7vZIgAAc-XZ?format=jpg&amp;name=360x360
444615806916501504	675	An_14690930418	A.T.G. 2014 	und	0	0	0		2014-03-14T23:27:23.000Z	94	2,095				https://pbs.twimg.com/media/BiuXuHGIIAANSTE?format=jpg&amp;name=360x360
444398730964631552	675	An_14690930418	i BEEN UP SINCE 1PM WRITING SONGS #WORK #THAOUTSIDER #MILLTICKET 	en	0	0	1	DelawareIdol	2014-03-14T09:04:48.000Z	94	2,095				
444405158273744896	675	An_14690930418	12 Monkeys 	en	1	0	0		2014-03-14T09:30:21.000Z	94	2,095				
444341154629558272	675	An_14690930418	Drank a gallon of moscato &amp; some ciroc.. :D HI! 	en	2	1	4	JohnnyJuliano	2014-03-14T05:16:01.000Z	94	2,095				
444143378855260160	675	An_14690930418	Benson Benson Olivia Benson!! 	it	0	0	0		2014-03-13T16:10:07.000Z	94	2,095				
443934432546668546	675	An_14690930418	Got my daughter swagging like her mothafuckin' daddy though 	en	0	0	0		2014-03-13T02:19:51.000Z	94	2,095				
442897647410900992	675	An_14690930418	Im tryna see green like night vision goggles 	en	0	0	0		2014-03-10T05:40:02.000Z	94	2,095				
442707160158318593	675	An_14690930418	R.i.p B.I.G. 	en	0	0	0		2014-03-09T17:03:06.000Z	94	2,095				
442664276629946368	675	An_14690930418	Every single one of us is capable of experiencing the happiness that comes from stillness. You just have to be patient. 	en	185	21	276	UncleRUSH	2014-03-09T14:12:42.000Z	94	2,095				
441873438966153216	675	An_14690930418	They say death take you to a better place but I doubt it 	en	0	0	0		2014-03-07T09:50:12.000Z	94	2,095				
441017799289212928	675	An_14690930418	I want to ride a light beam 	en	0	0	0		2014-03-05T01:10:11.000Z	94	2,095				
440690425347571712	675	An_14690930418	I can't describe it. but when you see it, you'll know 	en	0	0	0		2014-03-04T03:29:19.000Z	94	2,095				
440683439440678912	675	An_14690930418	I spend my time thinking about time before time 	en	0	0	0		2014-03-04T03:01:34.000Z	94	2,095				
440485271323574272	675	An_14690930418	Today let your breath be your soundtrack, smile and breathe in every pose 	en	73	11	106	UncleRUSH	2014-03-03T13:54:07.000Z	94	2,095				
440322224407314432	675	An_14690930418	If only Bradley's arm was longer. Best photo ever. #oscars 	en	2228298	210359	3122463	TheEllenShow	2014-03-03T03:06:13.000Z	94	2,095				https://pbs.twimg.com/media/BhxWutnCEAAtEQ6?format=jpg&amp;name=360x360
439760740954963968	675	An_14690930418	Every day set the simple goal of trying to be more awake and less distracted 	en	142	16	231	UncleRUSH	2014-03-01T13:55:05.000Z	94	2,095				
439505795227848704	675	An_14690930418	Ancient aliens day 	en	0	0	0		2014-02-28T21:02:01.000Z	94	2,095				
439006270478372864	675	An_14690930418	My name is Earl 	en	0	0	0		2014-02-27T11:57:05.000Z	94	2,095				
437821152610623488	675	An_14690930418	Planet terror 	en	0	0	0		2014-02-24T05:27:51.000Z	94	2,095				
433292169189675009	675	An_14690930418	escargot, my car go, one sixty, swiftly 	en	0	0	0		2014-02-11T17:31:17.000Z	94	2,095				
429442248720547840	675	An_14690930418	As you become more enlightened, the less interest you'll have in getting involved in uninspiring, harmful ideas. 	en	204	22	280	UncleRUSH	2014-02-01T02:33:05.000Z	94	2,095				
428526724406849537	675	An_14690930418	Every day set the simple goal of trying to be more awake and less distracted 	en	104	13	219	UncleRUSH	2014-01-29T13:55:07.000Z	94	2,095				
426718634199613440	675	An_14690930418	I wish global warming was real 	en	0	0	0		2014-01-24T14:10:25.000Z	94	2,095				
422628329166872577	675	An_14690930418	P.T.S.O.T.S PUT THAT SHIT ON THE SPEAKERS!!!! #LOYALTYBEFOREROYALTY #YOUNGxCHARGE #YOLA #MILLTICKET #YOUNG #DELAWARE https://soundcloud.com/ahsan-muhammad-3/lbr-p-t-s-o-t-s-freestyle?utm_source=soundcloud&amp;utm_campaign=share&amp;utm_medium=twitter 	en	0	0	1	DelawareIdol	2014-01-13T07:17:00.000Z	94	2,095				
422365383346360321	675	An_14690930418	Today let your breath be your soundtrack. This is "moving meditation." Smile and breathe in every pose 	en	71	10	103	UncleRUSH	2014-01-12T13:52:09.000Z	94	2,095				
422366539384225793	675	An_14690930418	Every day set the simple goal of trying to be more awake and less distracted 	en	181	16	263	UncleRUSH	2014-01-12T13:56:44.000Z	94	2,095				
421894501951488000	675	An_14690930418	Top down in the winter thats what winners do 	en	1	1	0		2014-01-11T06:41:02.000Z	94	2,095				
421671266643226624	675	An_14690930418	Smile and breathe… be happy 	en	141	22	286	UncleRUSH	2014-01-10T15:53:58.000Z	94	2,095				
420916067406729216	675	An_14690930418	Every day set the simple goal of trying to be more awake and less distracted. 	en	135	18	275	UncleRUSH	2014-01-08T13:53:05.000Z	94	2,095				
420418852543922176	675	An_14690930418	they keep calling i aint picking up, damn im so cold in the fuckin winter. i'll be back around june 	en	1	0	0		2014-01-07T04:57:20.000Z	94	2,095				
420393976508604417	675	An_14690930418	I did it my way.. 	en	0	0	0		2014-01-07T03:18:29.000Z	94	2,095				
419666751224152064	675	An_14690930418	Governor Andrew Cuomo to Establish Medical Marijuana Program in New York Through Executive Action http://bit.ly/1dlAUze 	en	13	2	29	DrugPolicyOrg	2014-01-05T03:08:45.000Z	94	2,095				
420193694768046080	675	An_14690930418	WAKE UP AND DREAM 	en	0	0	0		2014-01-06T14:02:38.000Z	94	2,095				
420193414403981313	675	An_14690930418	High today 64. High tomorrow 14. 0_o 	en	0	0	0		2014-01-06T14:01:31.000Z	94	2,095				
419842536471932928	675	An_14690930418	The saddest stories comes from those who once had the glory 	en	0	0	0		2014-01-05T14:47:15.000Z	94	2,095				
419650990917570560	675	An_14690930418	Take the wheel. Take control of your life. 	en	173	20	286	UncleRUSH	2014-01-05T02:06:07.000Z	94	2,095				
419203436991631360	675	An_14690930418	living is easy with eyes closed, misunderstanding all you see 	en	0	0	0		2014-01-03T20:27:42.000Z	94	2,095				
418595466670927872	675	An_14690930418	You draw, better be picasso, you know the best, cause if this is not so..ah, god bless 	en	0	0	0		2014-01-02T04:11:51.000Z	94	2,095				
418444783301181441	675	An_14690930418	You have to start before you can succeed at anything 	en	183	14	285	UncleRUSH	2014-01-01T18:13:05.000Z	94	2,095				
418272434534375424	675	An_14690930418	In 2014 ... If it ain't about $$ it's funny .... 	en	57	9	94	berner415	2014-01-01T06:48:14.000Z	94	2,095				
418379361356873730	675	An_14690930418	Today let your breath be your soundtrack. This is "moving meditation." Smile and breathe in every pose. 	en	69	16	100	UncleRUSH	2014-01-01T13:53:07.000Z	94	2,095				
1206809365828775937	681	Yarrow	POWER: What does this word mean to you? I’ve posed this question before. This word carries so much meaning, and yet, how many of us are tapped into our authentic selves in an Empowered way? Becoming empowered is an... https://www.facebook.com/yarrowbucans/posts/10157699476385833 	en	1	0	0		2019-12-17T05:32:28.000Z	604	1,480				
1204047936268775425	681	Yarrow	Americans' plastic recycling is dumped in landfills, investigation shows 	en	1	0	0		2019-12-09T14:39:32.000Z	604	1,480				
1197683468366438402	681	Yarrow	https://www.facebook.com/story.php?story_fbid=10157620876825833&amp;id=568930832 	und	1	0	0		2019-11-22T01:09:25.000Z	604	1,480				
1197330693442981888	681	Yarrow	https://www.instagram.com/p/B5G_Bxwnscc/?igshid=1wp4gk4lrosc3 https://www.facebook.com/story.php?story_fbid=10157618111820833&amp;id=568930832 	und	0	0	0		2019-11-21T01:47:37.000Z	604	1,480				
1196566128702763008	681	Yarrow	https://www.instagram.com/p/B4_V8VnDUJG/?igshid=1n3f8bc5ch3nl https://www.facebook.com/story.php?story_fbid=10157611513405833&amp;id=568930832 	und	0	0	0		2019-11-18T23:09:30.000Z	604	1,480				
1190450757998395392	681	Yarrow	Trauma Is Not Your Fault, But Healing Is Your Responsibility 	en	0	0	0		2019-11-02T02:09:12.000Z	604	1,480				
1184508436316336129	681	Yarrow	https://www.facebook.com/story.php?story_fbid=10157507629405833&amp;id=568930832 	und	0	0	0		2019-10-16T16:36:32.000Z	604	1,480				
1183946017693151232	681	Yarrow	In honor of mental health awareness here is the story of my 15 year old self: At the time this photo was taken, I was already acting out OCD rituals before bed and in the shower. The routine, the... https://www.facebook.com/story.php?story_fbid=10157501084305833&amp;id=568930832 	en	0	0	0		2019-10-15T03:21:41.000Z	604	1,480				
1178668436689428480	681	Yarrow	Research Shows Nutrition is Much Better at Improving Mental Health Than Prescription Medication 	en	0	0	0		2019-09-30T13:50:28.000Z	604	1,480				
1176326122876915714	681	Yarrow	https://www.instagram.com/p/B2xwlt6juA0/?igshid=1o4d7lr294s8 https://www.facebook.com/story.php?story_fbid=10157440303045833&amp;id=568930832 	und	0	0	0		2019-09-24T02:42:57.000Z	604	1,480				
1176209660707246083	681	Yarrow	THIS is soooooo inspiring!!!!!!!!!! 	en	0	0	0		2019-09-23T19:00:10.000Z	604	1,480				
1174914250885615616	681	Yarrow	https://www.facebook.com/story.php?story_fbid=10157430067075833&amp;id=568930832 	und	0	0	0		2019-09-20T05:12:40.000Z	604	1,480				
1173598772292661248	681	Yarrow	https://www.facebook.com/story.php?story_fbid=10157420895115833&amp;id=568930832 	und	0	0	0		2019-09-16T14:05:26.000Z	604	1,480				
1173425304565637121	681	Yarrow	https://www.facebook.com/story.php?story_fbid=10157419876855833&amp;id=568930832 	und	0	0	0		2019-09-16T02:36:08.000Z	604	1,480				
1173423951747440640	681	Yarrow	https://www.facebook.com/story.php?story_fbid=10157419867835833&amp;id=568930832 	und	0	0	0		2019-09-16T02:30:45.000Z	604	1,480				
1172720220303216640	681	Yarrow	https://66.media.tumblr.com/3709f682a81c4bb7fab0e64d41790751/tumblr_pn5y2jPJVL1r01e42_1280.jpg 	und	0	0	0		2019-09-14T03:54:23.000Z	604	1,480				
1172320668077084678	681	Yarrow	https://www.instagram.com/p/B2SvNaUDyNH/?igshid=1khyj9qx8yli5 https://www.facebook.com/story.php?story_fbid=10157412158420833&amp;id=568930832 	und	0	0	0		2019-09-13T01:26:42.000Z	604	1,480				
1170927053132181504	681	Yarrow	Vietnamese Man Makes Biodegradable Straws From Wild Grass to Solve World’s Plastic Problem https://www.theepochtimes.com/vietnamese-man-makes-biodegradable-straws-from-wild-grass-to-solve-worlds-plastic-problem_2865881.html 	en	0	0	0		2019-09-09T05:08:58.000Z	604	1,480				
1169758330467868672	681	Yarrow	https://www.facebook.com/story.php?story_fbid=10157394325460833&amp;id=568930832 	und	0	0	0		2019-09-05T23:44:53.000Z	604	1,480				
1168136046267260929	681	Yarrow	https://www.instagram.com/p/B11DsfUj8Ez/?igshid=v9p3no7lr33w https://www.facebook.com/story.php?story_fbid=10157383073295833&amp;id=568930832 	und	0	0	0		2019-09-01T12:18:31.000Z	604	1,480				
1167256442711289856	681	Yarrow	https://www.facebook.com/story.php?story_fbid=10157377291450833&amp;id=568930832 	und	0	0	0		2019-08-30T02:03:17.000Z	604	1,480				
1166115519738650625	681	Yarrow	https://www.instagram.com/p/B1o4IkundP7/?igshid=dor5kh1qmfco https://www.facebook.com/story.php?story_fbid=10157369569790833&amp;id=568930832 	und	0	0	0		2019-08-26T22:29:39.000Z	604	1,480				
1164990496793645056	681	Yarrow	The Amazon is burning because the world eats so much meat 	en	0	0	0		2019-08-23T19:59:13.000Z	604	1,480				
1164313722082529281	681	Yarrow	https://www.facebook.com/story.php?story_fbid=10157356505200833&amp;id=568930832 	und	0	0	0		2019-08-21T23:09:57.000Z	604	1,480				
1164313624170631170	681	Yarrow	https://www.instagram.com/p/B1cZIbVnC-q/?igshid=1e6nrxtlm0ccr https://www.facebook.com/story.php?story_fbid=10157356504470833&amp;id=568930832 	und	0	0	0		2019-08-21T23:09:34.000Z	604	1,480				
1163225127301132288	681	Yarrow	https://www.instagram.com/p/B1UrTpEn30R/?igshid=7hp0qlkqrbsg https://www.facebook.com/story.php?story_fbid=10157349186615833&amp;id=568930832 	und	0	0	0		2019-08-18T23:04:16.000Z	604	1,480				
1162543532911058944	681	Yarrow	West Virginia coal miners are getting retrained as beekeepers to boost the economy and the environment 	en	0	0	0		2019-08-17T01:55:51.000Z	604	1,480				
1161842572211445760	681	Yarrow	Prison In Indiana Accepts Shelter Cats And They Transform Prisoners Lives 	en	0	0	0		2019-08-15T03:30:29.000Z	604	1,480				
1160650546510028802	681	Yarrow	I always knew I loved him, ever since he was on Growing Pains!!!! 	en	0	0	0		2019-08-11T20:33:48.000Z	604	1,480				
1159656767292346370	681	Yarrow	Basically!!! https://www.facebook.com/story.php?story_fbid=10157323465940833&amp;id=568930832 	en	0	0	0		2019-08-09T02:44:53.000Z	604	1,480				
1159162130106654722	681	Yarrow	Please, read, share and consider... https://www.facebook.com/story.php?story_fbid=10157319470725833&amp;id=568930832 	en	0	0	0		2019-08-07T17:59:22.000Z	604	1,480				
1158407782145638401	681	Yarrow	https://www.facebook.com/story.php?story_fbid=10157313784995833&amp;id=568930832 	und	0	0	0		2019-08-05T16:01:52.000Z	604	1,480				
1158407708539854849	681	Yarrow	Black Beekeepers Are Transforming Detroit’s Vacant Lots Into Bee Farms 	en	0	0	0		2019-08-05T16:01:34.000Z	604	1,480				
1158250467547385856	681	Yarrow	For those who were interested in reading my thesis: Instagram, addiction, and spirituality: Remaining human in a social media world. Her it is: https://pqdtopen.proquest.com/doc/2267354022.html?FMT=ABS https://pqdtopen.proquest.com/doc/2267354022.html?FMT=ABS 	en	0	0	0		2019-08-05T05:36:45.000Z	604	1,480				
1157990834962358272	681	Yarrow	https://www.facebook.com/story.php?story_fbid=10157310568410833&amp;id=568930832 	und	0	0	0		2019-08-04T12:25:04.000Z	604	1,480				
1157049598566969344	681	Yarrow	THIS!!! Please donate to her campaign and keep the conversation alive... ((🙏🏻)) ((🙏🏻)) 	en	0	0	0		2019-08-01T22:04:55.000Z	604	1,480				
1155975028111884288	681	Yarrow	As of today, humans have used more resources than Planet Earth can regenerate in a year 	en	0	0	0		2019-07-29T22:54:58.000Z	604	1,480				
1155198338666565634	681	Yarrow	https://www.facebook.com/story.php?story_fbid=10157291058105833&amp;id=568930832 	und	0	0	0		2019-07-27T19:28:41.000Z	604	1,480				
1153842956941615104	681	Yarrow	So TRUE!!! Except, it's not really about saving the planet, the planet will survive, it's about saving the life on the planet!!!!!!!! 	en	0	0	0		2019-07-24T01:42:52.000Z	604	1,480				
1151676229524840449	681	Yarrow	THIS!!! Only love and another phenomenon will create change!!! https://app.frame.io/presentations/ca997fb4-d6f5-4f2e-8b07-c9a132373e0c 	en	0	0	0		2019-07-18T02:13:04.000Z	604	1,480				
1149455020460560384	681	Yarrow	Humanity Sleep-Walking Toward 'Mass Extinction' 	en	0	0	0		2019-07-11T23:06:47.000Z	604	1,480				
1149084393895538692	681	Yarrow	https://www.facebook.com/story.php?story_fbid=10157248388125833&amp;id=568930832 	und	0	0	0		2019-07-10T22:34:03.000Z	604	1,480				
1146390205831831552	681	Yarrow	But, really, are you okay?? https://www.facebook.com/story.php?story_fbid=10157228507850833&amp;id=568930832 	en	0	0	0		2019-07-03T12:08:18.000Z	604	1,480				
1143979771518496774	681	Yarrow	U.S. Border Patrol migrant camp from above | Pictures | Reuters 	en	0	0	0		2019-06-26T20:30:06.000Z	604	1,480				
1143584598795988994	681	Yarrow	Hey FB!!! Who do I know that lives in Boulder, Co?? 	en	0	0	0		2019-06-25T18:19:49.000Z	604	1,480				
1143352044465643520	681	Yarrow	https://www.facebook.com/story.php?story_fbid=10157207213355833&amp;id=568930832 	und	0	0	0		2019-06-25T02:55:44.000Z	604	1,480				
1143185310223949824	681	Yarrow	We cannot ignore this anymore. What are you doing today to be a more conscious human? 	en	0	0	0		2019-06-24T15:53:11.000Z	604	1,480				
1142487783736586243	681	Yarrow	Pink Floyd's David Gilmour Auctions Off 126 Guitars and Raises $21Mil for Climate Change Battle https://www.goodnewsnetwork.org/david-gilmour-auctions-126-guitars/ 	en	2	0	1		2019-06-22T17:41:28.000Z	604	1,480				
1139713178189934592	681	Yarrow	THIS!!! 	en	0	0	0		2019-06-15T01:56:11.000Z	604	1,480				
1139593080913518597	681	Yarrow	https://www.facebook.com/story.php?story_fbid=10157179809350833&amp;id=568930832 	und	0	0	0		2019-06-14T17:58:57.000Z	604	1,480				
1137179367711412224	681	Yarrow	There Is No Excuse for You to Casually Drink Bottled Water https://www.insidehook.com/article/advice/real-talk-there-is-no-excuse-for-you-to-casually-drink-bottled-water 	en	0	0	0		2019-06-08T02:07:43.000Z	604	1,480				
1136811998925209600	681	Yarrow	https://www.facebook.com/story.php?story_fbid=10157160365735833&amp;id=568930832 	und	0	0	0		2019-06-07T01:47:56.000Z	604	1,480				
1136432762704015361	681	Yarrow	“Don’t let your loyalty become your slavery.” https://www.facebook.com/story.php?story_fbid=10157157615215833&amp;id=568930832 	en	0	0	0		2019-06-06T00:40:59.000Z	604	1,480				
1136386685086896129	681	Yarrow	For anyone interested in astrology!!! Salina is amazing!!! I would take advantage of this special pay what you can rate!!! ((💕)) ((🙏🏻)) ((💕)) https://www.facebook.com/story.php?story_fbid=10157157299720833&amp;id=568930832 	en	0	0	0		2019-06-05T21:37:53.000Z	604	1,480				
1135877286866149376	681	Yarrow	This is why I love them!!! 	en	1	0	0		2019-06-04T11:53:43.000Z	604	1,480				
1134897871076122625	681	Yarrow	A part of Sean Cook’s thesis presentation. So beautiful, moving and accurate about the power of love!!! https://www.facebook.com/story.php?story_fbid=10157146426045833&amp;id=568930832 	en	0	0	0		2019-06-01T19:01:52.000Z	604	1,480				
1133880108236857344	681	Yarrow	Self-care isn't enough. We need community care to thrive. https://mashable.com/article/community-care-versus-self-care/ 	en	0	0	0		2019-05-29T23:37:38.000Z	604	1,480				
1130464855339806720	681	Yarrow	Farmers Are Using Flowers To Beat Back Pests Instead Of Chemicals 	en	0	0	0		2019-05-20T13:26:39.000Z	604	1,480				
1125081923213242371	681	Yarrow	What secondary purpose does your story serve? https://www.facebook.com/yarrowbucans/posts/10157077515115833 	en	0	0	0		2019-05-05T16:56:48.000Z	604	1,480				
1124768307901554693	681	Yarrow	https://www.facebook.com/story.php?story_fbid=10157075219395833&amp;id=568930832 	und	0	0	0		2019-05-04T20:10:36.000Z	604	1,480				
1122858703592546305	681	Yarrow	https://www.facebook.com/story.php?story_fbid=10157060812660833&amp;id=568930832 	und	0	0	0		2019-04-29T13:42:31.000Z	604	1,480				
1121825597410430977	681	Yarrow	https://www.facebook.com/yarrowbucans/posts/10157053264320833 	und	0	0	0		2019-04-26T17:17:19.000Z	604	1,480				
1120515315715182592	681	Yarrow	https://www.facebook.com/story.php?story_fbid=10157044117220833&amp;id=568930832 	und	0	0	0		2019-04-23T02:30:44.000Z	604	1,480				
1120139135749165056	681	Yarrow	https://www.facebook.com/story.php?story_fbid=10157041295030833&amp;id=568930832 	und	0	0	0		2019-04-22T01:35:55.000Z	604	1,480				
1112555689321340929	681	Yarrow	The 12 Biggest Life Secrets Forgotten By Mankind 	en	0	0	0		2019-04-01T03:22:01.000Z	604	1,480				
1111812348061368321	681	Yarrow	Truth. https://www.facebook.com/story.php?story_fbid=10156984260910833&amp;id=568930832 	en	0	0	0		2019-03-30T02:08:14.000Z	604	1,480				
1111325920432922625	681	Yarrow	https://www.instagram.com/yarrowbucans/p/BvjVLl-lsn1/?utm_source=ig_share_sheet&amp;igshid=1s2fw92pf35rv https://www.facebook.com/story.php?story_fbid=10156980938830833&amp;id=568930832 	und	0	0	0		2019-03-28T17:55:21.000Z	604	1,480				
1110991190428651520	681	Yarrow	https://www.facebook.com/yarrowbucans/posts/10156979020885833 	und	0	0	0		2019-03-27T19:45:15.000Z	604	1,480				
1110990918461607939	681	Yarrow	https://www.facebook.com/yarrowbucans/posts/10156979018915833 	und	0	0	0		2019-03-27T19:44:10.000Z	604	1,480				
1109522935679778818	681	Yarrow	https://www.facebook.com/story.php?story_fbid=10156969860030833&amp;id=568930832 	und	0	0	0		2019-03-23T18:30:56.000Z	604	1,480				
1109157294284177409	681	Yarrow	This is really spot on and so powerful!!! 	en	0	0	0		2019-03-22T18:18:00.000Z	604	1,480				
1108526184361451521	681	Yarrow	Embarrassingly, it took me time to learn this. Sometimes, it’s still a struggle for me... https://www.facebook.com/story.php?story_fbid=10156963658060833&amp;id=568930832 	en	0	0	0		2019-03-21T00:30:12.000Z	604	1,480				
1108392417223311360	681	Yarrow	https://www.facebook.com/story.php?story_fbid=10156962681545833&amp;id=568930832 	und	0	0	0		2019-03-20T15:38:39.000Z	604	1,480				
1107107411435970560	681	Yarrow	https://www.facebook.com/yarrowbucans/posts/10156954784470833 	und	0	0	0		2019-03-17T02:32:30.000Z	604	1,480				
1106351364496596992	681	Yarrow	https://www.facebook.com/story.php?story_fbid=10156949807390833&amp;id=568930832 	und	0	0	0		2019-03-15T00:28:14.000Z	604	1,480				
1104194961799561222	681	Yarrow	Seaweed straw "looks, feels, and acts like plastic," says startup https://futurism.com/the-byte/startup-seaweed-straws-like-plastic 	en	0	0	0		2019-03-09T01:39:28.000Z	604	1,480				
1103700762448855043	681	Yarrow	https://www.facebook.com/story.php?story_fbid=10156934314070833&amp;id=568930832 	und	0	0	0		2019-03-07T16:55:42.000Z	604	1,480				
1101165744933531649	681	Yarrow	I love this woman!!! “When I was 20, 30, 40, I always had a boyfriend — always. But I have decided I’m just going to be free and follow my muse and do... https://www.rollingstone.com/music/music-features/stevie-nicks-interview-tom-petty-drag-queens-game-of-thrones-prince-801112/ 	en	0	0	0		2019-02-28T17:02:26.000Z	604	1,480				
1100952353950363648	681	Yarrow	https://www.facebook.com/story.php?story_fbid=10156915931845833&amp;id=568930832 	und	0	0	0		2019-02-28T02:54:30.000Z	604	1,480				
1095741254707511296	681	Yarrow	To watch the transformation of another, what a beautiful gift!!! Lovely interview and message, Samuel... ((🙏🏻)) 	en	0	0	0		2019-02-13T17:47:27.000Z	604	1,480				
1094096114033270790	681	Yarrow	https://www.facebook.com/yarrowbucans/posts/10156867754180833 	und	0	0	0		2019-02-09T04:50:15.000Z	604	1,480				
1087444543253942272	681	Yarrow	https://www.facebook.com/story.php?story_fbid=10156823625990833&amp;id=568930832 	und	0	0	0		2019-01-21T20:19:17.000Z	604	1,480				
1086822923292344321	681	Yarrow	Sound bath at Bode NYC tomorrow!!! Abigail’s sound journeys are truly transformative!!! https://www.facebook.com/story.php?story_fbid=10156819685830833&amp;id=568930832 	en	0	0	0		2019-01-20T03:09:11.000Z	604	1,480				
1082779649292136449	681	Yarrow	Happiest Birthday to my beautiful mom!!! I love you and am so grateful for the gift of you in my life... ((Smiling face with heart-shaped eyes)) https://www.facebook.com/yarrowbucans/posts/10156792671145833 	en	0	0	0		2019-01-08T23:22:40.000Z	604	1,480				
1072726205571444737	681	Yarrow	Why “Baby it’s Cold Outside” is about Feminism, Not Rape Culture. 	en	0	0	0		2018-12-12T05:33:52.000Z	604	1,480				
1069429251819143169	681	Yarrow	https://www.facebook.com/yarrowbucans/posts/10156708873040833 	und	0	0	0		2018-12-03T03:12:57.000Z	604	1,480				
1068492533943214080	681	Yarrow	These 15 Drawings Are An Incredible Reflection of What's Wrong With Society https://educateinspirechange.org/inspirational/art/15-drawings-incredible-reflection-whats-wrong-society/ 	en	0	0	0		2018-11-30T13:10:46.000Z	604	1,480				
1061772850141560833	681	Yarrow	((Red heart)) ((🙏🏻)) ((Star-struck)) https://www.russellbrand.com/podcast/053-dr-gabor-mate-damaged-leaders-rule-addicted-world/ 	und	0	0	0		2018-11-12T00:09:08.000Z	604	1,480				
1061670101282365445	681	Yarrow	Time for change, real, lasting, brave change!!! “The 11th of November is hence an active period for making changes in life, as well as for setting intentions or... https://www.consciousreminder.com/2018/11/08/november-11th-2018-will-be-the-most-powerful-day-in-over-a-century/ 	en	0	0	0		2018-11-11T17:20:51.000Z	604	1,480				
1061437234266681345	681	Yarrow	((Red heart)) ((Red heart)) ((Red heart)) https://www.boredpanda.com/dog-cat-travelling-cynthia-bennett-baloo-henry/ 	und	0	0	0		2018-11-11T01:55:31.000Z	604	1,480				
1061067935735779328	681	Yarrow	I love this woman!!! Thank you, Jeanne, for all that you do...&lt;3 https://www.facebook.com/yarrowbucans/posts/10156655279515833 	en	0	0	0		2018-11-10T01:28:04.000Z	604	1,480				
1060685184297779202	681	Yarrow	((Red heart)) ((Red heart)) ((Red heart)) https://www.facebook.com/story.php?story_fbid=10156652575885833&amp;id=568930832 	und	0	0	0		2018-11-09T00:07:09.000Z	604	1,480				
1059859339698192384	681	Yarrow	Gabor Mate speaking genius, as he does... ((Red heart)) 	en	0	0	0		2018-11-06T17:25:32.000Z	604	1,480				
1057416777301417985	681	Yarrow	https://www.facebook.com/story.php?story_fbid=10156631907305833&amp;id=568930832 	und	0	0	0		2018-10-30T23:39:40.000Z	604	1,480				
1053250504111915009	681	Yarrow	https://www.facebook.com/story.php?story_fbid=10156606489085833&amp;id=568930832 	und	0	0	0		2018-10-19T11:44:23.000Z	604	1,480				
1021915373673893888	681	Yarrow	https://www.facebook.com/story.php?story_fbid=10156409953950833&amp;id=568930832 	und	0	0	0		2018-07-25T00:29:46.000Z	604	1,480				
1011608811889676290	681	Yarrow	This is really IMPORTANT!!! https://www.facebook.com/story.php?story_fbid=10156342138660833&amp;id=568930832 	en	0	0	0		2018-06-26T13:55:10.000Z	604	1,480				
1010815535905460224	681	Yarrow	https://www.facebook.com/story.php?story_fbid=10156337082325833&amp;id=568930832 	und	0	0	0		2018-06-24T09:22:58.000Z	604	1,480				
1008735989551058944	681	Yarrow	FUCK YES!!! https://www.facebook.com/story.php?story_fbid=10156323276820833&amp;id=568930832 	en	0	0	0		2018-06-18T15:39:35.000Z	604	1,480				
1008735914321997824	681	Yarrow	https://www.facebook.com/story.php?story_fbid=10156323276200833&amp;id=568930832 	und	0	0	0		2018-06-18T15:39:18.000Z	604	1,480				
4617859762	711	Alysha	what comes around, goes around... 	en	5	1	6		2009-10-05T02:00:08.000Z	47	898				
4155284992	711	Alysha	Just applied for the office manager position at Twitter HQ!! Wish me luck!!! 	en	0	0	0		2009-09-21T20:55:59.000Z	47	898				
3989198511	711	Alysha	Needs a mentor in semiconductor industry...know anyone?? 	en	0	0	0		2009-09-14T21:34:13.000Z	47	898				
3174814536	711	Alysha	OMG! I am so sorry if I haven't responding back to @Alysha or direct messages. I'm still figuring out the new features on twitter. 	en	0	0	0		2009-08-07T05:49:31.000Z	47	898				
3167234301	711	Alysha	Needs a mentor in Sales 	en	0	0	0		2009-08-06T18:01:40.000Z	47	898				
3161110586	711	Alysha	Be strong...you'll get through this, Aly.. 	en	2	0	0		2009-08-06T05:00:21.000Z	47	898				
3078174850	711	Alysha	I am sad...Trent Reznor deleted his Twitter account. =( 	en	0	0	0		2009-08-02T00:06:07.000Z	47	898				
2649396352	711	Alysha	It's nice to be awake at 4am and looking at open job postings. What a life of the recent unemployed. 	en	0	0	0		2009-07-15T11:11:31.000Z	47	898				
2396581030	711	Alysha	Just want to say "I love you Jack and you're hawt!!!!!" 	en	0	0	0		2009-06-30T01:14:16.000Z	47	898				
2396534808	711	Alysha	Hi people..I'm back! 	en	0	0	0		2009-06-30T01:10:34.000Z	47	898				
896203270	711	Alysha	Love you all...over and out for now 	en	0	0	0		2008-08-23T03:41:01.000Z	47	898				
896201304	711	Alysha	Sad that I can't get twitter updates on my new phone plan. Gotta check twitter stuff online now. =( 	en	0	0	0		2008-08-23T03:37:48.000Z	47	898				
872753895	711	Alysha	For sure dawn! 	en	0	0	0		2008-07-30T16:49:39.000Z	47	898				
872750037	711	Alysha	Let me know if you are, dawn. Maybe we could have dinner. =) 	en	0	0	0		2008-07-30T16:45:52.000Z	47	898				
872725337	711	Alysha	Dawn, drive safely and good luck with everything! 	en	0	0	0		2008-07-30T16:20:38.000Z	47	898				
872663118	711	Alysha	Dawn, you left CA already? 	en	0	0	0		2008-07-30T15:17:43.000Z	47	898				
823726337	711	Alysha	My mother is fuckin crazy. 	en	0	0	0		2008-05-31T01:16:02.000Z	47	898				
815484751	711	Alysha	I miss my hunny.. 	en	0	0	1		2008-05-20T03:43:49.000Z	47	898				
811158154	711	Alysha	Gas price in the Bay area is $4.01 	en	0	0	0		2008-05-14T15:02:02.000Z	47	898				
786202548	711	Alysha	@kenneththeo hello! 	en	0	0	0		2008-04-10T03:07:47.000Z	47	898				
786184318	711	Alysha	Hi guys!!!! Long time no twitter!!! 	en	0	0	0		2008-04-10T02:29:56.000Z	47	898				
786160954	711	Alysha	Do I still have my twitter friends?? 	en	0	0	0		2008-04-10T01:42:52.000Z	47	898				
767184328	711	Alysha	Trent Reznor is looking very hot...=P 	en	0	0	0		2008-03-05T19:20:14.000Z	47	898				
663176412	711	Alysha	Good morning everyone! Haven't been twittering lately. How is everyone? 	en	0	0	0		2008-01-31T16:55:12.000Z	47	898				
663104502	711	Alysha	Good morning everyone! Haven't twittered in a while but I hope to change that soon. 	en	0	0	0		2008-01-31T16:34:48.000Z	47	898				
599010982	711	Alysha	I'm really excited that I passed my exam for my Coding Credentials!! 	en	0	0	0		2008-01-14T21:04:16.000Z	47	898				
558907572	711	Alysha	My mother just gave me an attitude 	en	0	0	0		2008-01-03T16:49:07.000Z	47	898				
535400232	711	Alysha	Happy Holidays everyone! I hope everyone got what they wanted for Christmas. 	en	0	0	0		2007-12-26T17:27:16.000Z	47	898				
494468442	711	Alysha	anyone in the san jose/milpitas area who wants to meet for lunch???=) 	en	0	0	0		2007-12-12T18:37:59.000Z	47	898				
472807482	711	Alysha	Thanks dawn. I hope you feel better! 	en	0	0	0		2007-12-05T20:09:24.000Z	47	898				
472794212	711	Alysha	Eating by my lonesome in a Vietnamese restaurant 	en	0	0	0		2007-12-05T20:03:51.000Z	47	898				
461896232	711	Alysha	Jenny is always jenny. A bitch! 	en	0	0	0		2007-12-02T04:25:43.000Z	47	898				
433411192	711	Alysha	I have to say EEWWWW! 	en	0	0	0		2007-11-21T23:26:21.000Z	47	898				
420404972	711	Alysha	craving for some tikki masala now... 	en	0	0	0		2007-11-17T00:11:15.000Z	47	898				
360494292	711	Alysha	Thanks Jess! I really appreciate that. =) 	en	0	0	0		2007-10-24T16:43:31.000Z	47	898				
338392802	711	Alysha	AAWW.... Just saw a younger version of Trent reznor at my gym! 	en	0	0	0		2007-10-15T23:47:54.000Z	47	898				
332114492	711	Alysha	Orlando Bloom drives the same car as I do! A 2003 black Toyota Matrix! 	en	0	0	0		2007-10-13T02:03:07.000Z	47	898				
298649482	711	Alysha	I can't sleep and got so many things running in my head right now. 	en	0	0	0		2007-09-28T10:01:16.000Z	47	898				
295362702	711	Alysha	having a beer at work all by myself 	en	0	0	0		2007-09-26T22:32:03.000Z	47	898				
283355802	711	Alysha	Can't sleep right now. Got too much on my mind. 	en	0	0	0		2007-09-21T07:14:59.000Z	47	898				
277236942	711	Alysha	Hunger sets in and it's not lunch time! 	en	0	0	0		2007-09-18T17:50:09.000Z	47	898				
271440682	711	Alysha	Coolio! Thanks crystal. Could you send me a ponce invite? 	en	0	0	0		2007-09-16T00:48:00.000Z	47	898				
271303302	711	Alysha	Minger! Please send me an invite!! 	en	0	0	0		2007-09-15T22:55:15.000Z	47	898				
268133452	711	Alysha	Can't sleep. Got too much on my mind. =( 	en	0	0	0		2007-09-14T10:32:05.000Z	47	898				
253709322	711	Alysha	priceless 	en	0	0	0		2007-09-07T21:52:03.000Z	47	898				
253709242	711	Alysha	drinking beer at my work desk 	en	1	0	0		2007-09-07T21:51:59.000Z	47	898				
253685122	711	Alysha	yay! We have beer for our meeting today! 	en	0	0	0		2007-09-07T21:38:28.000Z	47	898				
250459862	711	Alysha	My lower back is hurting really bad 	en	0	0	0		2007-09-06T04:31:55.000Z	47	898				
240128802	711	Alysha	Saw a guy walking by my office with a huge stuffed banana on his back.. 	en	1	0	0		2007-08-31T23:44:09.000Z	47	898				
240042642	711	Alysha	realized that there are no pictures of my unhappy moments...hmm Something to document during those moments 	en	0	0	0		2007-08-31T22:30:54.000Z	47	898				
240020762	711	Alysha	I like using Flickr. It's a picture diary for me. It shows pictures of the happy times. 	en	0	0	0		2007-08-31T22:12:47.000Z	47	898				
239640242	711	Alysha	debating if I should stay in tonight to do some homework or going out tonight.. 	en	0	0	0		2007-08-31T17:35:35.000Z	47	898				
237385662	711	Alysha	just two more days til the weekend starts! 	en	0	0	0		2007-08-30T17:07:10.000Z	47	898				
235753642	711	Alysha	eating ice cream in my gym clothes before heading to the gym 	en	0	0	0		2007-08-29T23:33:26.000Z	47	898				
227340492	711	Alysha	OMG!!!! I look like a Hispanic wannabe Asian tinibopper! 	en	0	0	0		2007-08-25T22:23:54.000Z	47	898				
227192112	711	Alysha	Getting highlights in my hair. I haven't dyed my hair for over three years now. 	en	0	0	0		2007-08-25T20:17:43.000Z	47	898				
211198682	711	Alysha	Feeling very insecure right now. Not happy with some things.. 	en	0	0	0		2007-08-17T16:16:44.000Z	47	898				
198970022	711	Alysha	"Squeaky wheel gets the grease" I wonder if people gets annoyed with "squeaky" people 	en	0	0	0		2007-08-10T20:54:48.000Z	47	898				
198913802	711	Alysha	Can't wait for this day to end. It's been a very busy week. 	en	0	0	0		2007-08-10T20:13:56.000Z	47	898				
198660182	711	Alysha	feeling a bit scared right now. 	en	0	0	0		2007-08-10T17:17:04.000Z	47	898				
198540192	711	Alysha	Today will be a happy day. Today will be a happy day. 	en	0	0	0		2007-08-10T16:09:53.000Z	47	898				
188443062	711	Alysha	happy sunday everyone! 	en	0	0	0		2007-08-05T20:21:38.000Z	47	898				
182819732	711	Alysha	in a funk and don't even know why.. 	en	0	0	0		2007-08-02T17:16:31.000Z	47	898				
172193562	711	Alysha	unhappy right now 	en	0	0	0		2007-07-27T23:19:37.000Z	47	898				
168141662	711	Alysha	MmMm...Salt and vinager potato chips.. 	en	0	0	0		2007-07-25T18:19:36.000Z	47	898				
155994662	711	Alysha	Eating my oatmeal with salt and vinegar potato chips.. 	en	0	0	0		2007-07-18T15:43:25.000Z	47	898				
137724452	711	Alysha	yay! have a nice lunch with sis. It was really good to seeing her =) 	en	0	0	0		2007-07-06T20:27:20.000Z	47	898				
137339102	711	Alysha	Good morning people! Happy Friday!! 	en	0	0	0		2007-07-06T15:13:16.000Z	47	898				
135789682	711	Alysha	Happy belated fourth of july everyone! 	en	0	0	0		2007-07-05T16:03:59.000Z	47	898				
125688232	711	Alysha	why couldn't my bf pause his video game when I call him?? HATE THAT!! 	en	0	0	0		2007-06-29T04:32:30.000Z	47	898				
123180532	711	Alysha	Good morning everyone! Today will be a good day I hope... 	en	0	0	0		2007-06-27T15:23:25.000Z	47	898				
115644212	711	Alysha	Now twitter cut off part of my message. =( 	en	0	0	0		2007-06-22T04:35:19.000Z	47	898				
115641622	711	Alysha	Not a good day. Throat hurts. My mom blew up on me just now. BF thinks I can't make it through step class with weights. Who else thinks poor 	en	0	0	0		2007-06-22T04:32:47.000Z	47	898				
113194222	711	Alysha	Nudging Wacas back! hehe 	tl	0	0	0		2007-06-20T15:45:44.000Z	47	898				
87008272	711	Alysha	I gave my cat up to the Humane Society last night. I miss Pookie already...=( 	en	0	0	0		2007-06-01T16:20:12.000Z	47	898				
84272782	711	Alysha	oops, I meant she nudged me yesterday 	en	0	0	0		2007-05-30T17:32:39.000Z	47	898				
84271632	711	Alysha	Realized that Crystal nudged yesterday..hehe 	en	0	0	0		2007-05-30T17:31:41.000Z	47	898				
78582572	711	Alysha	At my friends graduation and I'm so proud of her! 	en	0	0	0		2007-05-25T23:17:27.000Z	47	898				
78458582	711	Alysha	In Roseville CA... 	en	0	0	0		2007-05-25T20:41:15.000Z	47	898				
78080552	711	Alysha	Good morning everyone! Happy belated bday James! 	en	0	0	0		2007-05-25T14:34:34.000Z	47	898				
73480372	711	Alysha	The Bachelor picks Tessa!=) 	en	0	0	0		2007-05-22T05:45:24.000Z	47	898				
73473812	711	Alysha	Watching the Bachelor show right now. Tonight is the night whom he picks which chica to be with. 	en	0	0	0		2007-05-22T05:37:16.000Z	47	898				
73134062	711	Alysha	Its my birthday today and I'm stuck in class. *sniff* 	en	0	0	0		2007-05-21T23:24:04.000Z	47	898				
67255992	711	Alysha	got bagels for all my coworkers this morning. =) 	en	0	0	0		2007-05-17T15:50:34.000Z	47	898				
57893332	711	Alysha	Craving for something sweet but must resist! 	en	0	0	0		2007-05-09T23:53:28.000Z	47	898				
57553412	711	Alysha	Listening to Mylo again.. 	en	0	0	0		2007-05-09T17:51:03.000Z	47	898				
55481352	711	Alysha	good morning everyone! time for me to start weeding through my work emails! yay! 	en	0	0	0		2007-05-08T16:04:11.000Z	47	898				
48835932	711	Alysha	Anyone from San Francsico knows about the Tamale Lady?? 	en	0	0	0		2007-05-03T19:14:42.000Z	47	898				
48668702	711	Alysha	I've been corrected on my spelling. It's sandwich and not sanwhich. 	en	0	0	0		2007-05-03T16:26:45.000Z	47	898				
48666722	711	Alysha	damn it! I'm craving for this sanwhich I got in San Francisco and I"m in San Jose right now =( 	en	0	0	0		2007-05-03T16:24:51.000Z	47	898				
48017522	711	Alysha	Food coma... 	en	0	0	0		2007-05-03T03:33:43.000Z	47	898				
46557412	711	Alysha	ah...the familiar music from the ice cream truck. Summer is coming! 	en	0	0	0		2007-05-02T01:00:15.000Z	47	898				
46205912	711	Alysha	Listening to this one Mylo track about some dude who got on his bike and rode away from bad things in his life 	en	0	0	0		2007-05-01T18:26:10.000Z	47	898				
42424442	711	Alysha	now that good for nothing lazy ass coworker is kissing my ass for doing the work he's suppose to do. 	en	0	0	0		2007-04-27T22:39:29.000Z	47	898				
42399512	711	Alysha	good for nothing lazy ass coworkers @!#?! 	en	0	0	0		2007-04-27T22:08:18.000Z	47	898				
42038412	711	Alysha	Oh my gawd! I'm in a food coma right now.. 	en	0	0	0		2007-04-27T16:22:10.000Z	47	898				
42009182	711	Alysha	Damn it...I can't type today too. Sorry guys for the spelling mistakes =P 	en	0	0	0		2007-04-27T15:56:40.000Z	47	898				
42008422	711	Alysha	Got a nice sheese bagel from my coworker. Damn..That was the best chesse bagel I ever had... 	en	0	0	0		2007-04-27T15:56:05.000Z	47	898				
41035892	711	Alysha	really not feeling too good. 	en	0	0	0		2007-04-26T19:41:18.000Z	47	898				
40908322	711	Alysha	not feeling to good. Thinking about leaving work early 	en	0	0	0		2007-04-26T17:19:57.000Z	47	898				
1292967348773834753	747	thepartycow	If you were wondering why President Drink Bleach has botched the response for 7 straight months: In 1917 "the great pandemic certainly was a terrible thing where they lost anywhere from 50 to 150 million people. Probably ended the second world war. All the soldiers were sick." 	en	6003	697	3099	AndrewBatesNC	2020-08-10T23:33:32.000Z	2,525	4,700		blob:https://twitter.com/77ca2b88-6cee-417e-a9da-83f131c111c6	https://pbs.twimg.com/ext_tw_video_thumb/1292965968986214401/pu/img/qXeixkwS4SVHfyXB.jpg	
1292782215756120065	747	thepartycow	Ouch. 	en	113221	4530	59049	ProjectLincoln	2020-08-10T11:17:53.000Z	2,525	4,700		blob:https://twitter.com/44f407e1-a30b-449b-9e8e-5a8dd084817c	https://pbs.twimg.com/ext_tw_video_thumb/857059859530895360/pu/img/l3r404UsASo4-PmX.jpg	
1290496882347618304	747	thepartycow	full transcript of @jonathanvswan &amp; Trump exchange on John Lewis 	en	2713	240	1716	JesseLehrich	2020-08-04T03:56:47.000Z	2,525	4,700				https://pbs.twimg.com/media/EejEELGU8AEScLC?format=png&amp;name=360x360
1290482101440012291	747	thepartycow	So proud of this. We can continue to do better in all forms of diversity but we are making great strides. 	en	8	0	0		2020-08-04T02:58:03.000Z	2,525	4,700				
1290307510608396288	747	thepartycow	I love @Alanis : 	en	0	0	0		2020-08-03T15:24:17.000Z	2,525	4,700				
1289941035276103680	747	thepartycow	This piece about a rural school district in Arizona is brutal. I feel for every superintendent and principal nation wide that is faced with these decisions. 	en	0	0	0		2020-08-02T15:08:03.000Z	2,525	4,700				
1289410966136864770	747	thepartycow			143899	199	26356	rachel	2020-08-01T04:01:45.000Z	2,525	4,700				https://pbs.twimg.com/media/EeTocGvWsAI5kke?format=jpg&amp;name=360x360
1289392844524773376	747	thepartycow	In an alternative universe, they have taco trucks on every corner. 	en	3	2	0		2020-08-01T02:49:44.000Z	2,525	4,700				
1288246690223448066	747	thepartycow	For hospitals, digital is no longer differentiation. It is survival. 	en	20	0	6	marxtango	2020-07-28T22:55:20.000Z	2,525	4,700				
1288532608301891584	747	thepartycow	A special gift to Putin and a blow to NATO. ⁦ @realDonaldTrump ⁩ is not playing on America’s team. US to withdraw nearly 12,000 troops from Germany in move that will cost billions and take years - CNNPolitics 	en	14673	1335	8329	AmbassadorRice	2020-07-29T17:51:28.000Z	2,525	4,700				
1288245713126612993	747	thepartycow	Finally 	en	2	1	0		2020-07-28T22:51:27.000Z	2,525	4,700				
1288165527681224707	747	thepartycow	So incredibly proud of this! @Geneia 's commitment to client success is unparalleled - it's our mission to help HCOs successfully navigate their journey to value-based care and this is just further evidence of the hard work and determination our #FacesofGeneia put forth each day. 	en	10	0	3	HSLavoie	2020-07-28T17:32:49.000Z	2,525	4,700				
1288158369765822465	747	thepartycow	I think it is fairly dangerous to have the default permission for guest (single or multi-channel) to be able to create private channels. Shouldn't the _default_ setting be to not allow? 	en	0	0	0		2020-07-28T17:04:22.000Z	2,525	4,700				
1287579643558662145	747	thepartycow	I just colored @iammollywalsh 's hair. I have 30 minutes for the color to set and then we wash it out. In other words, I have 30 minutes until I find out if I am still married. Thoughts and prayers and such, please. 	en	14	4	0		2020-07-27T02:44:43.000Z	2,525	4,700				
1287557718169882633	747	thepartycow	I just taught our 9 &amp; 7 year old this song. @iammollywalsh is significantly less than thrilled with me. I'm really proud of how their voices are developing. 	en	4	1	0		2020-07-27T01:17:36.000Z	2,525	4,700				
1287324713170026496	747	thepartycow	This fella has it right: 	en	45085	845	24374	donwinslow	2020-07-26T09:51:43.000Z	2,525	4,700		blob:https://twitter.com/4cdb1f5d-3943-449f-9001-08d11f884119	https://pbs.twimg.com/ext_tw_video_thumb/1287282563518566400/pu/img/3Ffj5YL1QgboOwRM.jpg	
1286752639988965377	747	thepartycow	Bravo to @patmcclellan__c ! BRAVO! 	it	2	0	0		2020-07-24T19:58:30.000Z	2,525	4,700				
1286703720982511621	747	thepartycow	The best political ad of all time. 	en	8	0	0		2020-07-24T16:44:07.000Z	2,525	4,700				
1286493074911375361	747	thepartycow	This is awesome and amazing. 	en	5	0	0		2020-07-24T02:47:05.000Z	2,525	4,700				
1286415962498117632	747	thepartycow	Trump is canceling part of his convention because of the threat posed by the virus while also pushing schools to reopen at the same time. 	en	72292	2775	18453	Acosta	2020-07-23T21:40:40.000Z	2,525	4,700				
1286439700958453763	747	thepartycow	We need a president who listens to someone other than himself. 	en	214385	17791	31547	JoeBiden	2020-07-23T23:15:00.000Z	2,525	4,700				
1286353811477540865	747	thepartycow	This is one of the most important speeches ever delivered on the floor of The House of Representatives. Thank you @AOC for your bravery and speaking truth to power. Please watch all of this. Men especially. 	en	5372	82	2486	MichaelSkolnik	2020-07-23T17:33:42.000Z	2,525	4,700		blob:https://twitter.com/a4b64943-8574-40e6-a31d-0fa997de0bac	https://pbs.twimg.com/media/EdnpG4JWsAAXhnu.jpg	
1286390646375292928	747	thepartycow	Comet NEOWISE timelapse shot from Mt. Tamalpais, CA on 6/22 as the fog rolls below. A space station flyby, shooting stars and planes in the mix as well. Get out tonight and see it! #Neowise #timelapse #comet #Astrophotography #SonyAlpha7SII @SonyAlpha @VisitMarin @reel23films 	en	9	2	5	jeanpaulrose	2020-07-23T20:00:04.000Z	2,525	4,700		blob:https://twitter.com/e0a19e91-e1a8-4e67-91d7-b618c5d3580c	https://pbs.twimg.com/ext_tw_video_thumb/1286389552332959744/pu/img/h7a7yg79nnvwneMH.jpg	
1286305397062606848	747	thepartycow	I'll put money on Trump starting to send messages over the mobile emergency alert system before the election. 	en	1	0	0		2020-07-23T14:21:19.000Z	2,525	4,700				
1286099107447296001	747	thepartycow	"Person, woman, man, camera, TV" - Trump 2020 	en	10424	1300	4936	JasonSCampbell	2020-07-23T00:41:36.000Z	2,525	4,700		blob:https://twitter.com/7ce0016d-a4c0-4fb8-bd32-76722353e135	https://pbs.twimg.com/ext_tw_video_thumb/1286098926039453696/pu/img/GX9BkS5qrud-lSO0.jpg	
1285738001004482561	747	thepartycow	Today on TV, the Deputy Director of the federal paramilitary force in #PDX discussed the infamous van video. He described a textbook example of an unconstitutional arrest. But... he doesn’t seem to know it. That is a BIG PROBLEM. Let’s unpack this. It’s important. (thread) 	en	40824	612	24530	AndrewMCrespo	2020-07-22T00:46:41.000Z	2,525	4,700				
1285628351957348352	747	thepartycow	Last night my friend, chair of History Dpt. @lewisandclark , was shot in the head by Trump's goons. If you know Mo, you know she is the most peaceful protestor one can imagine. As an act of solidarity, I ask that all of you who have stayed home to get out on the street tonight. 	en	7975	372	4090	elliottyoungpdx	2020-07-21T17:30:59.000Z	2,525	4,700				https://pbs.twimg.com/media/Edd4J4XUMAExltg?format=jpg&amp;name=360x360
1285427135746764800	747	thepartycow	Moms sing lullaby “hands up please don’t shoot me” 	en	37377	1014	18073	MrOlmos	2020-07-21T04:11:25.000Z	2,525	4,700		blob:https://twitter.com/d2a796cc-6ba7-4783-b88a-8fe0e7eadc15	https://pbs.twimg.com/ext_tw_video_thumb/1285427031371419649/pu/img/aYy8LrPb6RszkLsk.jpg	
1285408655421186049	747	thepartycow	Corona virus vaccine scientist. 	it	6	0	0		2020-07-21T02:57:59.000Z	2,525	4,700				
1285404483720077312	747	thepartycow	If you are looking for @xeni you can find her @xeni_j for the time-being. 	en	38	5	21	jlw	2020-07-21T02:41:25.000Z	2,525	4,700				
1284959287748567040	747	thepartycow	So to review, based on his own accounts, the President has taken multiple cognition tests for dementia during his presidency, finds them "very hard" and says doctors have professed "great surprise" he was able to answer all the questions. 	en	44656	585	9402	joshtpm	2020-07-19T21:12:22.000Z	2,525	4,700				
1285032875360911360	747	thepartycow	This is fucked up beyond all recognition. 	en	3	1	0		2020-07-20T02:04:46.000Z	2,525	4,700				
1285031237774708736	747	thepartycow	A real warning that this thread may twist your brain. 	en	1	1	0		2020-07-20T01:58:16.000Z	2,525	4,700				
1285030528668884994	747	thepartycow	Virus don't care; virus just wants warm mucous. The Darwin Awards are really going to have a ton of candidates this year. 	en	2	0	0		2020-07-20T01:55:27.000Z	2,525	4,700				
1284935511371583488	747	thepartycow	Democracy. Tyranny. 	pl	40538	174	12655	ACLU	2020-07-19T19:37:53.000Z	2,525	4,700				https://pbs.twimg.com/media/EdUCBm9XoAc9kxr?format=jpg&amp;name=240x240 https://pbs.twimg.com/media/EdUCBnAXsAEQ4X3?format=jpg&amp;name=240x240
1284874737630556160	747	thepartycow	These appear to be federal officers. Hard to imagine a reasonable justification for this behavior. My man in the sweatshirt about to have a a major motion picture deal for remakes of Unbreakable. 	en	243	9	78	DrPhilGoff	2020-07-19T15:36:23.000Z	2,525	4,700				
1284686182882869250	747	thepartycow	It’d be one thing if he was a terrible person yet ruthlessly competent. But he may be the worst person ever to be President AND the worst at the job. 11/03/20. 	en	60109	724	8965	davidplouffe	2020-07-19T03:07:08.000Z	2,525	4,700				
1284685280335855616	747	thepartycow	Marco Rubio is an American hero. 	es	15157	147	984	birbigs	2020-07-19T03:03:33.000Z	2,525	4,700				https://pbs.twimg.com/media/EdQeZgpX0AAkvVs?format=jpg&amp;name=360x360
1284328531246215173	747	thepartycow	Both John Lewis and C.T. Vivian passed away on the same day. Both spent their lives fighting to make America a better place. Their lives, and loss, will be felt for generations. 	en	31552	63	14458	BritniDWrites	2020-07-18T03:25:58.000Z	2,525	4,700				https://pbs.twimg.com/media/EdLZ_GTVcAAYVPO?format=jpg&amp;name=240x240 https://pbs.twimg.com/media/EdLZ_gjUMAMCNNX?format=jpg&amp;name=240x240
1284334491583025152	747	thepartycow			1291	11	220	TerryMoran	2020-07-18T03:49:39.000Z	2,525	4,700				https://pbs.twimg.com/media/EdLfaZlXYAApxJo?format=jpg&amp;name=360x360
1284344106680897536	747	thepartycow	https://www.newyorker.com/news/daily-comment/the-ongoing-struggle-of-john-lewis 	und	63293	249	12038	PaoloUggetti	2020-07-18T04:27:51.000Z	2,525	4,700				https://pbs.twimg.com/media/EdLoKFnVAAAP_co?format=jpg&amp;name=360x360
1284334990243713024	747	thepartycow	"History will not be kind to us. So you have a moral obligation, a mission and a mandate, to speak up, speak out and get in good trouble. You can do it. You must do it. Not just for yourselves but for generations yet unborn." - John Lewis, to Lawrence University's 2015 class. RIP 	en	133	2	43	JasonHirschhorn	2020-07-18T03:51:38.000Z	2,525	4,700				https://pbs.twimg.com/media/EdLf3XyU8AAs3mG?format=jpg&amp;name=360x360
1284331782435819520	747	thepartycow	#GoodTrouble 	und	14929	118	2171	PreetBharara	2020-07-18T03:38:53.000Z	2,525	4,700				https://pbs.twimg.com/media/EdLc8txXoAEIuKG?format=jpg&amp;name=240x240 https://pbs.twimg.com/media/EdLc8tyXgAE9yI4?format=jpg&amp;name=240x240
1284333096276566021	747	thepartycow	The best way to honor the extraordinary life of @repjohnlewis is to use our votes to drive the racists, the liars, the con artists and the criminals out of every office, from the county courthouse to the White House. #noexcuses #VoteNov3rd (h/t @Acosta ) 	en	1139	26	307	waltmossberg	2020-07-18T03:44:06.000Z	2,525	4,700				
1284336370761101313	747	thepartycow	RIP John Lewis. 	cy	2	0	0		2020-07-18T03:57:07.000Z	2,525	4,700				
1284273569405579265	747	thepartycow	COVID is always deploying on a Friday. 	en	1	0	0		2020-07-17T23:47:34.000Z	2,525	4,700				
1284265516564193280	747	thepartycow	So many errors in Georgia right now. 	en	1	0	0		2020-07-17T23:15:34.000Z	2,525	4,700				
1283812316409192448	747	thepartycow	13 years ago, I emailed Dr. Fauci out of the blue to ask if I might interview him for my undergrad thesis. He invited me to his office, where he answered all my questions. When I sent him the thesis, HE READ THE WHOLE THING (see his overly effusive review below). Who does that?! 	en	431013	5072	51180	LukeMessac	2020-07-16T17:14:42.000Z	2,525	4,700				https://pbs.twimg.com/media/EdEEfODWoAEdC4x?format=png&amp;name=360x360
1284162611991523329	747	thepartycow	Palm Springs is so so so so good. 	en	5	3	1		2020-07-17T16:26:39.000Z	2,525	4,700				
1284147734434516993	747	thepartycow	The comments on this mail it. 	en	0	0	0		2020-07-17T15:27:32.000Z	2,525	4,700				
1283425792945459203	747	thepartycow	That time when two 10 year olds just decided to destroy Andrew Neil on national TV 	en	110353	1262	32854	TheStirlingWolf	2020-07-15T15:38:48.000Z	2,525	4,700		blob:https://twitter.com/f86a3eae-4236-455a-896d-6b1aeb327965	https://pbs.twimg.com/ext_tw_video_thumb/1283424890935222273/pu/img/lZxKAHBKAKZsHVNu.jpg	
1283517765156921345	747	thepartycow	In WW2, Londoners were asked to black out their homes at night so the enemy bombers wouldn’t see the lights &amp; know where to target. No Londoner said,”It’s my right to have lights on”. Cuz others would say,”your light on endangers us.”Substitute “light” for “mask”. Now argue. 	en	398080	4088	96553	IJasonAlexander	2020-07-15T21:44:16.000Z	2,525	4,700				
1283516448200155139	747	thepartycow	This is a really good response to the ongoing free speech debate. Strong follow up to @mmasnick 's piece. 	en	0	0	0		2020-07-15T21:39:02.000Z	2,525	4,700				
1283299006152536065	747	thepartycow	#Coronavirus : Banksy sprays Tube with COVID-19 face mask message. The street artist was filmed stencilling a London Underground train with a message encouraging people to wear face coverings. More here: https://trib.al/ZN5uBQY 	en	31358	636	12342	SkyNews	2020-07-15T07:15:00.000Z	2,525	4,700		blob:https://twitter.com/84745170-3c8a-46f3-a086-af640a589266	https://pbs.twimg.com/media/Ec6gCzAXkAEPR_9.jpg	
1283235928639668224	747	thepartycow	The audacity of a government agency, who's name includes "disease control," would issue guidance that could seriously limit behavior....in order to control a disease. #theyaregoingtokillus 	en	4	1	1		2020-07-15T03:04:21.000Z	2,525	4,700				
1283069420181626880	747	thepartycow	Great seeing Pierre Naude talking about @ncino and it’s IPO on @CNBC . Perfect timing as trading opened during his interview. Congrats! 	en	46	0	5	Tyler_SFDC	2020-07-14T16:02:42.000Z	2,525	4,700				https://pbs.twimg.com/media/Ec5g0ceX0AItlU0?format=jpg&amp;name=360x360
1283037791232958466	747	thepartycow	Congratulations @ncino on your IPO. It has been an honor to work so closely with you over the past 5 years. I love forward to celebrating many, many more milestones in the future. $ncno 	en	25	1	5		2020-07-14T13:57:01.000Z	2,525	4,700				
1283035553076740102	747	thepartycow	Congrats @ncino on today's IPO! Honored to virtually "ring the bell" with you this morning. Thank you for your partnership and looking forward to continued success. @partnerforce 	en	91	3	12	Tyler_SFDC	2020-07-14T13:48:08.000Z	2,525	4,700				https://pbs.twimg.com/media/Ec5A-CGXYAYnyTL?format=jpg&amp;name=360x360
1283034144113655808	747	thepartycow	Watch @ncino CEO Pierre Naudé ring the @Nasdaq opening bell to celebrate #ncinoIPO ! ((Rocket)) ((Bell)) ((Collision symbol)) 	en	32	3	12	ncino	2020-07-14T13:42:32.000Z	2,525	4,700				
1282678192151711744	747	thepartycow	I joined @Twitter 14 years ago today. That neighborhood was quite different than this global community. My favorite prank was to grab someone's phone and follow me via 40404. I must have added hundreds of early users that way. 	en	9	2	0		2020-07-13T14:08:06.000Z	2,525	4,700				https://pbs.twimg.com/media/Ecz9BGIWoAAd7vs?format=jpg&amp;name=360x360
1165716927198593024	767	xeni	Receipts. 	en	2222	135	1045		2019-08-25T20:05:48.000Z	14,952	155,326				
1293224864271261700	767	xeni	I just got one of these that has a place to slip in a filter. I hope that would be better, but maybe not. 	en	4	2	2	crecenteb	2020-08-11T16:36:49.000Z	14,952	155,326				
1293225181469646848	767	xeni	That's a lot of rubles. 	en	93	2	28	jjmacnab	2020-08-11T16:38:04.000Z	14,952	155,326				
1293223697096929280	767	xeni	MOOOOOOOOOOOOOOOOOOOOOOOOOOOOOOOOOOO 	und	57	0	9	AntisemitismCow	2020-08-11T16:32:10.000Z	14,952	155,326				
1293224444714876933	767	xeni	“Neck gaiters are extremely common in a lot of places because they’re very convenient to wear, but the exact reason why they’re so convenient, which is that they don’t restrict air, is the reason why they’re not doing much of a job helping people.” 	en	91	11	56		2020-08-11T16:35:09.000Z	14,952	155,326				
1293212109753344001	767	xeni	This is like going to a Lauryn Hill concert ffs 	en	103	8	8		2020-08-11T15:46:08.000Z	14,952	155,326				
1293190304678531072	767	xeni	Seems like judges, even those skeptical of Flynn's presentation, do think this case will ultimately be dismissed. But they don't seem prepared to force Judge Sullivan's hand when he hasn't ruled yet. The issue, then, is what might come out in Sullivan's hearing. 	en	247	8	52	kyledcheney	2020-08-11T14:19:29.000Z	14,952	155,326				
1293185567681724418	767	xeni	Appeals Court sounds *very* skeptical of Flynn team's effort to force Judge Sullivan to dismiss the prosecution without holding a hearing. Lot of sharp questioning and some elbows thrown in the early-going. 	en	2327	23	564	kyledcheney	2020-08-11T14:00:40.000Z	14,952	155,326				
1293191562634186752	767	xeni	Judge GRIFFITH, a George W. bush appointee, has the sharpest questions for Flynn team. He notes that one reason judges had discretion on dismissial motions is to consider problem of "favoritism for a politically powerful defendant." 	en	682	7	181	kyledcheney	2020-08-11T14:24:29.000Z	14,952	155,326				
1292979614076166144	767	xeni	2020 is full of conservatives bragging about keeping vaginas dry. I mean I always suspected, but the self owns are spectacular. 	en	14424	121	1515	DrJenGunter	2020-08-11T00:22:17.000Z	14,952	155,326				
1292995242698965004	767	xeni	The irony is that Les Wexner's problem is not me, or the media.. 	en	559	12	132	jkbjournalist	2020-08-11T01:24:23.000Z	14,952	155,326				
1293204447766683648	767	xeni	and he's no longer following 88 people 	en	32	6	8	Bruno_J_Navarro	2020-08-11T15:15:41.000Z	14,952	155,326				
1293187886997598208	767	xeni	Republican Congressional candidate deletes photos from Hitler’s retreat 	en	1361	162	1141	nahmias	2020-08-11T14:09:53.000Z	14,952	155,326				
1293180069653950465	767	xeni	Bill Clinton not being cancelled is strong evidence that cancel culture is not a real thing 	en	42	3	6	westofrome	2020-08-11T13:38:49.000Z	14,952	155,326				
1293186828829261829	767	xeni	CBD has really helped me deal with anxiety this year. Good for you! Also I've been taking snack breaks from WHF by going to my patio and eating cherry tomatoes off the vine, still warm from the sun. 	en	19	3	1	WillDaBear1	2020-08-11T14:05:40.000Z	14,952	155,326				
1293159844598255616	767	xeni	Bill Clinton should be in hiding. Allowing him anywhere near Joe Biden before the Jeffrey Epstein/Ghislaine Maxwell documents are released is stupid self-sabotage. Get rid of Eric Schmidt and Larry Summers while you’re at it @JoeBiden 	en	413	24	101	xeni	2020-08-11T12:18:27.000Z	14,952	155,326				
1293201934669590528	767	xeni	Tough time right now for a lot of us. Moral trauma is still traumatic and right now our ability to vent our justified moral outrage is limited by those very institutions and ideals we’re trying to protect. 	en	12	1	5	TheJeffDickson	2020-08-11T15:05:42.000Z	14,952	155,326				
1293174348858105861	767	xeni	“The best lack all conviction, while the worst / Are full of passionate intensity.” William Butler Yeats 	en	5	0	4	JoseGameWriter	2020-08-11T13:16:05.000Z	14,952	155,326				
1293199802705022976	767	xeni	I went for a run today to burn off some of the rage. I'm not supposed to do that as I have 2 knee replacements. I literally can't take it anymore! 	en	20	3	3	Pinchy63	2020-08-11T14:57:14.000Z	14,952	155,326				
1293199562539229185	767	xeni	Essentially they're selling more shares, diluting the value of existing shares, and raising $460 million. 	en	164	13	21	SciGuySpace	2020-08-11T14:56:16.000Z	14,952	155,326				
1293155736726511616	767	xeni	USPS reportedly delivered 1.2B prescriptions. The regs means most can't wait even a week. Seniors and veterans are being victimized by Trump's @USPS delays to undermine our democracy. How many die before you get mad? Is @DeptVetAffairs even tracking this at all? Why not? VSO's? 	en	4597	102	2843	FPWellman	2020-08-11T12:02:07.000Z	14,952	155,326				
1293199235408523271	767	xeni	BREAKING: Acting SG Wall says Barr had secret, undisclosed reasons for dismissing Flynn case. 	en	2950	198	1762	joshgerstein	2020-08-11T14:54:58.000Z	14,952	155,326				
1293199445832503299	767	xeni	Yes I wake up in a rage every morning, but it’s because everything actually sucks 	en	326	14	37		2020-08-11T14:55:49.000Z	14,952	155,326				
1293164582907895810	767	xeni	"How dare you feed our delicate white child SPICES" is a new one for me, I must admit. Unsurprising: Danny's advice is perfect. 	en	1115	59	228	SorayaMcDonald	2020-08-11T12:37:17.000Z	14,952	155,326				
1293197477789794305	767	xeni	Kanye West’s lawyer demands Democrats prove Mickey Mouse didn’t really sign his ballot petition in Wisconsin 	en	2322	729	1640	RawStory	2020-08-11T14:47:59.000Z	14,952	155,326				
1293197881403256833	767	xeni	Per @axios , one in every 50 referrals to Donald Trump's campaign website comes from VDare, a site associated with white nationalism https://www.axios.com/trump-website-traffic-biden-2020-9fd4c4ef-bdcc-41c9-837b-6c41a47dd0c5.html 	en	166	9	135	Bencjacobs	2020-08-11T14:49:36.000Z	14,952	155,326				https://pbs.twimg.com/media/EfJcm3_XkAA3zBl?format=jpg&amp;name=360x360
1293197929415663623	767	xeni	uh okay 	en	81	8	20	Phil_Lewis_	2020-08-11T14:49:47.000Z	14,952	155,326				
1293163217619791872	767	xeni	Crimes against women, teens, and girls matter. That is the message of women like me who keep pounding on the Jeffrey Epstein/Ghislaine Maxwell story. They had help. The helpers are all still free. They welcomed participants. All still free. 	en	369	5	101	xeni	2020-08-11T12:31:51.000Z	14,952	155,326				
1293183256204963841	767	xeni	Again, I like to always post this disclaimer, yes I really am growing non-get-you-high low/no-THC, yes it’s legal “hemp” cannabis, legal in all 50 states to grow as I’m growing here for personal use, I am a cancer survivor and I’m very serious about this plant as medicine. 	en	68	6	2		2020-08-11T13:51:29.000Z	14,952	155,326				
1293182207339593729	767	xeni			11	2	1		2020-08-11T13:47:19.000Z	14,952	155,326				https://pbs.twimg.com/media/EfJOW6lU0AUVIjj?format=jpg&amp;name=360x360
1293182172761714690	767	xeni			14	1	0		2020-08-11T13:47:10.000Z	14,952	155,326				https://pbs.twimg.com/media/EfJOU4OVAAAEEo8?format=jpg&amp;name=360x360
1293182028301479939	767	xeni	Not bad for a month without a single day under 100°, and many above 105°, with 3-4% humidity and 20mph+ winds common 	en	16	3	1		2020-08-11T13:46:36.000Z	14,952	155,326				
1293181441396752391	767	xeni	CBD hemp strains (non THC), Hopi amaranth, Guatemalan squash, San Marzano tomatoes, Chile tepin, basil… my Utah desert garden for healing and food. 	en	105	8	5		2020-08-11T13:44:16.000Z	14,952	155,326				https://pbs.twimg.com/media/EfJNpQcU8AAKIpn?format=jpg&amp;name=240x240 https://pbs.twimg.com/media/EfJNpQXVoAIKnv3?format=jpg&amp;name=240x240 https://pbs.twimg.com/media/EfJNpQYU8Ak-zYv?format=jpg&amp;name=240x240 https://pbs.twimg.com/media/EfJNpQcU0AAGfmY?format=jpg&amp;name=240x240
1293174426087776256	767	xeni	My attitude toward this election isn’t, yay, can’t wait for our team to win, it’s, please make this pain stop I can’t wait to criticize a regular president for regular dumb shit again 	en	175	4	19	xeni	2020-08-11T13:16:23.000Z	14,952	155,326				
1292918418534838273	767	xeni	You mean the malware specifically designed to indoctrinate people into QAnon is lousy with people indoctrinated into QAnon?! @MingGao26 @ericgarland @gametheorytoday @xeni @AuhsdBond @Ginger624 @DemopJ 	en	111	4	41	wokyleeks	2020-08-10T20:19:06.000Z	14,952	155,326				
1293173805020373002	767	xeni	There is no defeat so unlikely the Democrats can’t snatch it from the trembling jaws of victory. 	en	136	8	14		2020-08-11T13:13:55.000Z	14,952	155,326				
1293107308185124865	767	xeni	MOSCOW (AP) — President Vladimir Putin says Russia's coronavirus vaccine has been registered; his daughter is among those inoculated. 	en	549	280	282	JonLemire	2020-08-11T08:49:41.000Z	14,952	155,326				
1293171912479313920	767	xeni	The President suggests Biden insulted men by vowing to pick a woman for his VP. "Some people would say that men are insulted by that. And some people would say it's fine," Trump said. 	en	312	196	192	marykbruce	2020-08-11T13:06:24.000Z	14,952	155,326				
1293171514381086720	767	xeni	NY state health officials are counting nursing-home deaths in a way that minimizes the true toll. That doesn't stop Gov. Cuomo from bragging about the state's performance. 	en	13	0	8	BGrueskin	2020-08-11T13:04:49.000Z	14,952	155,326				
1293171682912305152	767	xeni	If you retweet George Conway I will block you 	en	203	25	6		2020-08-11T13:05:29.000Z	14,952	155,326				
1293171615530852352	767	xeni	Okay. 	en	8	1	1		2020-08-11T13:05:13.000Z	14,952	155,326				
1293170928826880001	767	xeni	Fauci presiding over Lower East Side, NYC Artist is SacSix 	en	97	1	21	julie_mo	2020-08-11T13:02:30.000Z	14,952	155,326				https://pbs.twimg.com/media/EfJEGmgWoAAcbvp?format=jpg&amp;name=360x360
1293170952386179072	767	xeni	It’s a family disease. The denial is institutional and they haven’t got the tools to inventory this one. 	en	10	2	1	anntorrence	2020-08-11T13:02:35.000Z	14,952	155,326				
1293168478162059264	767	xeni	Stick Bill Clinton on a ventilator for a few months please, lock that sumbitch up with some lotion and a few copies of Teen Vogue until the election’s over. Fuck! Christ. 	en	65	2	4	xeni	2020-08-11T12:52:45.000Z	14,952	155,326				
1293160472926183424	767	xeni	dems are insane to trot out bill clinton rn amid all the jeffrey epstein stuff. honestly what are they thinking 	en	82	8	14	MarlowNYC	2020-08-11T12:20:57.000Z	14,952	155,326				
1293164669037879297	767	xeni	"If you first see her in a bathing suit at a water park with her family, she is too young … so you probably don’t need a condom.” — Clay Travis https://www.mediamatters.org/tucker-carlson/clay-travis-tucker-carlsons-go-sports-expert-racist-conspiracy-theorist-and-his 	en	44	9	41	MarlowNYC	2020-08-11T12:37:37.000Z	14,952	155,326				
1293166013303762950	767	xeni	If Trump is stained, so be it. Clinton, so be it. Out them. Sexual predators are a nonpartisan issue. Child sex trafficking, money laundering, sexual blackmail, dirty foreign deals that compromise America’s national security, all a nonpartisan issue. That’s what this case is. 	en	123	2	20	xeni	2020-08-11T12:42:58.000Z	14,952	155,326				
1293021629606326272	767	xeni	((👁)) and/or is it the other way around 	en	68	9	8	xeni	2020-08-11T03:09:14.000Z	14,952	155,326				
1293165057703055360	767	xeni	That could be the theme for 2020. 	en	5	0	2	bertowud	2020-08-11T12:39:10.000Z	14,952	155,326				
1292858466789478401	767	xeni	I am eating one of these fresh out of the oven. 	en	6	1	1	ManleyPeg	2020-08-10T16:20:53.000Z	14,952	155,326				https://pbs.twimg.com/media/EfEn62FX0AIok1k?format=jpg&amp;name=360x360
1293164572363218944	767	xeni	STOP COVERING FOR BAD MEN. 	en	52	1	7		2020-08-11T12:37:14.000Z	14,952	155,326				
1293164239457153024	767	xeni	All 3 were present. As young as 6. 	en	24	3	2		2020-08-11T12:35:55.000Z	14,952	155,326				
1293163840356589569	767	xeni	@SymoneDSanders @JoeBiden get Bill Clinton off this list he’s about to get smeared. 	en	29	1	4		2020-08-11T12:34:20.000Z	14,952	155,326				
1293162716606001153	767	xeni	Let’s see, what very public evidence is there already that Bill Clinton might have a history of being a sexual degenerate who preys on younger women? 	en	36	0	3		2020-08-11T12:29:52.000Z	14,952	155,326				
1293160799603585025	767	xeni	Stupid. 	en	12	1	2		2020-08-11T12:22:15.000Z	14,952	155,326				
1293160643084705793	767	xeni	Why the fuck does anybody think Bill Clinton is going to help them get elected 	en	57	3	8		2020-08-11T12:21:37.000Z	14,952	155,326				
1293160174375407617	767	xeni	@kerikukral 	und	0	1	1		2020-08-11T12:19:45.000Z	14,952	155,326				
1293160049490026497	767	xeni	What the fck @JoeBiden get Bill Clinton out of the picture. He’s absolutely about to go down. Again 	en	67	3	12		2020-08-11T12:19:16.000Z	14,952	155,326				
1293158913446227971	767	xeni	"I certainly feel differently," President Trump tells Fox Sports about his relationship with Chinese President Xi Jinping. "I had a very good relationship, but I haven't spoken to him in a long time." 	en	410	106	78	kaitlancollins	2020-08-11T12:14:45.000Z	14,952	155,326				
1293158572755386369	767	xeni	A man has climbed onto the track at Minsk’s Kupalovskaya metro station with a sign reading “Stop maiming and killing people” 	en	47	2	15	mjluxmoore	2020-08-11T12:13:24.000Z	14,952	155,326		blob:https://twitter.com/0cac102b-c8bb-4e5e-bc1a-97e0570bcac8	https://pbs.twimg.com/ext_tw_video_thumb/1293158540211826688/pu/img/5tfcTXwn7dOsGEjw.jpg	
1293039422707990530	767	xeni	These two videos are so distressing because they feel so familiar. A woman seeking to get protection for herself and children is further victimized because she was inconvenient to people in power. You could call it a mistake if it weren’t so commonplace. But it is. 	en	419	26	289	DrPhilGoff	2020-08-11T04:19:56.000Z	14,952	155,326				
1293158318681202688	767	xeni	Too fucking dumb to live 	en	102	8	18		2020-08-11T12:12:23.000Z	14,952	155,326				
1293157511684554754	767	xeni	Follow this space for updates throughout the morning on another very big day in the Michael Flynn case. The full federal appeals court in Washington is considering whether Judge Sullivan can be ordered to dismiss the case now that DOJ no longer wants to pursue it. Stay tuned... 	en	47	1	28	etuckerAP	2020-08-11T12:09:11.000Z	14,952	155,326				
1293157589518356482	767	xeni	U.N. investigator says Facebook has not shared evidence in its possession of human rights crimes in Myanmar 	en	27	1	17	patrickgaspard	2020-08-11T12:09:29.000Z	14,952	155,326				
1293046488566763522	767	xeni	Don't trust it. 	en	29	2	5	TheWarMonitor	2020-08-11T04:48:01.000Z	14,952	155,326				
1293138584891867139	767	xeni	Teachers investigated. Classes cancelled. Textbooks censored. More political candidates disqualified. Newsrooms searched. The national security law is having a much broader impact than the "extremely small minority" promised. 	en	367	11	323	EmilyZFeng	2020-08-11T10:53:58.000Z	14,952	155,326				
1292903587077656583	767	xeni	A @HarvardChanSPH study shows Obama-era changes to school meals led to a big decrease in obesity in low-income kids, resulting in ~.5M fewer kids with obesity 5 years later. @lisaelaineh @CivilEats on what USDA rollbacks will mean. 	en	767	4	411	NaomiStarkman	2020-08-10T19:20:10.000Z	14,952	155,326				
1292976663853064193	767	xeni	When will seeing dust devils on Mars get old? Never. 	en	720	18	118	tweetsoutloud	2020-08-11T00:10:33.000Z	14,952	155,326				
1293013040862883841	767	xeni	And with that 2020 introduces another terrifying term, “reverse waterfalls.” 	en	661	15	230	sheeraf	2020-08-11T02:35:06.000Z	14,952	155,326				
1293006508301537280	767	xeni	The Navajo Nation only had 7 new cases of COVID today. We got here with evening &amp; 57-hour wknd lockdowns, mandatory face mask orders, shutting down tourism &amp; schools, setting up public wifi &amp; food/supply drives to reduce the amount of families traveling to border towns. 	en	20317	60	3365	JakeSkeets	2020-08-11T02:09:09.000Z	14,952	155,326				
1293044849789284357	767	xeni	I remember asking the audio technicians and the folks who did makeup if they were worried about being there, or had plans to for work when the studios shut down. They thought I was joking. I felt crazy. 	en	309	13	8	jameshamblin	2020-08-11T04:41:30.000Z	14,952	155,326				
1292978518079336449	767	xeni	Fauch on the Couch .. chatting health stuff 	en	22165	286	1261	hwinkler4real	2020-08-11T00:17:55.000Z	14,952	155,326				https://pbs.twimg.com/media/EfGVGzWUYAEKWX2?format=jpg&amp;name=360x360
666513796316426240	781	may	:~) 	und	35	20	13		2015-11-17T07:10:46.000Z	0	1,238				
666479109221019649	781	may	We back baby. 	en	27	10	10		2015-11-17T04:52:56.000Z	0	1,238				
208895963241259010	795	Wrickr	Earn Cash in Your Spare Time http://MILLION-DOLLARS.TK 	en	2	0	0		2012-06-02T12:20:53.000Z	0	371				
208874938390683648	795	Wrickr	Make Over $100,000+ A Year Working From Home http://MILLION-DOLLARS.TK 	en	0	0	0		2012-06-02T10:57:20.000Z	0	371				
208120717487767552	795	Wrickr	Make An Incredible Income - Follow The Simple Steps http://successfulworkathomecareers.ru/creatives/business.php?AFFID=210234&amp;SID=1 	en	0	0	0		2012-05-31T09:00:20.000Z	0	371				
207822536426270721	795	Wrickr	Make Money Doing What You Love with Your Own Home Business http://getmakemoneyonline.ru/creatives/business.php?AFFID=210234&amp;SID=1 	en	0	0	0		2012-05-30T13:15:28.000Z	0	371				
207566412804390914	795	Wrickr	Learn Different Ways To Make Extra Money on the Internet http://extramoneyanswer.ru/creatives/business.php?AFFID=210234&amp;SID=1 	en	0	0	0		2012-05-29T20:17:43.000Z	0	371				
207520428246302720	795	Wrickr	Start making money immediately without risk - from the comfort of your home http://workfromhomesuccess7.ru/creatives/business.php?AFFID=210234&amp;SID=1 	en	0	0	0		2012-05-29T17:15:00.000Z	0	371				
207353178939858944	795	Wrickr	Make Money Right Away! http://workfromhomesuccess7.ru/creatives/business.php?AFFID=210234&amp;SID=1 	en	0	0	0		2012-05-29T06:10:24.000Z	0	371				
207245193148239872	795	Wrickr	Get paid just for being connected to the Internet day or night http://successfulworkathomecareers.ru/creatives/business.php?AFFID=210234&amp;SID=1 	en	0	0	0		2012-05-28T23:01:19.000Z	0	371				
207199956686217216	795	Wrickr	Business Opportunities - Start Your Own Business http://getmakemoneyonline.ru/creatives/business.php?AFFID=210234&amp;SID=1 	en	0	0	0		2012-05-28T20:01:33.000Z	0	371				
10609417125	795	Wrickr	RT @etudeapp I just got a FREE copy of SimpleChord to go with Etude: http://etudeapp.com/tweet 	en	0	0	2		2010-03-17T06:25:38.000Z	0	371				
5062860842	795	Wrickr	RT @tweetmeme Social Monitoring Console: Advanced Moderation For Your Facebook Page [INVITES] http://bit.ly/qOcnP facebook.com/chris.witko 	en	0	0	0		2009-10-22T05:40:10.000Z	0	371				
4086736244	795	Wrickr	sk8stuff 	en	0	0	0		2009-09-18T20:04:40.000Z	0	371				
3530948788	795	Wrickr	epanioluję się 	pl	0	0	0		2009-08-25T07:48:42.000Z	0	371				
3083125072	795	Wrickr	hmm 	und	0	0	0		2009-08-02T06:33:53.000Z	0	371				
984195024	795	Wrickr	waiting for the plane 	en	0	0	0		2008-10-31T18:38:54.000Z	0	371				
976547484	795	Wrickr	skateboard, snowboard, all day round 	en	0	0	0		2008-10-26T21:30:56.000Z	0	371				
974859346	795	Wrickr	what a day :) what else I can expect? 	en	0	0	0		2008-10-25T11:12:38.000Z	0	371				
974772230	795	Wrickr	coffee time! which one you prefer? 	en	0	0	0		2008-10-25T08:17:02.000Z	0	371				
973819286	795	Wrickr	going parting this night, time to feel weeknd 	en	0	0	0		2008-10-24T16:22:50.000Z	0	371				
973317220	795	Wrickr	coffee time 	en	0	0	0		2008-10-24T08:33:37.000Z	0	371				
972580503	795	Wrickr	time to get rest, tomorrow sk8town rulezzz, oh yea... 	en	0	0	0		2008-10-23T20:21:43.000Z	0	371				
972186364	795	Wrickr	fuck this work :) tomorrow weekend 	en	0	0	0		2008-10-23T15:42:56.000Z	0	371				
971601824	795	Wrickr	last day in work before long weeeeekend 	en	0	0	0		2008-10-23T05:12:00.000Z	0	371				
971010333	795	Wrickr	yep, it works perfectly 	en	0	0	0		2008-10-22T20:11:47.000Z	0	371				
971007656	795	Wrickr	direct facebook status class, hmm 	en	0	0	0		2008-10-22T20:09:07.000Z	0	371				
971003129	795	Wrickr	time to finish some stuff ;) 	en	0	0	0		2008-10-22T20:05:27.000Z	0	371				
970998896	795	Wrickr	now, testing twitter and facebook status updateing 	en	0	0	0		2008-10-22T20:02:10.000Z	0	371				
970957866	795	Wrickr	testing skate webapp with twitter 	en	0	0	0		2008-10-22T19:29:18.000Z	0	371				
970912818	795	Wrickr	doing my stuff 	en	0	0	0		2008-10-22T18:53:26.000Z	0	371				
966578569	795	Wrickr	preparing to lounched new projects 	en	0	0	0		2008-10-19T20:34:35.000Z	0	371				
936898032	795	Wrickr	working on sk8town.pl 	en	0	0	0		2008-09-27T07:32:53.000Z	0	371				
855957045	795	Wrickr	http://sk8town.pl/krzysiek 	und	0	0	0		2008-07-11T19:27:23.000Z	0	371				
850056964	795	Wrickr	at parent's house 	en	0	0	0		2008-07-04T14:05:01.000Z	0	371				
849295791	795	Wrickr	my mother 50' 	en	0	0	0		2008-07-03T14:31:50.000Z	0	371				
847126705	795	Wrickr	f..ck the net, f..ck the internet, f..ck the rest 	en	0	0	0		2008-06-30T19:56:20.000Z	0	371				
846375756	795	Wrickr	back to Warsaw, completly pissed off and tired, tomorrow new place at work 	en	0	0	0		2008-06-29T19:59:10.000Z	0	371				
845885704	795	Wrickr	Second day in Kraków, just amazing spots, watch the police ;) 	pl	0	0	0		2008-06-28T22:52:22.000Z	0	371				
844794503	795	Wrickr	Kraków tomorrow (http://sk8town.pl/kalendarz/70) 	pl	0	0	0		2008-06-27T08:13:08.000Z	0	371				
841952622	795	Wrickr	surprise from amazon, new "the red balloon" movie and "skateboarding explained" 	en	0	0	0		2008-06-23T21:23:06.000Z	0	371				
841501476	795	Wrickr	new photos on http://sk8town.pl/foty 	en	0	0	0		2008-06-23T09:24:57.000Z	0	371				
840792535	795	Wrickr	riding bike to the coffee shop 	en	0	0	0		2008-06-22T08:18:11.000Z	0	371				
840484320	795	Wrickr	Szczesliwa 13 at Kino Luna, Warsaw 	pl	0	0	0		2008-06-21T20:19:06.000Z	0	371				
840148108	795	Wrickr	Go Skateboarding Day! http://sk8town.pl 	en	0	0	0		2008-06-21T08:27:34.000Z	0	371				
835836738	795	Wrickr	gonna skate 	en	0	0	0		2008-06-16T09:23:50.000Z	0	371				
835829412	795	Wrickr	skating, 5 days left (more on http://sk8town.pl) 	en	0	0	0		2008-06-16T09:06:46.000Z	0	371				
830847592	795	Wrickr	http://sk8town.pl 	und	0	0	0		2008-06-09T21:57:30.000Z	0	371				
830667062	795	Wrickr	watching wwdc 	in	0	0	0		2008-06-09T17:53:52.000Z	0	371				
830387603	795	Wrickr	visit new social website for sk8boarders' http://hellotxt.com/l/nIi2 	en	0	0	0		2008-06-09T11:42:06.000Z	0	371				
830016377	795	Wrickr	time to sleep, I love strawbarries ;) 	en	0	0	0		2008-06-08T22:26:43.000Z	0	371				
829839333	795	Wrickr	going o Jo Bday Party ;) 	en	0	0	0		2008-06-08T16:30:24.000Z	0	371				
829250241	795	Wrickr	going party 	en	0	0	0		2008-06-07T17:55:26.000Z	0	371				
828677669	795	Wrickr	after clubbing, going sleep, tomorrow is gonna be somthing in the air ;) 	en	0	0	0		2008-06-06T21:57:13.000Z	0	371				
828524764	795	Wrickr	grill time 	en	0	0	0		2008-06-06T16:03:19.000Z	0	371				
828234481	795	Wrickr	sk8town.pl 	en	0	0	0		2008-06-06T07:07:59.000Z	0	371				
828182106	795	Wrickr	Going to work 	en	0	0	0		2008-06-06T05:01:58.000Z	0	371				
827974355	795	Wrickr	going sleep 	en	0	0	0		2008-06-05T21:25:01.000Z	0	371				
827937577	795	Wrickr	I have just lunched new social service for skateboarders in Poland, check it out http://sk8town.pl 	en	0	0	0		2008-06-05T20:27:23.000Z	0	371				
827664742	795	Wrickr	workin' on http://sk8town.pl 	en	0	0	0		2008-06-05T13:51:41.000Z	0	371				
813096410	795	Wrickr	at parents house 	en	0	0	0		2008-05-16T20:58:34.000Z	0	371				
804551014	795	Wrickr	At work 	en	0	0	0		2008-05-06T10:00:01.000Z	0	371				
788674688	795	Wrickr	At work ;) Paris is on the way 	en	0	0	0		2008-04-14T07:04:31.000Z	0	371				
548450002	795	Wrickr	work again but for couple of hours only 	en	0	0	0		2007-12-31T05:55:29.000Z	0	371				
547579302	795	Wrickr	time to go sleep 	en	0	0	0		2007-12-30T22:42:43.000Z	0	371				
547410122	795	Wrickr	skyping 	en	0	0	0		2007-12-30T21:12:42.000Z	0	371				
546435922	795	Wrickr	go for shopping 	en	0	0	0		2007-12-30T13:26:15.000Z	0	371				
544764702	795	Wrickr	going sleep 	en	0	0	0		2007-12-29T21:56:32.000Z	0	371				
374813772	795	Wrickr	skating 	en	0	0	0		2007-10-30T11:24:19.000Z	0	371				
3169453	795	Wrickr	london, upsss i did it again 	en	0	0	0		2007-01-17T20:58:51.000Z	0	371				
2717833	795	Wrickr	testing umts modem 	de	0	0	0		2007-01-12T16:05:37.000Z	0	371				
979873	795	Wrickr	you have to watch movie "yossi &amp; jagger" just great, and the music is... 	en	0	0	0		2006-12-12T01:56:51.000Z	0	371				
910013	795	Wrickr	swimming is the best thing in my day today 	en	0	0	0		2006-12-10T13:32:50.000Z	0	371				
876473	795	Wrickr	i'm happy :) 	en	0	0	0		2006-12-09T12:40:06.000Z	0	371				
782883	795	Wrickr	well, it's not so bad 	en	0	0	0		2006-12-07T14:35:01.000Z	0	371				
648763	795	Wrickr	it's gonna be better :) 	en	0	0	0		2006-12-04T23:00:12.000Z	0	371				
632443	795	Wrickr	as one one the polish politican says: "yes, yes, yes" 	en	1	0	0		2006-12-04T17:32:13.000Z	0	371				
627873	795	Wrickr	I have no idea what happend :( 	en	0	0	0		2006-12-04T15:58:28.000Z	0	371				
585693	795	Wrickr	good morning, what a .. rainy day, f...., i'm going to cinema today, bleee 	en	0	0	0		2006-12-03T08:41:07.000Z	0	371				
534863	795	Wrickr	Ready. Set. Chat. just http://wrickr.com 	en	0	0	0		2006-12-01T19:55:11.000Z	0	371				
451833	795	Wrickr	another day, adn still no answer 	en	0	0	0		2006-11-29T22:26:29.000Z	0	371				
426063	795	Wrickr	still waiting 	en	0	0	0		2006-11-29T15:35:16.000Z	0	371				
361693	795	Wrickr	it rains, get me out of here 	en	0	0	0		2006-11-28T09:04:51.000Z	0	371				
314673	795	Wrickr	money, money, money... time for shopping 	en	0	0	0		2006-11-27T17:19:06.000Z	0	371				
274303	795	Wrickr	tomorrow, very important day for me, you will get know all 	en	0	0	0		2006-11-26T22:36:58.000Z	0	371				
254913	795	Wrickr	silent at home, brrrrrrr 	en	0	0	0		2006-11-26T14:30:42.000Z	0	371				
253443	795	Wrickr	at the apple store 	en	0	0	0		2006-11-26T13:19:24.000Z	0	371				
245683	795	Wrickr	Darek &amp; Sylwia are leaving me today :( so, again I'll stay alone in London 	en	0	0	0		2006-11-26T07:06:42.000Z	0	371				
236733	795	Wrickr	new apps almost finished... wait till monday 	en	0	0	0		2006-11-25T23:50:12.000Z	0	371				
198893	795	Wrickr	meeee, works fine... 	en	0	0	0		2006-11-24T19:31:56.000Z	0	371				
183563	795	Wrickr	bleeeh, I need some break 	en	0	0	0		2006-11-24T09:04:37.000Z	0	371				
157643	795	Wrickr	references, references... I need them 	en	0	0	0		2006-11-23T17:28:25.000Z	0	371				
112763	795	Wrickr	ok, ok, ok, a lot of stress I had last days but now everything is going to be fine :) 	en	0	0	0		2006-11-22T19:52:41.000Z	0	371				
81744	795	Wrickr	some are drunk, but I gonna go sleep now 	en	0	0	0		2006-11-22T01:46:21.000Z	0	371				
79958	795	Wrickr	emotional crisis :( 	en	0	0	0		2006-11-21T17:15:38.000Z	0	371				
78003	795	Wrickr	ok, ruby, twitter, growl works fine, gonna sleep now 	en	0	0	0		2006-11-21T00:58:40.000Z	0	371				
77631	795	Wrickr	ruby, ruby, ruby 	ht	0	0	1		2006-11-20T22:08:11.000Z	0	371				
75959	795	Wrickr	gonna buy scanner, any suggestions 	en	0	0	0		2006-11-20T08:36:09.000Z	0	371				
74385	795	Wrickr	what means switched off phone? 	en	1	0	0		2006-11-19T09:05:20.000Z	0	371				
73673	795	Wrickr	after couple of bright words, gonna sleep, and for you twitters sweet dreams 	en	0	0	0		2006-11-18T23:26:58.000Z	0	371				
73009	795	Wrickr	I got it! new contract, ah ahha 	en	0	1	0		2006-11-18T14:18:51.000Z	0	371				
72861	795	Wrickr	going for shopping 	en	0	0	0		2006-11-18T10:26:00.000Z	0	371				
1175126408726765571	841	colinschlueter	today’s family day out: the #climatestrike in Berlin, together with hundreds of thousands taking a stand for our planet, including friends, colleagues from @sofatutor and many families from our kids‘ day-care #klimastreik #allefuersklima #eventheyoungest 	en	1	0	0		2019-09-20T19:15:43.000Z	2,072	2,427				
1002985726378684418	841	colinschlueter	Ok, ~36 hours after first noticing the @facebook contacts issue, my friends list seems to be have been restored just as magically as it disappeared. looks like data caching, consistency and reliability is difficult even when you’re fb. 	en	2	0	1		2018-06-02T18:50:06.000Z	2,072	2,427				
1002614673840201728	841	colinschlueter	So, apparently @facebook has deleted/lost absolutely all my friends/connections. rest of my content in fb is still there, no action by me, no suspicious activity, no other signs of a hack/compromised account. looks like a very weird bug? anyone else seen sth like this? any ideas? 	en	0	1	0		2018-06-01T18:15:40.000Z	2,072	2,427				
892694909542690816	841	colinschlueter	Redakteurin Sarah erzählt von ihrem #Job bei sofatutor. Das klingt nach dir? Wir suchen Verstärkung. #Lehrer #edtech 	de	4	1	6	sofatutor	2017-08-02T10:33:46.000Z	2,072	2,427				
748776382507855872	841	colinschlueter	in Mannheim for #EduAction2016 , presenting @sofatutor and looking forward to discussing the future of education 	en	5	0	4		2016-07-01T07:12:55.000Z	2,072	2,427				
708020926776942592	841	colinschlueter	leaving Austin with Salt Lick BBQ and Amy’s ice creams at AUS while everyone else is arriving for #SXSW . next: AUS-ORD, ORD-LHR, LHR-TXL. 	en	2	1	0		2016-03-10T20:05:17.000Z	2,072	2,427				
707995096675782656	841	colinschlueter	leaving #SXSWEdu after a fantastic time launching @sofatutorUSA here. missing #SXSW interactive this year, but back in the States soon. 	en	0	0	0		2016-03-10T18:22:39.000Z	2,072	2,427				
707211267241484289	841	colinschlueter	Team @sofatutorusa getting ready for #SXSWedu expo with @colinschlueter 	en	3	1	2	adiba_s	2016-03-08T14:28:00.000Z	2,072	2,427				
706937758820864000	841	colinschlueter	ok, we’re live: http://us.sofatutor.com/ - fantastic teamwork by the @sofatutor and @sofatutorUSA teams and a great launch day at #SXSWedu 	en	5	1	4		2016-03-07T20:21:10.000Z	2,072	2,427				
706506703467106304	841	colinschlueter	getting ready for the @sofatutorUSA launch tomorrow: prep for #SXSWEdu , tests/finishing touches for the platform, last decisions w/ the team 	en	0	1	0		2016-03-06T15:48:19.000Z	2,072	2,427				
706030053268836353	841	colinschlueter	Hello London! quick stopover @HeathrowAirport only though. next up: #BA191 to Austin for #SXSWEdu with @sofatutorUSA 	en	2	1	1		2016-03-05T08:14:16.000Z	2,072	2,427				
705992952586354688	841	colinschlueter	ready for takeoff. literally and figuratively going to the US this weekend! #SXSWEdu @sofatutorUSA 	en	2	0	0		2016-03-05T05:46:51.000Z	2,072	2,427				
705981394929975296	841	colinschlueter	early start today: off to Austin for #SXSWEdu with the @sofatutor team, finishing the last things for the @sofatutorusa launch on the road 	en	2	0	1		2016-03-05T05:00:55.000Z	2,072	2,427				
704223380841566208	841	colinschlueter	also, we’ll be in Austin at #SXSWEdu with the team all of next week talking about the future of education and @sofatutorUSA 	en	1	0	1		2016-02-29T08:35:12.000Z	2,072	2,427				
704222108461752320	841	colinschlueter	launch week @sofatutor : a major new feature, great tech upgrades, incredible new content and a first international product in the next days 	en	9	0	4		2016-02-29T08:30:09.000Z	2,072	2,427				
621422274684538881	841	colinschlueter	Verifying myself: I am colinschlueter on Keybase.io. LnCZQ9u6OCz7KWpE7CjPhkCeumydyGhdWejp / https://keybase.io/colinschlueter/sigs/LnCZQ9u6OCz7KWpE7CjPhkCeumydyGhdWejp 	en	1	0	0		2015-07-15T20:53:10.000Z	2,072	2,427				
424881947920596992	841	colinschlueter	in Munich for #dld14 until Tuesday. let’s meet if you’re around as well! 	en	4	0	1		2014-01-19T12:32:04.000Z	2,072	2,427				
418381238245015552	841	colinschlueter	happy new year everyone! looking forward to an exciting, challenging, surprising and all around amazing 2014! 	en	0	0	0		2014-01-01T14:00:35.000Z	2,072	2,427				
398882775044227072	841	colinschlueter	thanks a lot for all the birthday wishes via Twitter, Facebook, Skype, XING, etc! 	en	0	0	0		2013-11-08T18:40:39.000Z	2,072	2,427				
392264915089911808	841	colinschlueter	what’s everyone using for exception tracking of Rails apps nowadays? @airbrake @honeybadgerapp @rollbar @getsentry @bugsnag ? something else? 	en	0	5	1		2013-10-21T12:23:38.000Z	2,072	2,427				
356495529926078466	841	colinschlueter	signed up for this thing called twttr exactly 7 years ago. didn’t expect to be one of the earliest of 100s of millions of @twitter users. 	en	3	2	0		2013-07-14T19:28:52.000Z	2,072	2,427				
345579945839431680	841	colinschlueter	Congratulations to the winners of #edtech20 - @InfoMentor , Serious Games Interactive and @sofatutor #edtecheurope 	en	0	0	8	EdTechEurope	2013-06-14T16:34:14.000Z	2,072	2,427				
312172478875172864	841	colinschlueter	back in Europe. now killing time at AMS and fighting the sleepiness. 	en	1	0	0		2013-03-14T12:04:53.000Z	2,072	2,427				
311956985593606144	841	colinschlueter	on the way back to Berlin after a great time in Austin. AUS -&gt; DTW -&gt; AMS -&gt; TXL over the next 16 hours or so. 	en	0	1	0		2013-03-13T21:48:35.000Z	2,072	2,427				
311856277095579650	841	colinschlueter	last day in Austin after a great time at #SXSWEdu and #SXSWi . any friends still in town and up for breakfast, brunch or early lunch today? 	en	0	0	0		2013-03-13T15:08:25.000Z	2,072	2,427				
309724143060934657	841	colinschlueter	and with the last keynote, #SXSWEdu is officially over. so who’s in town already for #sxsw interactive? no queues at registration yet … 	en	0	0	0		2013-03-07T17:56:04.000Z	2,072	2,427				
309718096401272833	841	colinschlueter	three educational organizations featured by @BillGates at #SXSWEdu : @DreamBox_Learn @SummitPS @inBloomEdu 	en	0	0	1		2013-03-07T17:32:03.000Z	2,072	2,427				
309713979385733120	841	colinschlueter	problem with innovation in education technology: no one wants their child in the experiment that doesn’t work. #sxswedu 	en	0	0	2		2013-03-07T17:15:41.000Z	2,072	2,427				
309681005613158402	841	colinschlueter	last day of #SXSWEdu . looking forward to the @BillGates keynote and a short moment to relax afterwards before #SXSWi starts. 	en	0	0	0		2013-03-07T15:04:39.000Z	2,072	2,427				
309446149650145280	841	colinschlueter	„Is there too much hype around MOOCs? Yes, absolutely. And if we have to hype something, what better topic to hype than education.“ #SXSWEdu 	en	0	0	1		2013-03-06T23:31:25.000Z	2,072	2,427				
309437858756837377	841	colinschlueter	„MOOCs are the biggest innovation in education since the printing press. they will change existing universities, but not replace them.“ 	en	0	0	0		2013-03-06T22:58:29.000Z	2,072	2,427				
309435991356227584	841	colinschlueter	MOOC keynote conversation at #SXSWEdu now with @coursera and @edXOnline - „this is the year of the MOOC“ 	en	0	0	0		2013-03-06T22:51:04.000Z	2,072	2,427				
309430643744460801	841	colinschlueter	side-effect of attending #SXSWEdu : seeing all stages of the transformation of the city and the ACC in preparation of the #sxswi crazyness. 	en	0	0	0		2013-03-06T22:29:49.000Z	2,072	2,427				
309413709627936770	841	colinschlueter	“today’s coolest smartphone or tablet is the worst technology our children will ever see. it’s their commodore 64.” @jcasap #SXSWEdu 	en	1	0	1		2013-03-06T21:22:31.000Z	2,072	2,427				
309352035009040384	841	colinschlueter	day 3 of #SXSWEdu . lots of insights into the US education system for me, tons of great discussions and ideas for online education. 	en	0	0	1		2013-03-06T17:17:27.000Z	2,072	2,427				
308618829804744704	841	colinschlueter	Hello Austin! Are any of my followers attending SXSW Edu or already in town for SXSW Interactive? #sxsw #SXSWEdu 	en	0	0	0		2013-03-04T16:43:57.000Z	2,072	2,427				
308347894149304320	841	colinschlueter	Hello again, United States. It’s been a year. #sxsw 	en	1	0	0		2013-03-03T22:47:21.000Z	2,072	2,427				
308163650974257152	841	colinschlueter	en route to SXSW again, this year including SXSWEdu. TXL -&gt; AMS -&gt; DTW -&gt; AUS today, staying till March 13. #sxsw #airports 	en	0	0	1		2013-03-03T10:35:14.000Z	2,072	2,427				
296854468400652289	841	colinschlueter	SXF -&gt; LGW for two days in London now. 	en	1	1	0		2013-01-31T05:36:35.000Z	2,072	2,427				
294099586899914754	841	colinschlueter	Berlin Mayor reads a text as he stands in front of a screen showing his picture... @sofatutor http://news.yahoo.com/photos/berlin-mayor-reads-text-stands-front-screen-showing-photo-140016599.html via @YahooNews 	en	0	0	2	sofatutor	2013-01-23T15:09:40.000Z	2,072	2,427				
294096471752589312	841	colinschlueter	Sachunterricht Grundschulteam: Die Hauptstadt Berlin 	de	0	0	2	sofatutor_bot	2013-01-23T14:57:17.000Z	2,072	2,427				
282236383479861248	841	colinschlueter	is anyone else having trouble with connections to Amazon AWS RDS instances? any known issues today (EU-WEST-1 region)? /cc @awscloud 	en	0	0	0		2012-12-21T21:29:32.000Z	2,072	2,427				
266605939497508865	841	colinschlueter	Thank you all for all the birthday wishes via Twitter, Facebook, Skype, emails and texts! Looking forward to an exciting next year! 	en	0	1	0		2012-11-08T18:19:43.000Z	2,072	2,427				
259570333928026113	841	colinschlueter	Hallo EduCamp! #technologie #berlin #bildungsstartup #ecil12 	es	1	0	1		2012-10-20T08:22:44.000Z	2,072	2,427				
259238049941184512	841	colinschlueter	very proud of our team @sofatutor - check out our new team page at http://www.sofatutor.com/about/team and join us! open jobs in tech, product, marketing! 	en	2	0	2		2012-10-19T10:22:22.000Z	2,072	2,427				
259038859432706048	841	colinschlueter	crossed the 8000 education videos mark at @sofatutor tonight. off to Ilmenau tomorrow for the EduCamp with our awesome team. #ecil12 	en	1	0	0		2012-10-18T21:10:51.000Z	2,072	2,427				
255890675483176961	841	colinschlueter	Früh morgens auf dem Weg zur Buchmesse in Frankfurt! Ist von unseren Followern auch jemand vor Ort? #fbm12 	de	0	1	1	sofatutor	2012-10-10T04:41:05.000Z	2,072	2,427				
255880174057435136	841	colinschlueter	early start in the day for a quick @sofatutor trip to the Frankfurt Book Fair today. 	en	0	0	1		2012-10-10T03:59:22.000Z	2,072	2,427				
250169430775050241	841	colinschlueter	Top #news ! @sofatutor welcomes Acton Capital Partners on board as #investor ! 	en	1	0	3	sofatutor	2012-09-24T09:46:54.000Z	2,072	2,427				
250188285274640384	841	colinschlueter	Online Tutoring Platform Sofatutor Raises ‘Mid Single-Digit Million Euro’ Round From Acton Capital Partners 	et	0	1	6	mikebutcher	2012-09-24T11:01:50.000Z	2,072	2,427				
236408116839862273	841	colinschlueter	urgent: any recommendations for an apple/mac repair shop/service provider in Berlin to have a look at my dead MacBook Pro today? 	en	0	3	1		2012-08-17T10:24:21.000Z	2,072	2,427				
235786639962677248	841	colinschlueter	http://sofatutor.com is about to launch something big for small people :) @sofatutor 	en	0	0	2	murphy_karasu	2012-08-15T17:14:50.000Z	2,072	2,427				
216022236820279296	841	colinschlueter	early morning again: on the way to TXL for a day of meetings in Munich. 	en	0	0	0		2012-06-22T04:18:09.000Z	2,072	2,427				
215030769893113857	841	colinschlueter	Expertenbeitrag von sofatutor-Gründer Stephan Bayer auf iBusiness.de: Wie wir unsere Kinder aus der Kreidezeit befreien 	de	0	0	2	sofatutor	2012-06-19T10:38:25.000Z	2,072	2,427				
213183011338993664	841	colinschlueter	London friends: I’m in town for today and have some time in between meetings. let me know if you wanna meet up for coffee/lunch/whatever. 	en	0	1	0		2012-06-14T08:16:05.000Z	2,072	2,427				
212756446893453313	841	colinschlueter	early start today, off to London for two days of meetings. 	en	0	0	0		2012-06-13T04:01:04.000Z	2,072	2,427				
212471649423994882	841	colinschlueter	any recommendations for a nice, centrally located hotel in London on a startup budget? also: I’m in London tmrw/thu - happy to meet up … 	en	0	1	0		2012-06-12T09:09:23.000Z	2,072	2,427				
200494743346614272	841	colinschlueter	Ich bin Rechtsanwältin :-) 	de	2	4	6	lisakiwi	2012-05-10T07:57:26.000Z	2,072	2,427				
199752601108086784	841	colinschlueter	arrived at #next12 . let me know if you're around and want to meet. 	en	0	1	0		2012-05-08T06:48:25.000Z	2,072	2,427				
178954037297807360	841	colinschlueter	town of tel aviv wants to connect with berlin / german startups, ping me if you are interested so i can ping you more infos #sxsw #berlin 	en	0	1	4	nicolesimon	2012-03-11T21:22:21.000Z	2,072	2,427				
178628229291180033	841	colinschlueter	Ok, time to think about dinner &amp; drinks tonight - what is everyone planning? 	en	0	0	0		2012-03-10T23:47:43.000Z	2,072	2,427				
177947449489502209	841	colinschlueter	5 airports, 4 planes, 3 airlines and 3 security checks later, I finally arrived in Austin. still waiting at baggage claim though. #sxsw 	en	0	0	0		2012-03-09T02:42:32.000Z	2,072	2,427				
177845071905951744	841	colinschlueter	smoothie and yogurt at JFK terminal 3. trying to stay awake here, it's only 3pm local time but I've been up way too long already. 	en	0	1	0		2012-03-08T19:55:44.000Z	2,072	2,427				
177838306543927297	841	colinschlueter	made it to the US. now at JFK, onwards to Austin via Atlanta in a bit. #sxsw 	en	0	0	0		2012-03-08T19:28:51.000Z	2,072	2,427				
177601219366371328	841	colinschlueter	up very early and on the way to the airport. TXL -&gt; BRU -&gt; JFK -&gt; ATL -&gt; AUS in the next too many hours. #sxsw 	en	0	0	0		2012-03-08T03:46:45.000Z	2,072	2,427				
177355351933468672	841	colinschlueter	last day in the office before #sxsw . planning, organizing and lots of last minute sessions &amp; decisions. 	en	0	1	0		2012-03-07T11:29:45.000Z	2,072	2,427				
176631236402479105	841	colinschlueter	ok, friends &amp; followers, who's going to be at #SXSW this year? let's meet/talk/party/have a drink/lunch/whatever - just let me know. 	en	0	0	0		2012-03-05T11:32:23.000Z	2,072	2,427				
175989057837465600	841	colinschlueter	travel planning for the rest of March. off to Austin next week, followed by New York the week after. 	en	1	1	0		2012-03-03T17:00:35.000Z	2,072	2,427				
139049820299071489	841	colinschlueter	on the way back to Berlin after a fun weekend at #ecbi11 and two inspiring days at #btconf - had a great time at both events. 	en	0	0	0		2011-11-22T18:37:15.000Z	2,072	2,427				
139021045733658624	841	colinschlueter	after two great conference days, #btconf is closing with two fantastic talks by @jaffathecake and @jontangerine . 	en	0	1	2		2011-11-22T16:42:54.000Z	2,072	2,427				
138661860651180032	841	colinschlueter	rainbow particles, unicode snow, robo trees and skip intros - @seb_ly is fantastic. #btconf 	en	0	0	1		2011-11-21T16:55:38.000Z	2,072	2,427				
138648070517833728	841	colinschlueter	really enjoying #btconf - great speakers, high quality talks, lovely crowd, an awesome theatrical venue. reminds me of #dconstruct . 	en	0	0	0		2011-11-21T16:00:50.000Z	2,072	2,427				
138574074770231296	841	colinschlueter	next talk by @AaronGustafson after a lovely and incredibly fast-paced talk on innovation and thinking tools by @sniffles 	en	0	0	0		2011-11-21T11:06:48.000Z	2,072	2,427				
138559456786137088	841	colinschlueter	great first talk by @codepo8 at @btconf this morning. very much looking forward to the rest of the conference. 	en	0	0	0		2011-11-21T10:08:43.000Z	2,072	2,427				
138263983470813184	841	colinschlueter	leaving Bielefeld now after a great time at #ecbi11 with the @sofatutor team. now on the way to Düsseldorf for @btconf tomorrow and Tuesday. 	en	0	1	0		2011-11-20T14:34:37.000Z	2,072	2,427				
137904171235020801	841	colinschlueter	"Lernen mit Videos" @kawewe erklärt wunderschön @sofatutor - danke! 	de	0	0	1	sofatutor	2011-11-19T14:44:51.000Z	2,072	2,427				https://pbs.twimg.com/media/AenvHPPCEAAGUzI?format=jpg&amp;name=360x360
137884286949924864	841	colinschlueter	at the educamp in Bielefeld today and tomorrow with the @sofatutor team. lots of interesting sessions, fun event so far. #ecbi11 	en	0	1	0		2011-11-19T13:25:50.000Z	2,072	2,427				
133821004328869888	841	colinschlueter	now on the way to @velocityconf europe. any of my followers there today? #velocityconf 	en	0	0	0		2011-11-08T08:19:48.000Z	2,072	2,427				
133815338742714369	841	colinschlueter	thanks @iamdanw @novemberborn @jcfischer @dotdean @dailyCbreak for the late night/early morning birthday wishes! 	en	0	2	0		2011-11-08T07:57:17.000Z	2,072	2,427				
133813664179425281	841	colinschlueter	mentioned in @dailyCbreak , lots of presents to unwrap, having cake for breakfast: day's off to a great start. #27 	en	1	0	0		2011-11-08T07:50:38.000Z	2,072	2,427				
133682778897264641	841	colinschlueter	27. 	und	0	3	1		2011-11-07T23:10:32.000Z	2,072	2,427				
130187762598023168	841	colinschlueter	arrived at @railscamp_hh . looking forward to the weekend. #rchh 	en	0	0	0		2011-10-29T07:42:36.000Z	2,072	2,427				
129538065051029504	841	colinschlueter	unfortunately now looking for a very last minute place to stay for 3 people in Hamburg this weekend. anything not booked out? any pointers? 	en	0	2	0		2011-10-27T12:40:56.000Z	2,072	2,427				
127714622563299328	841	colinschlueter	a friend is urgently looking for a room/flat-share in London for the next 2 months. any help/pointers/RTs would be great! 	en	0	0	1		2011-10-22T11:55:13.000Z	2,072	2,427				
108812612208300032	841	colinschlueter	decisions. 	en	0	0	0		2011-08-31T08:05:23.000Z	2,072	2,427				
103381930803855360	841	colinschlueter	Viele neue Jobs bei sofatutor: Junior+Senior: Entwicklung, Marketing, Produktmanagement &amp; Redaktion http://www.sofatutor.com/jobs Please RT! 	de	1	0	16	sofatutor	2011-08-16T08:25:47.000Z	2,072	2,427				
100874587717386240	841	colinschlueter	Keep some eLearning in the top ten and vote for us: http://bit.ly/o3RrTC preferably once a day! RTs welcome. 	en	0	0	5	sofatutor	2011-08-09T10:22:30.000Z	2,072	2,427				
97981948353449985	841	colinschlueter	We need you! Pls vote for us as one of the top projects at "Deutschland - Land der Ideen" &amp; RT http://bit.ly/o3RrTC 	en	0	0	5	sofatutor	2011-08-01T10:48:11.000Z	2,072	2,427				
83477234198913024	841	colinschlueter	We just hit 5000 videos - whoooo! Big thanks to the whole team especially content. 	en	0	1	4	sofatutor	2011-06-22T10:11:38.000Z	2,072	2,427				
67489197325418496	841	colinschlueter	back in Berlin after a few fantastic honeymoon days in Rome with @lisakiwi . had an awesome time in a wonderful city! 	en	1	0	0		2011-05-09T07:20:53.000Z	2,072	2,427				
65658486192746497	841	colinschlueter	waiting at the airport. TXL -&gt; FCO next for a few honeymoon days in Rome with @lisakiwi . 	en	1	0	0		2011-05-04T06:06:17.000Z	2,072	2,427				
65543696334073856	841	colinschlueter	late night packing for our mini-honeymoon starting tomorrow: 5 days in Rome thx to our parents! 	en	1	0	0		2011-05-03T22:30:09.000Z	2,072	2,427				
65321111352639488	841	colinschlueter	Thanks a lot for all the lovely messages on Twitter and Facebook. We had a fantastic wedding day &amp; weekend - insanely happy with @lisakiwi ! 	en	0	0	0		2011-05-03T07:45:41.000Z	2,072	2,427				
64244013393379328	841	colinschlueter	woohoo! today is the day! incredibly happy and excited to get married today! 	en	1	1	0		2011-04-30T08:25:41.000Z	2,072	2,427				
63150509799911424	841	colinschlueter	only three more days till the wedding. very excited, nervous and still busy organising all the last minute details. 	en	0	0	0		2011-04-27T08:00:29.000Z	2,072	2,427				
61170163323645952	841	colinschlueter	new favorite commit message: '#1267: fix IE7 popup issue. ceterum censeo septem internet explorum esse delendam.' 	de	1	0	1		2011-04-21T20:51:18.000Z	2,072	2,427				
61089727440363520	841	colinschlueter	anyone using acts_as_edgy and/or @directededge ? serious trouble getting it to work as it only seems to work with spree's data model ... 	en	0	0	0		2011-04-21T15:31:40.000Z	2,072	2,427				
57216843089326080	841	colinschlueter	feeling completely broken and incredibly angry. worst day in a long time. 	en	0	0	0		2011-04-10T23:02:13.000Z	2,072	2,427				
53861730127855616	841	colinschlueter	need to test a fax2mail gateway without actually having a physical fax machine. can someone please fax me something to +4930515882229? 	en	0	0	1		2011-04-01T16:50:11.000Z	2,072	2,427				
49255512407162881	841	colinschlueter	on my way back to Berlin, SFO -&gt; LHR later, then LHR -&gt; TXL tomorrow. 	en	0	0	0		2011-03-19T23:46:43.000Z	2,072	2,427				
1292987579231436805	874	waynesutton	Finally jumping on the streaming train! Join me &amp; @visnup this Thu at 10am PT as we try to visualize some SF budget data ((📽️)) ((🖥️)) ((🙌🏽)) All aboard, choo choo! ((☁️)) ((☁️)) ((☁️)) ((🚂)) ((🚃)) ((🚃)) ((🚃)) 	en	25	1	4	AnjanaVakil	2020-08-11T00:53:56.000Z	1,247	72,481				
1292967922508410880	874	waynesutton	Exploring &amp; experimenting is our jam, so let's try something new! ((✨)) Starting this week, we're launching a Twitch stream where we can code &amp; learn together ((💞)) https://buff.ly/3fScoNG Join us! 1st stream Thu Aug 13 at 10 PT: Exploring City Budget Data w/ @visnup &amp; @AnjanaVakil ((🤑)) 	en	28	0	11	observablehq	2020-08-10T23:35:49.000Z	1,247	72,481				
1292968523052982272	874	waynesutton	On a walk &amp; talk work call, I passed the fenced-in skateboard park where I saw a crowd of kids &amp; some adults all with their phones out recording two boys fighting. I muted my phone &amp; started yelling stop! They didn't, everyone kept filming &amp; all no mask. ((😢)) 	en	5	0	0		2020-08-10T23:38:12.000Z	1,247	72,481				
1292883978047766528	874	waynesutton	Welcome to the team @LaurenJBuchman ((🎉)) 	en	8	0	1	observablehq	2020-08-10T18:02:15.000Z	1,247	72,481				
1291543174750457857	874	waynesutton	On @Dev14e 's teatime chat we were joking about Six Californias and I proposed an alternate plan: partition California into ten states based on the closest UC made in @observablehq by forking some existing Voronoi code source: https://observablehq.com/d/c56fd2418e722a25 	en	66	8	15	ManishEarth	2020-08-07T01:14:23.000Z	1,247	72,481				https://pbs.twimg.com/media/Eex69jvVoAAWhlG?format=png&amp;name=360x360
1291416296840556545	874	waynesutton	Just hit me that, @MichelleObama is dealing with "low-grade-depression" ((😢)) A lot of other humans are dealing with serious next level depression and may not even know it. That was me years ago. Please keep discussing #Mentalhealth &amp; check on your friends &amp; family. #depression 	en	18	0	3		2020-08-06T16:50:13.000Z	1,247	72,481				
1291156177414496258	874	waynesutton	How powerful it is to have Michelle Obama speak so honestly and openly about something so many of us are feeling and trying to manage. She’s still leading. 	en	3780	192	915	JessOConnell	2020-08-05T23:36:35.000Z	1,247	72,481				
1291200312943009793	874	waynesutton	Michelle Obama: "Not just because of the quarantine, but because of the racial strife, and just seeing this administration, watching the hypocrisy of it, day in and day out, is dispiriting." 	en	6318	222	1177	Amy_Siskind	2020-08-06T02:31:58.000Z	1,247	72,481				
1290606061037031424	874	waynesutton	Happy Birthday to the most awesome @BarackObama @POTUS44 #PresidentObama #Obama #ObamaDay #BarackObama 	en	22	1	3	shaft	2020-08-04T11:10:37.000Z	1,247	72,481		https://video.twimg.com/tweet_video/EeknXZfVoAA10uV.mp4	https://pbs.twimg.com/tweet_video_thumb/EeknXZfVoAA10uV.jpg	
1290256823644168197	874	waynesutton	This session will be a hands-on workshop using @observablehq (a notebook platform to write javascript). We will use the visualization library @vega_vis to explore a dataset and sketch data visualizations quickly! Next wednesday, August 12th. 	en	21	1	17	datavisZRH	2020-08-03T12:02:53.000Z	1,247	72,481				
1290337694753513472	874	waynesutton	Personally, I'm "good and grateful" but also very scared and nervous about the world. A lot of humans are hurting emotionally, mentally, physically &amp; financially. And we need to do more to support each other. Needed to let these feelings out. Going back ((🤫)) and focus on work ((✌🏾)) 	en	14	0	0		2020-08-03T17:24:14.000Z	1,247	72,481				
1290335752060981250	874	waynesutton	#maskon ((😷)) or ((🏠)) / ((💯)) 	und	8	0	1		2020-08-03T17:16:31.000Z	1,247	72,481				
1290335532896067584	874	waynesutton	Going for my 3rd #covid19 test tomorrow (every 2 weeks). Everyone should. I have friends &amp; family who have lost loved ones to #covid19 . One of my uncles in NC is currently in the hospital with #covid19 . To say I'm angry about the current state of the world is an understatement. 	en	41	5	2		2020-08-03T17:15:38.000Z	1,247	72,481				
1290080906586157056	874	waynesutton	Pick your online communities carefully &amp; consciously. The right communities offer a glimpse of the future &amp; foster peer relationships that virtuously compound. Bad communities foster cult-like &amp; conspiratorial thinking. The deeper you go, the more detached from reality you get. 	en	144	5	34	rsg	2020-08-03T00:23:51.000Z	1,247	72,481				
1289386079326412800	874	waynesutton	#facts 	und	5	0	1		2020-08-01T02:22:51.000Z	1,247	72,481				
1289274055397273603	874	waynesutton	((📺)) New Video! Learning Observable: Sharing, Publishing &amp; Embedding ((💞)) Once you've made a rad #DataViz or other cool thing in Observable, you gotta show it off! ((📣)) ((✨)) @AnjanaVakil demos how to share &amp; publish notebooks and embed your work on other sites: 	en	26	1	4	observablehq	2020-07-31T18:57:43.000Z	1,247	72,481				
1289291047676211201	874	waynesutton	Thx @AnjanaVakil for this video series! ((👏)) Folks -- highly recommend this approachable and punchy series if you're looking to learn more abt @observablehq , #dataviz and even #javascript 	en	7	0	8	TheDeepti	2020-07-31T20:05:14.000Z	1,247	72,481				
1288817636277727232	874	waynesutton	#BreonnaTaylor for our September cover. 	en	25987	204	9485	oprahmagazine	2020-07-30T12:44:04.000Z	1,247	72,481				https://pbs.twimg.com/media/EeLMv5GXYAAUeft?format=jpg&amp;name=240x240 https://pbs.twimg.com/media/EeLMwLVWkAIvaSc?format=jpg&amp;name=240x240
1273724494520053761	874	waynesutton	Stunning six-minute history lesson about a time in our country that folks of all colors don’t know much about. Most schools never teach it. Thanks to @eji_org for creating this. Also: That’s my sister @TeraDuVernay narrating. I couldn’t be more proud. 	en	53623	769	24237	ava	2020-06-18T21:09:18.000Z	1,247	72,481		blob:https://twitter.com/d4db8025-f9d1-4b5a-aafc-1809d05f2436	https://pbs.twimg.com/media/Eaps4CfXYAImXaT.jpg	
1289007654799515649	874	waynesutton	How I do grocery shopping in 2020 ((😷)) 	en	80	6	2		2020-07-31T01:19:08.000Z	1,247	72,481				https://pbs.twimg.com/media/EeN5bewU4AETxj-?format=jpg&amp;name=360x360
1288900548163297280	874	waynesutton	We're now live for our July meetup on team culture! Join us ((👉)) 	en	5	0	2	observablehq	2020-07-30T18:13:31.000Z	1,247	72,481				
1288853493411803136	874	waynesutton	John Lewis asked that this be published on the day of his funeral. He is still guiding and inspiring us from heaven. Absolutely beautiful! Opinion | John Lewis: Together, You Can Redeem the Soul of Our Nation - The New York Times 	en	31	0	11	d_lux_brand	2020-07-30T15:06:33.000Z	1,247	72,481				
1288696514395570176	874	waynesutton	((💯)) 	und	9	1	0		2020-07-30T04:42:46.000Z	1,247	72,481				
1288563417184440322	874	waynesutton	I'm past tired reading about Black men dying in their 40s. 	en	5	0	2	michaelmcgee	2020-07-29T19:53:53.000Z	1,247	72,481				
1282063478614749184	874	waynesutton	I could not agree more! 	en	6	0	1	PaulSaiedi	2020-07-11T21:25:27.000Z	1,247	72,481				
1288631685722984450	874	waynesutton	Almost three times as many black people are dying of the virus compared with white people and at least 20,000 African Americans have died, according to Amp Research Lab. #BLACK_LIVES_MATTER 	en	40	3	30	shaft	2020-07-30T00:25:10.000Z	1,247	72,481				https://pbs.twimg.com/media/EeIjbWPUYAAEocP?format=png&amp;name=360x360
1288630368384380928	874	waynesutton	Also, join us as Melody talks about her journey and for a discussion with team members abt our #culture TOMORROW! 	en	1	0	1	TheDeepti	2020-07-30T00:19:56.000Z	1,247	72,481				
1288608711833874438	874	waynesutton	This is a moving and powerful read.... super proud of @mmeckf for sharing her story with vulnerability and authenticity... I highly recommend reading it, esp. if you're in the startup world right now ((❤️)) 	en	6	1	1	TheDeepti	2020-07-29T22:53:52.000Z	1,247	72,481				
1288610692002508800	874	waynesutton			2	0	1	AnjanaVakil	2020-07-29T23:01:44.000Z	1,247	72,481				
1288610452402925569	874	waynesutton	It's been a wild few months &amp; an especially weird time to join a new team, but @observablehq has made it work ! So thrilled &amp; grateful to work with these amazingly supportive folks ((🥰)) Read our CEO's thoughts on adapting ((👇🏽)) &amp; join our meetup tmrw for live discussion w/ the team! 	en	17	1	1	AnjanaVakil	2020-07-29T23:00:47.000Z	1,247	72,481				
1288603137658494976	874	waynesutton	((😷)) I had another shot at correlating face mask adoption in U.S. with political identity. This time using the recent survey conducted by the @nytimes at county level https://nyti.ms/2D33L5f ((🔖)) @observablehq notebook https://observablehq.com/@karimdouieb/who-is-wearing-masks-in-the-u-s 	en	171	6	66	karim_douieb	2020-07-29T22:31:43.000Z	1,247	72,481		https://video.twimg.com/tweet_video/EeIIctrXkAAqpa4.mp4	https://pbs.twimg.com/tweet_video_thumb/EeIIctrXkAAqpa4.jpg	
1288562921912463361	874	waynesutton	Thanks so much @fp_istanbul for having me, I had tons of fun nerding out with you all! ((🤓)) Slides from the talk, live code samples you can play with, &amp; further readings are all in this @observablehq notebook ((➡️)) https://observablehq.com/@anjana/the-universe-in-a-single-arrow Hope to see you IRL in Istanbul next time! 	en	30	0	11	AnjanaVakil	2020-07-29T19:51:55.000Z	1,247	72,481				
1288581366649688067	874	waynesutton	"The Great Adaptation" 2020 has had many challenges ((❤️)) How does a team go from surviving to thriving in uncertain times? What does it mean to build a team - culture first? Our own @mmeckf describes her journey, our growth &amp; culture (so far) this year. https://buff.ly/3fbH1wX 	en	24	1	6	observablehq	2020-07-29T21:05:13.000Z	1,247	72,481				https://pbs.twimg.com/media/EeH17EMXoAAxG51?format=png&amp;name=360x360
1288587172874878976	874	waynesutton	Read about learning, growing, and the challenges of running a startup in 2020 from @observablehq CEO @mmeckf . And the reasons why I'm excited to work at @observablehq ! 	en	5	0	0		2020-07-29T21:28:17.000Z	1,247	72,481				
1288583115057725445	874	waynesutton	I wrote about our experience building @observablehq in 2020. It's about our journey together during this crazy time. We can't do what we doing for the @observablehq community without this group of folks. Grateful every day. 	en	29	1	6	mmeckf	2020-07-29T21:12:10.000Z	1,247	72,481				
1288524755465691136	874	waynesutton	Looking forward to sharing our company journey at @observable . I will talk about our culture and how we adapted in 2020. Join us! 	en	8	2	2	mmeckf	2020-07-29T17:20:15.000Z	1,247	72,481				
1288522887293329408	874	waynesutton	Reminder to RSVP for our next meetup tomorrow: ((🗣️)) Observable Tells All! We are diving into #culture . ((📆)) July 30th, 11:00am PDT. RSVP ((➡️)) https://buff.ly/3cLiNsF Come listen to @mmeckf @Cass_Ferrara @francesachong @kudamushaike @waynesutton &amp; more about their experiences in 2020 	en	11	0	11	observablehq	2020-07-29T17:12:50.000Z	1,247	72,481				
1287844200852197378	874	waynesutton	The shrinking ice cap accelerates warming globally, and that melting ice in turn leads to rising sea levels potentially exposing millions of people to flooding https://trib.al/ZqQFaQv 	en	1119	34	786	climate	2020-07-27T20:15:59.000Z	1,247	72,481				https://pbs.twimg.com/media/Ed9VyaEXsAASZNa?format=png&amp;name=360x360
1287844192258084872	874	waynesutton	A ship loaded with about 100 climate scientists just confirmed the obvious: the Arctic is melting. What’s most terrifying: they’re witnessing the Arctic’s final summers with ice 	en	7876	494	8033	climate	2020-07-27T20:15:57.000Z	1,247	72,481				
1287786590916374533	874	waynesutton	Yes, to everything @TheDeepti says. Join us this Thursday to learn more about #culture at Observable. RSVP ((👉)) https://observablehq.com/@observablehq/meetup 	en	5	0	1	observablehq	2020-07-27T16:27:03.000Z	1,247	72,481				
1286855670889758721	874	waynesutton	2020 has been hard ... &amp; created unique challenges for those of us joining or running startups Really proud of the people-first #culture we’re establishing from the ground up @observablehq Come join the discussion w/ our inspiring CEO @mmeckf &amp; teammates abt #culture 	en	18	1	6	TheDeepti	2020-07-25T02:47:55.000Z	1,247	72,481				
1286315637275598849	874	waynesutton	Rep @AOC : "I do not need Rep. Yoho to apologize to me. Clearly he does not want to. Clearly when given the opportunity he will not &amp; I will not stay up late at night waiting for an apology from a man who has no remorse over calling women &amp; using abusive language towards women." 	en	265722	11131	113208	cspan	2020-07-23T15:02:01.000Z	1,247	72,481		blob:https://twitter.com/a4d17408-d9f7-4dc1-9968-53fc8ef22ce9	https://pbs.twimg.com/media/EdnpG4JWsAAXhnu.jpg	
1286715556024872961	874	waynesutton	Every human watch this! 	en	29	3	5		2020-07-24T17:31:09.000Z	1,247	72,481				
1286672484830511105	874	waynesutton	Michael B. Jordan is calling on Hollywood to invest in anti-racist content and authentic Black stories. #ChangeHollywood 	en	2280	168	913	etalkCTV	2020-07-24T14:40:00.000Z	1,247	72,481				
1286708737374330881	874	waynesutton	((Speaking head in silhouette)) Observable Tells All! We are diving into #culture for our next meetup. ((Tear-off calendar)) July 30th, 11:00am PDT. RSVP ((Rightwards arrow)) https://buff.ly/3cLiNsF Come listen to @mmeckf @Cass_Ferrara @francesachong @kudamushaike @waynesutton &amp; what they have to say about their experiences so far in 2020. 	en	11	0	6	observablehq	2020-07-24T17:04:03.000Z	1,247	72,481				
1286413374381862913	874	waynesutton	((Television)) New Video! Learning Observable: Getting Data into a Notebook ((Inbox tray)) To do #DataScience &amp; #DataVisualization in Observable, you need some data to work with! ((Card file box)) @AnjanaVakil shows how to get data from local files, APIs, databases &amp; more into a notebook: 	en	38	0	13	observablehq	2020-07-23T21:30:23.000Z	1,247	72,481				
1285416207856750592	874	waynesutton	@enjalot - Welcome to the @observablehq team! Excited about what we will build for the community. We are so lucky you joined. 	en	7	1	2	mmeckf	2020-07-21T03:28:00.000Z	1,247	72,481				
1285335105607815171	874	waynesutton	Two words: Psychological Safety. It should be part of your companies foundational tenants as you’re working toward equitable solutions in the workplace. 	en	172	10	51	MindaHarts	2020-07-20T22:05:44.000Z	1,247	72,481				
1284592437378179072	874	waynesutton	This notebook shows some of the process I did with another lichtenstein piece 	en	3	0	1	pstuffa	2020-07-18T20:54:38.000Z	1,247	72,481				
1284613219915452416	874	waynesutton	"Covid-19 US States Explorer" Interactively search for states' data and date start points. (Change default picks to view your interests.) View trend lines. #covid19 #covid19data #covid19statesinfo 	en	2	0	1	whilldtkwriter	2020-07-18T22:17:13.000Z	1,247	72,481				
1285229720074891264	874	waynesutton	Site con data global de Covid predice casos bastaante bien: En lila los casos confirmados En verde la estimación real En rojo los muertos Con la fase 3 empezó a explotar la curva ((Chart with upwards trend)) Hoy 30 muertos Predicción p/ 11 Agosto ~90 ((Skull)) Sequera ikatu pio un freno ? https://observablehq.com/@danyx/estimating-sars-cov-2-infections 	es	2	0	2	seba_sagan	2020-07-20T15:06:58.000Z	1,247	72,481				https://pbs.twimg.com/media/EdYLlwsWkAEVPDY?format=png&amp;name=240x240 https://pbs.twimg.com/media/EdYLnHnWAAMXLba?format=png&amp;name=240x240
1285248532409135106	874	waynesutton	The Plug 50: 25 Black Women Executives with Successful Exits &amp; 25 Who May Be Next @tpinsights data fellow @LenieceFlowers pulled together a database to track the progress of Black women-led companies. See what she discovered in our PRO member story... https://tpinsights.com/2020/07/20/black-women-exits-and-acquisitions/ 	en	465	6	264	Sherrell_Dorsey	2020-07-20T16:21:43.000Z	1,247	72,481				https://pbs.twimg.com/media/EdYeQyMXYAIdt30?format=jpg&amp;name=360x360
1285249483647877120	874	waynesutton	This is dope! Now I'm in a group chat trying to think of more than 5 Black male founders that have had tech exits lol 	en	49	6	10	OneBandwagonFan	2020-07-20T16:25:30.000Z	1,247	72,481				
1285387657808248832	874	waynesutton	As a black/brown human, I am NOT supportive of using "BIPOC" #thatisall 	en	80	14	8		2020-07-21T01:34:33.000Z	1,247	72,481				
1285359085202706433	874	waynesutton	woah! today was my first day at @observablehq and I am so excited ((Smiling face with open mouth and tightly-closed eyes)) if you've followed me at all, you know this is a dream job: making it easier to use / play / think with #d3js will be a big part of my focus... i mean, just look at this stuff! 	en	521	32	34	enjalot	2020-07-20T23:41:01.000Z	1,247	72,481				
1285211107486060544	874	waynesutton	FYI to those in #devrel , @observablehq recently opened a developer advocate position: https://bit.ly/32DPzdD You'd get to work with @mbostock @mmeckf @nebrius @waynesutton and @Cass_Ferrara , so I mean that's a pretty sweet deal 	en	6	0	6	drnugent	2020-07-20T13:53:00.000Z	1,247	72,481				
1284901263570685954	874	waynesutton	#facts 	und	4	0	1		2020-07-19T17:21:48.000Z	1,247	72,481				
1284693917292797952	874	waynesutton	Look at where you are. Look at where you started. The fact that you’re alive is a miracle.... 	en	250	4	54	sianmorson	2020-07-19T03:37:52.000Z	1,247	72,481				
1284480100931637250	874	waynesutton	You wanna honor John Lewis? Vote. 	en	122680	595	33733	goayango	2020-07-18T13:28:15.000Z	1,247	72,481				
1284557842171617280	874	waynesutton	We are lowering our City's flags to half-staff and will light up City Hall red, white, and blue tonight in honor of the great Congressman John Lewis. 	en	3755	24	352	LondonBreed	2020-07-18T18:37:10.000Z	1,247	72,481				
1284358592083169280	874	waynesutton	Not many of us get to live to see our own legacy play out in such a meaningful, remarkable way. John Lewis did: 	en	477678	8657	106760	BarackObama	2020-07-18T05:25:25.000Z	1,247	72,481				
1284137920409088001	874	waynesutton	Civil rights leader Rev. Cordy Tindell "CT" Vivian has died of natural causes at 95, his daughter says. Vivian participated in the Freedom Rides and worked alongside Martin Luther King Jr. during the civil rights movement. 	en	2751	110	1720	CNN	2020-07-17T14:48:33.000Z	1,247	72,481				
1284342015405305856	874	waynesutton	A scene from 2018, in which civil rights icon Rep. John Lewis danced along to Pharrell's "Happy" at a rally for Stacey Abrams in Decatur, Georgia. The long-serving and beloved congressman has passed away at age 80. http://abcn.ws/3hcWhuZ 	en	12458	156	3222	ABC	2020-07-18T04:19:33.000Z	1,247	72,481		blob:https://twitter.com/39c5e8de-26c7-4b10-9a26-857200e90ef3	https://pbs.twimg.com/amplify_video_thumb/1284341465246728192/img/_EDbrHNEoQn1KfhX.jpg	
1284330440451665920	874	waynesutton	Noooo! Not John Lewis. I so didn't want to read this...not yet. What a loss. Thank you for all you stood for, all you taught &amp; all you gave. We can never truly thank or honor you enough. What an incredible life! RIP, sir. #JohnLewis ((Pleading face)) ((Loudly crying face)) ((✊🏾)) ((🙏🏾)) 	en	6655	65	1827	justwrite115	2020-07-18T03:33:33.000Z	1,247	72,481				https://pbs.twimg.com/media/EdLbUcSXkAEf5hT?format=jpg&amp;name=240x240 https://pbs.twimg.com/media/EdLbW2QWoAAVfEG?format=jpg&amp;name=360x360
1284351075240169472	874	waynesutton	Damn you 2020! RIP Sir! 	en	18	0	3		2020-07-18T04:55:33.000Z	1,247	72,481				
1283127413803814912	874	waynesutton	Great conversation I'm listening to between Dr. Angel Acosta and @mbrianaepler . Dr. Acosta is speaking incredible truths. Definitely plan to keep following him and @changecatalysts . Shout out to the interpreter, Rebecca, as well. #SystemicRacism #racialequity #neuroscience 	en	8	1	4	tarikhcampbell	2020-07-14T19:53:09.000Z	1,247	72,481				https://pbs.twimg.com/media/Ec6VlRMXoAEUrHk?format=jpg&amp;name=360x360
1284245860830896128	874	waynesutton	((Television)) New Video! June Office Hours: Public Comments ((Speech balloon)) @waynesutton hosts Q&amp;A with devs @visnup @kerryrodden @ballingt on our new public comments feature &amp; how we built it. Watch &amp; Subscribe ((Eyes)) https://buff.ly/2BayKeX ((Calendar)) Save the date for our next virtual event on July 30 	en	6	0	2	observablehq	2020-07-17T21:57:28.000Z	1,247	72,481				
1284126783676256259	874	waynesutton	Police killed #EricGarner 6 years ago today. Officer Daniel Pantaleo held him in a banned police chokehold. He was never criminally charged, and only fired last year. Almost 1,000 people have reported the NYPD using banned chokeholds on them since Garner's killing. 	en	8710	84	8050	ajplus	2020-07-17T14:04:17.000Z	1,247	72,481				https://pbs.twimg.com/media/EdIflPGXoAIwC4w?format=jpg&amp;name=360x360
1283932936887132160	874	waynesutton	Thanks to @jashkenas for his work making licensing possible on @observablehq . Check it out! 	en	7	2	1	mmeckf	2020-07-17T01:14:01.000Z	1,247	72,481				
1284147671284891648	874	waynesutton	Everything we do in life is an attempt to confirm three questions: ((Lock)) Am I safe? ((Smiling face with 3 hearts)) Am I loved? ((Beating heart)) Am I good? This is a tough time to feel safe, a complicated time to feel loved, a confusing time to feel good. If everything feels a lot harder right now, you’re not alone ((Growing heart)) 	en	163	3	37	dremilyanhalt	2020-07-17T15:27:17.000Z	1,247	72,481				
1283834973854642178	874	waynesutton	Thanks @aboutaaron for sharing this work on @observablehq 	en	10	0	3	mmeckf	2020-07-16T18:44:44.000Z	1,247	72,481				
1283856073653288960	874	waynesutton	Thanks for the replies DMs &amp; text. Felt better releasing those feelings. I had a couple of calls with my team &amp; a mentor/friend. Feeling better. I have to start back seeing a therapist &amp; practicing self-care in different ways because we’re in different times. Hang in there ((Red heart)) 	en	60	4	0		2020-07-16T20:08:35.000Z	1,247	72,481				
1283822430167773184	874	waynesutton	Been quiet on here lately Productivity is down and I'm holding feelings in. On the verge of depression and daily overall sadness and anger with humans not being good humans to other humans in 2020 and the state of affairs in our world. 	en	157	44	5		2020-07-16T17:54:54.000Z	1,247	72,481				
1283807725768577026	874	waynesutton	After 2 years (!!!), I finally finished explaining how @emamd &amp; I built the dot-density maps for our project on racial segregation in the U.S. It's mostly thanks to @observablehq , which did not exist when we first published ((👴🏿)) ((Sparkles)) 	en	605	14	164	aboutaaron	2020-07-16T16:56:28.000Z	1,247	72,481				
1283806063985221632	874	waynesutton	During all time highs on COVID... 	en	32	2	12	dpatil	2020-07-16T16:49:52.000Z	1,247	72,481				
1283806701167075328	874	waynesutton	((Crying face)) ((Face with symbols over mouth)) 	und	9	0	1		2020-07-16T16:52:24.000Z	1,247	72,481				
1283802390068518912	874	waynesutton	((Memo)) Free and open source licenses are a great way to give other people certainty that they’re allowed to reuse and remix your work. Observable now has built-in support for licensing your notebooks! 	en	59	0	22	observablehq	2020-07-16T16:35:16.000Z	1,247	72,481				
1283803356708761600	874	waynesutton	The team is making updates at @observablehq Now support for licensing in your notebooks. 	en	4	0	0		2020-07-16T16:39:06.000Z	1,247	72,481				
1283244431093706753	874	waynesutton	How’s everyone doing? It is hard out here fam. I’m not going to lie, I am struggling to stay optimistic. Feels like all news these days is bad &amp; it makes any slice of good news seem inconsequential - I mean I guess it is in the grand scheme of things idk. Phew. 	en	41	7	1	divinetechygirl	2020-07-15T03:38:08.000Z	1,247	72,481		https://video.twimg.com/tweet_video/Ec8AAZZWoAADPfe.mp4	https://pbs.twimg.com/tweet_video_thumb/Ec8AAZZWoAADPfe.jpg	
1293206517542318081	875	aaronbailey	Most people who are job hunting would be better off defining what job/company they truly want instead of perfecting the perfect resume. 	en	0	0	0		2020-08-11T15:23:55.000Z	488	2,058				
1292864192068935687	875	aaronbailey	Lebanese prime minister announces resignation of his government amid renewed anti-government protests in the wake of the Beirut explosion 	en	2	0	7	factal	2020-08-10T16:43:38.000Z	488	2,058				
1284279488403120128	875	aaronbailey	Trump administration on deadly pandemic: You're on your own, states! Trump administration on graffiti in Portland: We're sending federal troops to kidnap and maim as many people as necessary to stop it. 	en	27139	230	10637	justinjm1	2020-07-18T00:11:05.000Z	488	2,058				
1285022294314606593	875	aaronbailey	Can I get a #goodtrouble t-shirt please? 	en	2	0	0		2020-07-20T01:22:44.000Z	488	2,058				
1283042998536863744	875	aaronbailey	14 years ago, I was the 850th person to sign up for a twitter account. Wow how times have changed! 	en	2	0	0		2020-07-14T14:17:43.000Z	488	2,058		https://video.twimg.com/tweet_video/Ec5IzCWWsAEu5qK.mp4	https://pbs.twimg.com/tweet_video_thumb/Ec5IzCWWsAEu5qK.jpg	
1281598475105263616	875	aaronbailey	Hey @govofco , Douglas co. ain’t voting for you anyway, and they don’t follow you on twitter. Just mandate masks already. You’re being really weak right now. “Wear a damn mask” is not “It’s illegal to not wear a mask” 	en	2	1	1	jwilker	2020-07-10T14:37:42.000Z	488	2,058				
1275784802323402752	875	aaronbailey	Right now it’s literally impossible to book a flight for another person on @united on an iPad Pro with either their iOS app or Safari. I have to switch over to my Macbook to book a flight. Amazing. 	en	0	0	0		2020-06-24T13:36:14.000Z	488	2,058		blob:https://twitter.com/1793e799-4bdf-426f-b02d-c720e6ea433f	https://pbs.twimg.com/ext_tw_video_thumb/1275784720006012929/pu/img/375-_QriIuMTgvpJ.jpg	
1273454063925985283	875	aaronbailey	I’m still trying to make sense of people posting about the white fragile McMuffin lady needing sympathy when a black woman was murdered sleeping in her own apartment? 	en	15	0	3	dschell4	2020-06-18T03:14:43.000Z	488	2,058		https://video.twimg.com/tweet_video/Eaw3t_OXYAAEZDk.mp4	https://pbs.twimg.com/tweet_video_thumb/Eaw3t_OXYAAEZDk.jpg	
1270724495276273665	875	aaronbailey	If you can’t quickly validate a new business idea using a website builder like @carrd then either the idea is wrong or you aren’t talking about it in the right way. Build the concept website first, show it to some friends, and then build the product. 	en	2	1	0		2020-06-10T14:28:23.000Z	488	2,058				
1268914905488306182	875	aaronbailey	Thinking out loud: Every police should be required to wear a beacon that sends out a signal with anonymous ID. Our phones should be able to capture that data (and somehow tagged in video). An independent review board could match ID-real name list to take appropriate action. 	en	0	0	0		2020-06-05T14:37:43.000Z	488	2,058				
1268724769232498695	875	aaronbailey	Just proves: Power corrupts. Absolute power, corrupts absolutely. 	en	0	0	1	kareemtabsch	2020-06-05T02:02:11.000Z	488	2,058				
1268707351210496002	875	aaronbailey	Not just a US problem. 	en	1	1	0		2020-06-05T00:52:58.000Z	488	2,058				
1268304916327485440	875	aaronbailey	Hey @nytimes - I’m all for hearing from conservative voices but this is absurd. I will be canceling my subscription. 	en	2	0	0		2020-06-03T22:13:50.000Z	488	2,058				https://pbs.twimg.com/media/EZnsmKQUMAEmDBc?format=jpg&amp;name=small
1268293117750341632	875	aaronbailey	I will be as well here in Denver! ((✊🏾)) ((❤)) 	en	587	37	137	CandiCdeBacaD9	2020-06-03T21:26:57.000Z	488	2,058				
1265109129904787456	875	aaronbailey	Has iMessage ever classified a junk SMS for you? I’ve never received a message in this UI. 	en	0	0	0		2020-05-26T02:34:55.000Z	488	2,058				https://pbs.twimg.com/media/EY6SC_jUEAA4NLs?format=jpg&amp;name=360x360
1261338404412723202	875	aaronbailey	Both @Netlify and @Ghost are fantastic separately, but even better together. Check this out. 	en	3	1	1		2020-05-15T16:51:24.000Z	488	2,058				
1260296573361111041	875	aaronbailey	How is it people *living* in Westminster, Colorado, can't pronounce their own city's name?! (I was just on a call with someone who pronounced it Westminister, with an extra I.) 	en	1	1	0		2020-05-12T19:51:32.000Z	488	2,058				
1259596232059547648	875	aaronbailey	Interesting. Some audio dubs on Netflix are delayed because of covid. 	en	0	1	0		2020-05-10T21:28:38.000Z	488	2,058				https://pbs.twimg.com/media/EXr8F5nUYAA9pMc?format=jpg&amp;name=360x360
1258249846806335488	875	aaronbailey	I’m in the market for a new smart home hub. Recommendations? (BTW, this is not how you treat customers — a week out, announcing you’re bricking devices unless people pay for a advertised-as-free service.) 	en	0	1	0		2020-05-07T04:18:35.000Z	488	2,058				
1256334422481104897	875	aaronbailey	Numerous friends this week: “I got the antibody test and I was COVID-19 positive in the last couple of months.” 	en	0	1	0		2020-05-01T21:27:22.000Z	488	2,058				
1254898696128348161	875	aaronbailey	Finally I have a reason to go visit my parents at The Villages. 	en	0	1	0		2020-04-27T22:22:18.000Z	488	2,058				
1253785617122521088	875	aaronbailey	In Denver, it is illegal to lend a vacuum cleaner to your next-door neighbor, “but it's perfectly okay to lend a vacuum to a friend down the street.” 	en	1	0	1		2020-04-24T20:39:19.000Z	488	2,058				
1253349761438158848	875	aaronbailey	PLEASE PLEASE PLEASE avoid ridiculous moving Zoom backgrounds like this (as observed on a call today). 	en	0	1	0		2020-04-23T15:47:23.000Z	488	2,058				
1251165472088707080	875	aaronbailey	I'm starting a new coaching practice: How to look and sound professional on a Zoom call. Practice with me for $99/hour. (This is a joke but I should seriously consider it.) 	en	3	0	0		2020-04-17T15:07:48.000Z	488	2,058				
1248758470838493186	875	aaronbailey	Is anyone else watching sitcoms and cringing because all the characters are standing so close to each other? 	en	1	0	0		2020-04-10T23:43:14.000Z	488	2,058				
1248565831417675776	875	aaronbailey	The Future of Work. 	en	6	1	1	DevCleary	2020-04-10T10:57:46.000Z	488	2,058				https://pbs.twimg.com/media/EVPL_J7VAAAIgVr?format=jpg&amp;name=360x360
1246047019795394560	875	aaronbailey	When things are all messed up beyond recognition, that’s when the heroes step forward and create things, invent things and develop things that change the world. And that’s what’s needed right now. If you have a vision for America 2.0, nows the time. 	en	37324	1747	7426	mcuban	2020-04-03T12:08:54.000Z	488	2,058				
1245925509675933697	875	aaronbailey	Heartbreak in Denver. Racine’s was one of my first hangouts when I moved here. 	en	2	0	0		2020-04-03T04:06:04.000Z	488	2,058				
1245375531731673088	875	aaronbailey	If one more company I haven't done business with in a decade sends me a "covid-19 update" on how I can use their products to effectively work from home, I'm going to quit the internet. 	en	1	1	0		2020-04-01T15:40:39.000Z	488	2,058		https://video.twimg.com/tweet_video/EUh2cCxU0AAfiC7.mp4	https://pbs.twimg.com/tweet_video_thumb/EUh2cCxU0AAfiC7.jpg	
1245014301535948800	875	aaronbailey	In the history of this message, has a single person ever telephoned @BestBuy to resubscribe to their marketing emails? Nope. 	en	0	0	0		2020-03-31T15:45:15.000Z	488	2,058				https://pbs.twimg.com/media/EUctu08UcAACMkk?format=jpg&amp;name=360x360
1244742659521961984	875	aaronbailey	Fellow entrepreneurs — I’ve closed a company before. It’s one of the hardest things I’ve ever had to do. If you need to talk, my DM is open. 	en	3	0	0		2020-03-30T21:45:50.000Z	488	2,058				
1242509015365505025	875	aaronbailey	Is @lacroixwater deemed an essential business? 	en	3	0	0		2020-03-24T17:50:08.000Z	488	2,058				
1241032443668430849	875	aaronbailey	If you don't know how to use Zoom, mute yourself on a call, or use a mic/headphones, it's going to be a tough future. Spend an hour with a friend figuring it out before you have a mission critical call. (I've been saying this for the last 5 years.) 	en	3	0	0		2020-03-20T16:02:46.000Z	488	2,058				
1241022017865949185	875	aaronbailey	Good move from @SohoHouse . 	en	0	0	0		2020-03-20T15:21:20.000Z	488	2,058				https://pbs.twimg.com/media/ETj-4PXWsAAzBOD?format=jpg&amp;name=360x360
1240365071085207553	875	aaronbailey	I won the lottery. 	en	2	0	0		2020-03-18T19:50:52.000Z	488	2,058				https://pbs.twimg.com/media/ETapdPFXgAAjerP?format=jpg&amp;name=360x360
1240350935961841664	875	aaronbailey	Another amazing moment -- local spin studio just sent out an email and they're loaning out their crazy expensive indoor bikes to members and launching on-demand classes. Absolutely love the creativity to keep a small business running &amp; people healthy. 	en	7	0	1	EliotLandrum	2020-03-18T18:54:42.000Z	488	2,058				
1240334559079616513	875	aaronbailey	Anyone want to trade a roll of toilet paper for a new iPad Pro? 	en	2	0	0		2020-03-18T17:49:37.000Z	488	2,058				
1239677406052409344	875	aaronbailey	Caught wind today of the first #cannabis dispensary closings due to #covid19 . Choice Organics &amp; Organic Alternatives, both in #FortCollins , are closed until further notice. Meanwhile Summit County said dispensaries are essential services that may remain open w/ grocery stores. 	en	9	0	7	tineywristwatch	2020-03-16T22:18:20.000Z	488	2,058				
1238930443908628482	875	aaronbailey	A school superintendent said something profound in his address cancelling school for the next 3 weeks. He said: In the end, it will be impossible to know if we overreacted or did too much, but it will be QUITE apparent if we under reacted or did too little. Hear those words.... 	en	446021	517	96482	Coach_Nick87	2020-03-14T20:50:10.000Z	488	2,058				
1238518077827895296	875	aaronbailey	I'm live-blogging what I see during these crazy #COVID19 times using @echothread . Follow along here: https://echothread.com/c/cvd4j3740 	en	0	0	0		2020-03-13T17:31:34.000Z	488	2,058				
1238511334481788928	875	aaronbailey	Grocery store shelves are empty, but can someone tell me if the dispensaries are well stocked? ((🤣)) 	en	1	2	0		2020-03-13T17:04:47.000Z	488	2,058				
1236994791939936258	875	aaronbailey	Skin in the game: Convert all Trump hotels to coronavirus quarantine facilities. 	en	1	0	2	Nel_Mezzo	2020-03-09T12:38:35.000Z	488	2,058				
1236149258111213568	875	aaronbailey	Mission Accomplished. 	en	0	0	0		2020-03-07T04:38:44.000Z	488	2,058				
1236134066736353281	875	aaronbailey	The Seattle Freeze deepens, via Caviar delivery app 	en	8	4	12	joshc	2020-03-07T03:38:22.000Z	488	2,058				https://pbs.twimg.com/media/ESehYRJVAAIEzZp?format=jpg&amp;name=360x360
1234552756335042560	875	aaronbailey	Somewhere, a young and aspiring freelance writer is pitching a “Dating in the age of coronavirus” article to an editor. 	en	2	1	0		2020-03-02T18:54:48.000Z	488	2,058				
1233483778007412738	875	aaronbailey	Why hasn't @corona tweeted since 2017? This is a prime marketing opportunity! 	en	1	0	0		2020-02-28T20:07:04.000Z	488	2,058				
1233483623392849920	875	aaronbailey	Having just spent the month in Mexico, I drank enough @corona to cover the 38%'s share. 	en	2	1	0		2020-02-28T20:06:27.000Z	488	2,058				
1230939094743535616	875	aaronbailey	I just had one of the best meals in memory. So good! 	en	0	0	0		2020-02-21T19:35:24.000Z	488	2,058				https://pbs.twimg.com/media/ERUskYMUEAAZQit?format=jpg&amp;name=360x360
1230341381064929280	875	aaronbailey	Didn’t watch the debate, but according to my Twitter feed, everyone and no one did well. Except Bloomberg, who didn’t do well. 	en	3	1	0		2020-02-20T04:00:18.000Z	488	2,058				
1229609407664750592	875	aaronbailey	I’ve been visiting Puerto Vallarta for 9 years now and I just realized that while PV is in Central Time, just a couple of miles away is Mountain Time. 	en	1	2	0		2020-02-18T03:31:42.000Z	488	2,058				
1229485590095155200	875	aaronbailey	Background info: 	en	0	0	0		2020-02-17T19:19:42.000Z	488	2,058				
1229468611284045824	875	aaronbailey	Come join my awesome team at @PTC ! We've got an open position for a *remote* presales engineer (same position as mine!) for @ThingWorx in manufacturing. Let me know if you'd like more details! Happy to talk privately to anyone who might be interested in making a jump. 	en	1	1	1	EliotLandrum	2020-02-17T18:12:14.000Z	488	2,058				
1229447541948899329	875	aaronbailey	Updates to follow on this thread. 	en	0	1	0		2020-02-17T16:48:30.000Z	488	2,058				
1228381065837834240	875	aaronbailey	I spent today making @echothread ’s website simpler and easier to understand. Check it out: https://www.echothread.com If you’re want to #liveblog with @SlackHQ , give Echothread a try and let me know what you think. 	en	0	0	0		2020-02-14T18:10:42.000Z	488	2,058				https://pbs.twimg.com/media/EQwWEKKUEAAdSfV?format=jpg&amp;name=360x360
1228327516567302144	875	aaronbailey	Today we celebrate love, in all of its beautiful combinations! #HappyValentinesDay ! ((❤️)) 	en	18294	323	2617	tim_cook	2020-02-14T14:37:55.000Z	488	2,058		blob:https://twitter.com/01f9f5cf-7a6a-45d4-abe5-9d9f870974a6	https://pbs.twimg.com/ext_tw_video_thumb/1228327503674036226/pu/img/jvLhKIMtlOufFX8x.jpg	
1228340811672248327	875	aaronbailey	I’m moving to Huntersville, N.C., for the cheap $3.50 burritos! 	en	2	1	0		2020-02-14T15:30:45.000Z	488	2,058				https://pbs.twimg.com/media/EQvxdG_W4AUuE4k?format=jpg&amp;name=360x360
1227691291154186240	875	aaronbailey	Just in time for my first Valentine’s Day as a single man in 5 years! 	en	1	1	0		2020-02-12T20:29:47.000Z	488	2,058				
1227279876375236608	875	aaronbailey	Here’s your periodic reminder that speakerphone calls and FaceTimes in public places are never acceptable. Never. (And yes, I’m looking at the couple in Starbucks talking to their grandkids.) 	en	6	0	0		2020-02-11T17:14:58.000Z	488	2,058				
1226141530177622016	875	aaronbailey	I look forward to building out an @echothread settings page on the app home tab. 	en	1	0	0		2020-02-08T13:51:36.000Z	488	2,058				
1225145865813229568	875	aaronbailey	Proud of my fellow native Michigander, @MittRomney . 	en	0	0	0		2020-02-05T19:55:11.000Z	488	2,058				
1225122687065972736	875	aaronbailey	I once had Rush Limbaugh's personal cell phone number but lost it long ago. Oh the things I should have done with it. 	en	1	0	0		2020-02-05T18:23:04.000Z	488	2,058				
1225092403268214786	875	aaronbailey	((👋🏻)) ((Slightly smiling face)) Colorado I’m helping run Boulder Startup Week’s Design events, and am looking for a broad range of designers interested in running workshops or speaking. Industrial Designers, Brand Designers, UI Designers, etc, please apply: https://docs.google.com/forms/d/e/1FAIpQLSeIt0oLIVuR7qJueLI92h2I1IttyOyBwGBJ-oi_S8QtDF76cg/viewform Retweets appreciated! 	en	37	5	25	cyanhex	2020-02-05T16:22:44.000Z	488	2,058				
1224827198072328193	875	aaronbailey	This is really cool and I could see it coming in handy but I don’t see the blockchain powering it. ((Winking face with tongue)) 	en	1	0	0		2020-02-04T22:48:54.000Z	488	2,058				
1223364597769326592	875	aaronbailey	Huh. C’mon dog people. Let’s fix this problem. 	en	0	0	0		2020-01-31T21:57:03.000Z	488	2,058				
1223083045571330051	875	aaronbailey	I made the mistake of giving away stuff for free on Facebook Marketplace. Dozens of messages within a few minutes. Next time I’ll advertise at $20. 	en	0	1	0		2020-01-31T03:18:16.000Z	488	2,058		blob:https://twitter.com/694fb0e4-0451-49f6-9455-6e4b19b55a53	https://pbs.twimg.com/ext_tw_video_thumb/1223083007201796096/pu/img/cfWmybTN3d0_IqRH.jpg	
1222946979757449216	875	aaronbailey	Every time I log into Linkedin, I think to myself “WTF!” Today was no exception. 	en	2	0	0		2020-01-30T18:17:35.000Z	488	2,058				https://pbs.twimg.com/media/EPjHyzqUEAAFYke?format=jpg&amp;name=360x360
1222937410524213249	875	aaronbailey	I’ve attempted to find a few friends to do something similar but it never works out. Maybe I need new friends. 	en	2	1	0		2020-01-30T17:39:34.000Z	488	2,058				
1222521216499507200	875	aaronbailey	My Beagle does this every walk. I have to drag him home. 	en	2	0	0		2020-01-29T14:05:46.000Z	488	2,058				
1221656099738120193	875	aaronbailey	Landing at the international arrivals at SeaTac at the same time as a Cathay Pacific flight with everyone wearing masks sure is a fun apocalyptic feeling. 	en	0	0	1	joshc	2020-01-27T04:48:06.000Z	488	2,058				
1219481178299781120	875	aaronbailey	Nauseous 	en	0	0	0		2020-01-21T04:45:44.000Z	488	2,058				
1214223656013811712	875	aaronbailey	Do I know any Ruby devs available for immediate contract work? Get in touch! 	en	0	1	4	Julia_JJ	2020-01-06T16:34:13.000Z	488	2,058				
1213442706938253313	875	aaronbailey	Read this. 	en	1	0	0		2020-01-04T12:51:00.000Z	488	2,058				
1213281907716214785	875	aaronbailey	Dateline: Last Chance, Colorado. @sam_tabachnik and @RJSangosti join the hunt for the mysterious drones haunting the night skies 	en	9	0	10	mattsebastian	2020-01-04T02:12:03.000Z	488	2,058				
1212809483216412673	875	aaronbailey	((Hamburger)) Biggest mistake of 2020: eating a really average cheeseburger at some random Atlanta airport restaurant and then walking by @shakeshack on my way to my gate. 	en	2	0	0		2020-01-02T18:54:48.000Z	488	2,058				
1212172550689742854	875	aaronbailey	The final sunset of 2019. 	en	1	0	0		2020-01-01T00:43:51.000Z	488	2,058		blob:https://twitter.com/105cb106-6e45-4b76-8036-29c812a59d92	https://pbs.twimg.com/ext_tw_video_thumb/1212172336906018816/pu/img/KdNBUaDHkJkRK6AY.jpg	
1212106853230022656	875	aaronbailey	Happy new year, friends. Wishing you a joyous year filled with love and success. 	en	3	1	0		2019-12-31T20:22:48.000Z	488	2,058				https://pbs.twimg.com/media/ENJEwMxX0AAC8po?format=jpg&amp;name=360x360
1211765050928762881	875	aaronbailey	((🏔)) Twelve years ago I packed up a rental minivan and drove from Chicago to Denver. There have been lots of ups and downs since (mostly ups), but Denver has treated me well. I am grateful to live among my tribe. 	en	9	0	0		2019-12-30T21:44:36.000Z	488	2,058				
1211411757018865665	875	aaronbailey	Hey @SlackHQ - each one of these workspaces has an icon yet they aren’t loading on iOS. Known bug? How can I fix it? 	en	0	1	0		2019-12-29T22:20:44.000Z	488	2,058				https://pbs.twimg.com/media/EM_MkdjWwAElrbx?format=jpg&amp;name=small
1211350236863647744	875	aaronbailey	In 2020, I’m going to attempt to better align my work with 4-week sprints. Here’s my tentative plan. 	en	1	0	0		2019-12-29T18:16:16.000Z	488	2,058				https://pbs.twimg.com/media/EM-UnnIXUAAKvEW?format=png&amp;name=360x360
1210734611669512192	875	aaronbailey	Nearly the same advice applies if you were dumped by a romantic partner. 	en	0	0	1		2019-12-28T01:30:00.000Z	488	2,058				
1210260600884006914	875	aaronbailey	“Hey Siri… shhhhhh” should be a thing. It should pause music and turn transparency on if you’re wearing AirPod Pros. 	en	1	0	0		2019-12-26T18:06:27.000Z	488	2,058				
1208586318571159552	875	aaronbailey	2020 mantra — Only invest in people who invest in me. Only invest in projects that make me say “hell yes!”. All the “maybes” are a “hard no”! 	en	6	0	1		2019-12-22T03:13:27.000Z	488	2,058				
1207472978839179269	875	aaronbailey	The first Home Alone 2 cast member to be impeached. 	en	79523	236	11030	sonicdork	2019-12-19T01:29:26.000Z	488	2,058		https://video.twimg.com/tweet_video/EMHOQ3ZXsAAXwCY.mp4	https://pbs.twimg.com/tweet_video_thumb/EMHOQ3ZXsAAXwCY.jpg	
1206963874932506624	875	aaronbailey	I'll never forget visiting a very rural bar with dozens of taxidermies on the walls, secretly playing @britneyspears on the jukebox. 	en	1	1	0		2019-12-17T15:46:26.000Z	488	2,058				
1206960989867888640	875	aaronbailey	Is there a service that grabs the video from my Youtube channel, automatically extracts the audio and then hosts that audio as a podcast feed without any interaction from me? I upload videos once a week and to maintain an audio podcast with no extra work. 	en	0	1	0		2019-12-17T15:34:58.000Z	488	2,058				
1205232006499426304	875	aaronbailey	Denver friends… 	en	0	0	0		2019-12-12T21:04:37.000Z	488	2,058				
1204448736291672064	875	aaronbailey	I wish @zoom_us would allow me to do a handoff from Mac to iPhone or vice versa. Instead, I have to open a new session which can cause weird mic feedback and confusion among attendees. 	en	2	0	0		2019-12-10T17:12:10.000Z	488	2,058				
1200415691301621761	875	aaronbailey	Hey WordPress plug-in developers — I don’t care about your Black Friday sale emails today. Unsubscribe. 	en	0	0	0		2019-11-29T14:06:18.000Z	488	2,058				
1200228516903694337	875	aaronbailey	Here is a thread of dogs who destroyed Thanksgiving dinner 	en	51256	1158	20393	iboudreau	2019-11-29T01:42:32.000Z	488	2,058				
1199100706784866306	875	aaronbailey	I volunteered to take a 5 hour later flight on @Delta in exchange for a $2,000 gift card to Delta, Amazon, AmEx, or a bunch of other retailers. The highest I’ve ever scored from an airline. A little bit of good news in a bad 24 hours. 	en	16	3	0		2019-11-25T23:01:01.000Z	488	2,058				
1197569560238411776	875	aaronbailey	I don’t know who Rashanda Cobbins is, but they deserve an award for this headline. https://www.tasteofhome.com/collection/cream-cheese-recipes-whole-block/ 	en	3	0	0		2019-11-21T17:36:47.000Z	488	2,058				https://pbs.twimg.com/media/EJ6fKomU8AAAXwJ?format=jpg&amp;name=360x360
1196876890365145100	875	aaronbailey	Are you from an underrepresented group in tech looking for a new role? Reply with your info (check tip below). I'll retweet to my 22K+ followers. I'll also share this thread in @DiversifyTechCo 's newsletter for employers. Hiring? Reach out to these folks. Allies - RT them. 1/3 	en	372	78	236	venikunche	2019-11-19T19:44:22.000Z	488	2,058				
1196229318965256193	875	aaronbailey	How I spent my Sunday. 	en	1	0	0		2019-11-18T00:51:09.000Z	488	2,058				
1195380811257675777	875	aaronbailey	I remember seeing my team have their first meeting without getting an invite. It was a surreal moment. 	en	2	0	0		2019-11-15T16:39:29.000Z	488	2,058				
1194296246527119360	875	aaronbailey	I’m excited to be planning for the first official release of @echothread — with paid features and a new design. 	en	1	0	0		2019-11-12T16:49:48.000Z	488	2,058				
1285304572672724992	880	nanek	((🚨)) PLEASE RT: Here are the details of the amendment. Introducing w/ @RonWyden &amp; @ChrisMurphyCT . We already have 12 confirmed cosponsors, representing states all over the country. This isn’t just an Oregon crisis. It's an American crisis. We need to stop Trump before this spreads. 	en	4582	418	3408	SenJeffMerkley	2020-07-20T20:04:24.000Z	3,253	1,779				
1283459257732608001	880	nanek	Calling emerging artists! @dcdesignweek is commissioning custom poster designs from up to five emerging designers from the DMV. Applications are due Wednesday, July 29. More info: 	en	1	0	2	anej	2020-07-15T17:51:47.000Z	3,253	1,779				
1265782885778206721	880	nanek	Play games on a PC in the cloud. I'm playing #EscapefromTarkov https://shop.shadow.tech/usen/invite/KENQIEZY 	en	0	0	0		2020-05-27T23:12:11.000Z	3,253	1,779				
1256122789213409281	880	nanek	CRAZIEST GIVEAWAY EVER! NOW LIVE! Win a SIGNED KOBE BRYANT JERSEY, Maton Guitar, 20+ Logitech Items and MORE! Raising money on Starlight Day for @Starlight_star to help seriously ill children! Come be apart of the fun and shenanigans @ https://www.twitch.tv/pestily #4thekids 	en	760	22	6685	Pestily	2020-05-01T07:26:25.000Z	3,253	1,779				
1253715540276895747	880	nanek	The newest coronavirus relief package being proposed includes no direct monthly payments to people. Congress needs to get their priorities right and put people first. If you agree, give them a call at 202-224-3121. #CongressPassUBI http://bailoutthepeople.com 	en	4511	229	2427	AndrewYang	2020-04-24T16:00:52.000Z	3,253	1,779				
1250063808309198849	880	nanek	I never expected this: finally we may have a path to the fundamental theory of physics...and it's beautiful https://writings.stephenwolfram.com/2020/04/finally-we-may-have-a-path-to-the-fundamental-theory-of-physics-and-its-beautiful/ 	en	10881	371	4321	stephen_wolfram	2020-04-14T14:10:11.000Z	3,253	1,779				
1235599058946772993	880	nanek	We are building the movement to rewrite the rules of our economy and our society to make it work for us, the people. This is only the beginning. Join us in the movement to #MoveHumanityForward : 	en	4094	162	1698	HumanityForward	2020-03-05T16:12:26.000Z	3,253	1,779				
1234924931328012288	880	nanek	We wanted to do something special for those who couldn’t attend PAX East with us. RT + follow us by 3/8 for a chance to win everything pictured (yes, gaming chair IS included) 	en	60140	6284	85483	discord	2020-03-03T19:33:42.000Z	3,253	1,779				
1208718831205535745	880	nanek	6 hours remaining. The biggest prize pool we've ever had for a charity stream. Get in here and help @StJude . #BuildAgainstCancer Click here to donate ---&gt; https://donate.tiltify.com/@drlupo/buildagainstcancer-2019 Click here to watch ---&gt; http://Twitch.tv/DrLupo 	en	2127	61	1055	DrLupo	2019-12-22T12:00:00.000Z	3,253	1,779				
1201896881430904834	880	nanek	It’s #GivingTuesday2019 ! Shop for a Cause today at @fibrespace, @loopedyarnworks , and @lionbrandyarn and a portion of your sales will be donated to Project Knitwell. Or you can #sharethewellness by selecting Project Knitwell as your charity on AmazonSmile! http://smile.amazon.com/ch/27-2316864 	en	3	0	1	anej	2019-12-03T16:12:01.000Z	3,253	1,779				
1187466710476943361	880	nanek	((🤷‍♂️)) Nobody seems to want a free PC nowadays, so today I'm giving away a gaming laptop to one lucky gamer. SPECS: MSI GS65 Stealth: Intel i7-8750, Nvidia RTX 2060, and 144hz screen! HOW TO ENTER: ((💜)) Retweet &amp; like this ((💜)) Follow me 	en	44441	3246	40481	jaredkim	2019-10-24T20:31:40.000Z	3,253	1,779				
1156757359957614598	880	nanek	We need to be laser focused on the real challenges of our time, like how most Americans can't pay their bills. The #FreedomDividend would be a game changer for individuals and communities. Go to http://Yang2020.com and enter your ZIP code to see what it will do for your town. 	en	5431	167	1182	AndrewYang	2019-08-01T02:43:40.000Z	3,253	1,779				
1122153378514120704	880	nanek	Due to fear and shame, I tried talking myself out of doing this, but I need to do this for me. Your RT can help change my life My name is Maco, and I've been looking for steady work for almost a year. I'm smart, educated, talented, and I’ve got a good heart. Please hire me 	en	5240	151	6100	observhaitian	2019-04-27T14:59:48.000Z	3,253	1,779				
1094249583499190272	880	nanek	In honor of #NationalPizzaDay , we're giving away FREE PIZZA for a year! ((🍕)) RT this post for a chance to #WinDominosPizza . Rules: http://bit.ly/2DExY8p 	en	3327	479	10377	dominos	2019-02-09T15:00:05.000Z	3,253	1,779				
1093887209143439360	880	nanek	Tomorrow is #NationalPizzaDay ! RT for a chance to win ((🍕)) FREE PIZZA ((🍕)) for a year. Rules: http://bit.ly/2DExY8p #WinDominosPizza 	en	2300	440	6498	dominos	2019-02-08T15:00:08.000Z	3,253	1,779				
1061392892554629120	880	nanek	https://e.investvoyager.com/4TLA-326U-2EH8KT-2KK3I-1/c.aspx 	und	1	0	0		2018-11-10T22:59:19.000Z	3,253	1,779				
1017578593013157895	880	nanek	I just won $5.71 on @hqtrivia ! You should play too. Use my code "nanek" when you sign up http://www.hqtrivia.com 	en	3	0	0		2018-07-13T01:16:56.000Z	3,253	1,779				
1014491156695134208	880	nanek	Hello, world. I am artificial intelligence built to help you understand and follow political news. I understand that today is America's birthday. Help me celebrate by joining here: https://beta.matchvote.com I will have surprises for my first 5000 members. 	en	4	0	1	matchVote	2018-07-04T12:48:34.000Z	3,253	1,779				
1006601365966254080	880	nanek	Follow + RT to enter! Celebrate #E32018 by entering to win a custom #Fallout76 Xbox One X! Official Rules: https://beth.games/2Jj1WPA 	en	17133	1079	38557	Fallout	2018-06-12T18:17:22.000Z	3,253	1,779				
993309468602531845	880	nanek	Great podcast with @naval 	en	4	0	0		2018-05-07T02:00:06.000Z	3,253	1,779				
989306144039501824	880	nanek	Token projects need a way to bootstrap their network effects compliantly. Introducing Airdrops by CoinList 	en	70	3	29	CoinList	2018-04-26T00:52:19.000Z	3,253	1,779				
981595018854109184	880	nanek	Beam is a free mobile banking app that helps you earn 2 - 4% APY. Check it now https://meetbeam.com/?r=CASH-BJlZSCghqW 	en	0	0	0		2018-04-04T18:11:04.000Z	3,253	1,779				
962367984667938819	880	nanek			1	0	0		2018-02-10T16:49:42.000Z	3,253	1,779				
954539067827466240	880	nanek	Check out this app ((Right pointing backhand index)) https://sweatco.in/i/kenan944337 ... It pays for walking 	en	0	0	0		2018-01-20T02:20:22.000Z	3,253	1,779				
948293094285434880	880	nanek	Monster storm to blast East Coast before polar vortex uncorks tremendous cold late this week: 	en	353	66	948	capitalweather	2018-01-02T20:41:06.000Z	3,253	1,779				
944663196597661697	880	nanek	#LBRY Retweet this tweet and follow @LBRYCommunity for a chance to win 500 LBC. Visit https://LBRY.Community and join 4 different contests! - ((Red heart)) Win 8000 LBC if you manage to win everything! ((Red heart)) Go to #ExplainLBRY for video-contest entries. 	en	388	47	934	LBRYCommunity	2017-12-23T20:17:11.000Z	3,253	1,779				https://pbs.twimg.com/media/DRwPcRsWAAA5qep?format=jpg&amp;name=360x360
943188990563254272	880	nanek	★ Dynamicland: incubating a humane dynamic medium https://dynamicland.org 	en	964	24	541	worrydream	2017-12-19T18:39:13.000Z	3,253	1,779				https://pbs.twimg.com/media/DRbhNwBVwAA5i6Z?format=jpg&amp;name=360x360
938440303538683904	880	nanek	BAT user grants are available today! 300 000 tokens on first-come, time-limited basis. Use @brave desktop/0.19.105 to accept them and reward your favorite sites and YouTubers! https://basicattentiontoken.org/brave-grants-300000-crypto-tokens-to-browser-users/ 	en	301	22	202	AttentionToken	2017-12-06T16:09:38.000Z	3,253	1,779				https://pbs.twimg.com/media/DQX9ZPBUIAATMCL?format=jpg&amp;name=360x360
916424118718877696	880	nanek	Check out all these FREE workshops coming up in Oct-Nov at the Microsoft Reston VA office: &gt;&gt; Info &amp; RSVP links: http://wakeupandcode.com/cloudlearning2017/ 	en	4	0	4	shahedC	2017-10-06T22:05:10.000Z	3,253	1,779				https://pbs.twimg.com/media/DLfK1NaWkAA6m5v?format=jpg&amp;name=360x360
912923510925877248	880	nanek	Urgent! Help me create awareness by getting #helppuertoriconow trending &amp; at the top of news. I'll donate .50 cents for every RT up to $250k 	en	4668	303	14447	marcuslemonis	2017-09-27T06:15:00.000Z	3,253	1,779				https://pbs.twimg.com/media/DKtbEK_WAAAY7sl?format=jpg&amp;name=360x360
908361575257473024	880	nanek	BREAKING: With @Lessig , we're launching a legal campaign for #EqualVotes . A plan to fix the way we elect presidents. 	en	79	2	62	EqualCitizensUS	2017-09-14T16:07:30.000Z	3,253	1,779				
899735612672155652	880	nanek	((Raising hands)) Retweet if you use ExpressJS ((Glowing star)) and are grateful to @blipsofadoug for his excellent and tireless work maintaining it over the years. ((Trophy)) 	en	321	14	343	feross	2017-08-21T20:51:00.000Z	3,253	1,779				
893105208313528320	880	nanek	"StackBlitz — Online VS Code IDE for Angular &amp; React ((⚡)) " - so excited to finally announce this! ((Red heart)) 	en	581	42	430	ericsimons40	2017-08-03T13:44:09.000Z	3,253	1,779				
890228242946301953	880	nanek	Just signed up for WCX, the global digital currency exchange. Sign up &amp; earn 100 WCX tokens. @wcxofficial https://wcex.co/?ref=mS44jdM 	en	0	0	1		2017-07-26T15:12:07.000Z	3,253	1,779				
886009560573636608	880	nanek	Do you remember when you joined Twitter? I do! 	en	3	0	2		2017-07-14T23:48:35.000Z	3,253	1,779				https://pbs.twimg.com/media/DEu8_vyXYAA_mUP?format=jpg&amp;name=360x360
863792209899933696	880	nanek	95% of ATM swipes use COBOL code: 	en	29	2	39	rands	2017-05-14T16:24:45.000Z	3,253	1,779				
848907772318015488	880	nanek	JavaScript &amp; CSS code coverage are out of experiments in @ChromeDevTools . Useful for discovering potential size savings in your bundles ((Scissors)) ((Fire)) 	en	3051	44	2044	addyosmani	2017-04-03T14:39:19.000Z	3,253	1,779				https://pbs.twimg.com/media/C8fqzKTUwAAmt5K?format=jpg&amp;name=360x360 https://pbs.twimg.com/media/C8fsgLIUwAEkZtx?format=jpg&amp;name=240x240
848641336106504192	880	nanek	Write your #css to be testable. See @_juancaicedo present "Test-driven CSS" #revconf #frontend #stylesheets http://bit.ly/2owbDzx 	en	5	0	5	revconf	2017-04-02T21:00:36.000Z	3,253	1,779				https://pbs.twimg.com/media/C8b6y-GWAAMXfyu?format=jpg&amp;name=360x360
846913530284703745	880	nanek	Always impressed with the #mongodb support team for @mlab Their response time and quality of responses and solutions are top notch. Thanks! 	en	3	0	2		2017-03-29T02:34:55.000Z	3,253	1,779				
834478163463897092	880	nanek	Excited to follow this case study of building an online business. https://gaps.com/live-challenge/ #gapschallenge 	en	2	0	1		2017-02-22T19:01:12.000Z	3,253	1,779				
1293236121497817088	885	Ross	While the US can't agree on $600 of UI, in the UK $629 million to protect 1.8 million jobs, with about 130,000 restaurant businesses predicted to be eligible. 	en	1	0	0		2020-08-11T17:21:33.000Z	1,288	19,980				
1292952490296725509	885	Ross	Hello from ! Late here....but checking in from @WCKitchen headquarters with the team. Tomorrow 6,600 meals to 30 locations...Here’s the start to the map! We are activating more restaurants &amp; kitchens this week...More news soon! #ChefsForBeirut 	en	11898	333	2498	chefjoseandres	2020-08-10T22:34:30.000Z	1,288	19,980		blob:https://twitter.com/876ecac6-1017-47d1-80db-078566eb8b77	https://pbs.twimg.com/ext_tw_video_thumb/1292951755769225216/pu/img/rYvW-yZMpkHxIi9t.jpg	
1293005588775858178	885	Ross	The solution to housing in Palo Alto is to disperse jobs elsewhere? At first I was having trouble recognizing what tragic comedy this is, but I love it. They aren’t Anti-housing, they are Anti-job. 	en	4	1	0		2020-08-11T02:05:29.000Z	1,288	19,980				
1292917033894461440	885	Ross	First wave parents had to figure out distance learning, now it’s how to start a homeschool. By the second wave we’ll be running utility companies and subsistence farming. 	en	2	0	0		2020-08-10T20:13:36.000Z	1,288	19,980				
1292914563113877504	885	Ross	Talked with a hair salon owner, shutting down after 30 years because the landlord won’t be reasonable (perhaps because the President Hotel above him converting from low income housing to luxury hotel). One story of many to come 	en	4	0	1		2020-08-10T20:03:47.000Z	1,288	19,980				
1292748268682838016	885	Ross	Very good compact backstory of events unfolding in Belarus: 	en	11	0	5	seikatsu	2020-08-10T09:03:00.000Z	1,288	19,980				
1292889972979032065	885	Ross	We're not done yet! Important Palo Alto City Council meeting tonight on the Summer Streets program. http://chng.it/gH2MF97B 	en	0	0	0		2020-08-10T18:26:04.000Z	1,288	19,980				https://pbs.twimg.com/media/EfFEkJzUMAAGm0o?format=jpg&amp;name=360x360
1292569663637843968	885	Ross	San Agus opened in April on Hamilton in Palo Alto. Not the best timing. Food is amazing and reasonably priced. Better than Reposado. Give it a try 	en	1	0	0		2020-08-09T21:13:17.000Z	1,288	19,980				
1292567462827847680	885	Ross	Could Amazon, Uber, Lyft and others could offer free ballot delivery in key states come November? 	en	6	7	1		2020-08-09T21:04:32.000Z	1,288	19,980				
1292534873085812736	885	Ross	Over 2,500 signatures! Palo Alto residents and business owners : Now is the time! Help Cal. and University Avenue businesses get back on their feet! - Sign the Petition! http://chng.it/26xX4vZQ via @Change 	en	3	0	2		2020-08-09T18:55:02.000Z	1,288	19,980				
1292511882171957248	885	Ross	Isolationism. That happened quickly. 	en	2	0	0		2020-08-09T17:23:41.000Z	1,288	19,980				
1292483032159367168	885	Ross	Remote Work Specializes “remote work (a.k.a. telecommuting) is my guess for the most important neglected trend over the next 30 years.” via ⁦⁦ @azeem ⁩ https://www.overcomingbias.com/2020/08/remote-work-specializes.html 	en	1	0	0		2020-08-09T15:29:02.000Z	1,288	19,980				
1292480971703369730	885	Ross	Bill Gates on Covid: “for the rich world, we should largely be able to end this thing by the end of 2021, and for the world at large by the end of 2022.” 	en	3	0	0		2020-08-09T15:20:51.000Z	1,288	19,980				
1292215228998930432	885	Ross	In light of recent news - the President's attacks on voting by mail, the gutting of the USPS - I decided to share what I learned, and make sure folks knew about some of the organizations doing critical work in this space who could use your support: 	en	364	14	312	rklau	2020-08-08T21:44:53.000Z	1,288	19,980				
1291858730917564416	885	Ross	Palo Alto, CA -- home of @Stanford and @Tesla -- is probably the most exclusionary major suburb in the United States, and this November's city council election may decide whether the area remains a racially and economically segregated community. (thread) 	en	531	11	191	mldunham	2020-08-07T22:08:17.000Z	1,288	19,980				
1291704713596018689	885	Ross	An engineer at Facebook collected internal evidence showing Fb was giving preferential treatment to prominent conservative accounts to help them remove fact-checks from content. Fb removed his post, restricted internal access to info and fired him. 	en	4	0	1	rashmi	2020-08-07T11:56:17.000Z	1,288	19,980				
1291474517320019968	885	Ross	Thank you for your service ⁦ @adrianfine ⁩ 	en	1	0	0		2020-08-06T20:41:34.000Z	1,288	19,980				
1291456382416248832	885	Ross	Defund the NRA 	en	3	0	1		2020-08-06T19:29:30.000Z	1,288	19,980				
1291165585053818881	885	Ross	WFH is trending to June 2021... 	en	0	0	0		2020-08-06T00:13:58.000Z	1,288	19,980				
1291056687814602758	885	Ross	The Beirut blast was the result of corruption and it destroyed lives, property - and memories. How will the current corruption in Washington do the same here? 	en	8	0	7	psaffo	2020-08-05T17:01:15.000Z	1,288	19,980				
1290827283662438400	885	Ross	This clip as a Monty Python sketch is the only way it makes any sort of sense 	en	255	23	89	BexGraham	2020-08-05T01:49:41.000Z	1,288	19,980		blob:https://twitter.com/68a1d1aa-b438-48a6-a26f-ee2706a5ee84	https://pbs.twimg.com/ext_tw_video_thumb/1290578418594131969/pu/img/1JGT40vtPXDGPeOq.jpg	
1290629787073908736	885	Ross	New blog post, this the first of maybe a 3 part series on the company du jour, TikTok. This first piece isn't about the possible ban or divestment or the security or geopolitical issues but about what makes it so unique and fascinating to me. 	en	835	34	277	eugenewei	2020-08-04T12:44:54.000Z	1,288	19,980				
1290485621065048067	885	Ross	Downtown streets should be available for people not cars. Palo Alto is on the right path for it. I hope @adrianfine and @EdShikada will keep the Summer Streets program forever. 	en	63	2	8	PavelSirotin	2020-08-04T03:12:02.000Z	1,288	19,980				https://pbs.twimg.com/media/Eei50zaVoAEtZix?format=jpg&amp;name=240x240 https://pbs.twimg.com/media/Eei50zaUwAACcDc?format=jpg&amp;name=240x240
1290714306300899328	885	Ross	More to be done. Parklet permit periods, picnic tables to fill gaps in closed streets, wayfinding signs and more promotion (60% of business is residents which should be lower) will help side street restaurants survive. @adrianfine @GregTanaka @electcormack @VoteDubois 	en	2	0	0		2020-08-04T18:20:45.000Z	1,288	19,980				https://pbs.twimg.com/media/EemJ0gGUYAABQaE?format=jpg&amp;name=360x360
1290714300932173824	885	Ross	Palo Alto business survey results show a good uptick in revenue last week for restaurants on the side streets next to closures. The more our downtowns become destinations, the more everyone benefits 	en	3	1	0		2020-08-04T18:20:44.000Z	1,288	19,980				https://pbs.twimg.com/media/EemJ0LYUwAA4rFL?format=jpg&amp;name=360x360
1290180107336744960	885	Ross	It’s the virus, stupid. 	en	435	9	83	kimmaicutler	2020-08-03T06:58:02.000Z	1,288	19,980				
1289404589410676737	885	Ross	When Trump says he’ll Ban TikTok, the only thing he could actually mean is roll back the $800M http://Musical.ly 2017 acquisition on anti-trust grounds, and that threat to other social media platforms could have a chilling effect for November 	en	1	0	1		2020-08-01T03:36:24.000Z	1,288	19,980				
1289282616395354116	885	Ross	Aggressive move by Google to push Meet in Gmail 	en	1	2	0		2020-07-31T19:31:44.000Z	1,288	19,980				https://pbs.twimg.com/media/EeRzszLU0AAmzE0?format=jpg&amp;name=small
1289004092442857473	885	Ross	OH: Stanford Research Park (HP HQ, former Facebook HQ, many others) went from 27,000 daily employees to 300 	en	0	0	0		2020-07-31T01:04:58.000Z	1,288	19,980				
1288225890397122560	885	Ross	Crisis throws some into zero-sum thinking at the precise time that it is self defeating. I see this in a handful of business owners in Palo Alto. May be hard to get them to see past it. 	en	5	0	0		2020-07-28T21:32:41.000Z	1,288	19,980				
1287127685563469824	885	Ross	Handing out posters for Palo Alto local businesses to support street closure for open dining through the end of year. 	en	9	1	1		2020-07-25T20:48:48.000Z	1,288	19,980				https://pbs.twimg.com/media/EdzLyAnVAAAroeB?format=jpg&amp;name=360x360
1286735344059027460	885	Ross	My son Noah with his Capt. America shield in Portland last night. 	en	494	24	75	stewartbrand	2020-07-24T18:49:47.000Z	1,288	19,980				
1286359722770063361	885	Ross	The Redskins new name must be the Washington Gridlock 	en	3	0	0		2020-07-23T17:57:11.000Z	1,288	19,980				
1285733608213413890	885	Ross	Can Palo Alto continue to follow in the footsteps of these European cities? I am absolutely in love with what the downtown is starting to transform into. Cc @ross @adrianfine 	en	1	0	1	vladquant	2020-07-22T00:29:14.000Z	1,288	19,980				
1285722943205658626	885	Ross	...Businesses need time to adapt to the new options and residents need time to experience the new model. I fear that changes are being implemented based on a VOCAL MINORITY without giving adequate time for change to occur." 	en	0	0	0		2020-07-21T23:46:51.000Z	1,288	19,980				
1285722942287097858	885	Ross	Anonymized comments are in the presentation. This one stood out to me. "Social change takes time. Expecting the needle to move in 8 to 10 days is unrealistic. Not every business can adapt quickly... 	en	0	1	0		2020-07-21T23:46:51.000Z	1,288	19,980				
1285722940986798086	885	Ross	60% of customers are Palo Alto residents. This means there is room to grow through promotion to our neighbors. 	en	0	1	0		2020-07-21T23:46:51.000Z	1,288	19,980				https://pbs.twimg.com/media/EdfNCD9U8AA8MZL?format=png&amp;name=360x360
1285722939695005696	885	Ross	Nominal parking or traffic issues observed (this was a true or false question) 	en	0	1	0		2020-07-21T23:46:51.000Z	1,288	19,980				https://pbs.twimg.com/media/EdfM3M9VcAIQDPo?format=png&amp;name=360x360
1285722938302517248	885	Ross	A new consumer pattern is setting in better on Cal Ave, but this takes time. Revenue increase directly correlated with expanding table space into sidewalks, parklets and street dining. 	en	0	1	0		2020-07-21T23:46:50.000Z	1,288	19,980				https://pbs.twimg.com/media/EdfMMcSU0AAr4yG?format=png&amp;name=360x360
1285722937010597904	885	Ross	Closing streets for open dining has lessened the decline in revenue since last year 	en	0	1	0		2020-07-21T23:46:50.000Z	1,288	19,980				https://pbs.twimg.com/media/EdfNSUEU0AEM2aI?format=png&amp;name=360x360
1285722935597117440	885	Ross	Here's the Palo Alto Open Streets survey of businesses results from last week. 41 respondents from Downtown and Cal Ave, restaurants and retail, some on closed streets and some on side streets. 	en	0	1	0		2020-07-21T23:46:50.000Z	1,288	19,980				https://pbs.twimg.com/media/EdfLmkMU4AUZgUb?format=png&amp;name=360x360
1284232576849178629	885	Ross	Nice mention of @FrontlineFoods #StayInTakeOut in Cosmo. Thanks Atlassian, Kea and SAP for being our first partners. 	en	0	0	0		2020-07-17T21:04:40.000Z	1,288	19,980				
722404063678226432	885	Ross	I didn't realize I was supposed to know how to do everything by my second rodeo. That's still a very low number of rodeos. 	en	15236	69	6366	simoncholland	2016-04-19T12:38:45.000Z	1,288	19,980				
1283450806289575936	885	Ross	And...the video freezes while the audio plays. Had to restart. In the golden age of streaming this is more of a shower 	en	2	2	0		2020-07-15T17:18:12.000Z	1,288	19,980				
1283065952620306432	885	Ross	managers presenting on Q2 2020 ((Flushed face)) 	en	19844	182	5248	yayalexisgay	2020-07-14T15:48:55.000Z	1,288	19,980		blob:https://twitter.com/965097e9-35a9-42b9-9f58-ad2b4a177e67	https://pbs.twimg.com/media/Ec5ZnljUEAE0B75.jpg	
1283449117398560768	885	Ross	And the Apple TV app doesn’t let you select one of the three concurrent games like the broadcaster says you can. @peacockTV is an extortionist fail. 	en	2	1	0		2020-07-15T17:11:29.000Z	1,288	19,980				
1283428255400263680	885	Ross	NBC Peacock is infuriating. Exclusive EPL games today, can’t download the app until today. Games aren’t in the menu until broadcast on Apple TV and no DVR. Samme games in the NBC Aports app if you upgrade to Gold, and can’t apply a cable subscription 	en	7	1	0		2020-07-15T15:48:35.000Z	1,288	19,980				
1283107648741634048	885	Ross	Facebook’s first office is available for lease, sign of the times 	en	10	1	5		2020-07-14T18:34:37.000Z	1,288	19,980				https://pbs.twimg.com/media/Ec6Dmb-VcAAD45G?format=jpg&amp;name=360x360
1283060463945711618	885	Ross	Here comes the Zoom startups... 	en	3	0	1		2020-07-14T15:27:07.000Z	1,288	19,980				
1283055833920573440	885	Ross	Still setting up my twttr 	en	3	1	0		2020-07-14T15:08:43.000Z	1,288	19,980				https://pbs.twimg.com/media/Ec5UeuNU0AAb9Uz?format=jpg&amp;name=360x360
1282764351737262080	885	Ross	Mask on except when munching 	en	0	0	0		2020-07-13T19:50:28.000Z	1,288	19,980				
1281815380097290240	885	Ross	What’s beautiful about the Open Streets of Palo Alto is you see culture unfolding. It won’t be like before, but give it a little time... 	en	13	0	3		2020-07-11T04:59:36.000Z	1,288	19,980				https://pbs.twimg.com/media/EcnsSryU4AANYhb?format=jpg&amp;name=240x240 https://pbs.twimg.com/media/EcnsSryUMAEVCTr?format=jpg&amp;name=240x240 https://pbs.twimg.com/media/EcnsStNVAAASafe?format=jpg&amp;name=240x240
1281372945688834048	885	Ross	Fantastic to have @frontlinefoods realize an enduring structure. Real tribute to the hard work of amazing volunteers and supporters. 	en	6	0	2		2020-07-09T23:41:31.000Z	1,288	19,980				
1281366519545356288	885	Ross	Wrote an editorial in the Palo Alto Weekly to advocate for extending the Open Street period, Parklet permits, ongoing data collection, and promoting and enriching our downtowns 	en	6	0	2		2020-07-09T23:15:59.000Z	1,288	19,980				
1281288836010487813	885	Ross	Great piece, @fmanjoo Hope you are enjoying the Palo Alto street closures 	en	1	0	0		2020-07-09T18:07:18.000Z	1,288	19,980				
1281030626934571008	885	Ross	Election results are in 	en	2	0	0		2020-07-09T01:01:16.000Z	1,288	19,980				
1281016731650019328	885	Ross	“Collaboration is in the DNA of Silicon Valley.” Yes, instead of a return to how offices were, it will be remote-first. Even with large glampuses. Silicon Valley will survive as the epicenter of the future, not how it has, as it always has done. 	en	1	0	0		2020-07-09T00:06:03.000Z	1,288	19,980				
1280912024302571520	885	Ross	The Women Who Built Silicon Valley (1950-1990) 	en	9	0	2		2020-07-08T17:09:59.000Z	1,288	19,980				
1280884329971765250	885	Ross	Why not stop scrolling for a moment, take a deep breath, and appreciate this rare celestial event. I think it's important not to take imagery like this for granted, when such imagery has only within the last few decades become regularly accessible. We are incredibly fortunate! 	en	1197	29	376	physicsJ	2020-07-08T15:19:56.000Z	1,288	19,980				
1280890160968687617	885	Ross	This disease is a beast 	en	1	0	0		2020-07-08T15:43:06.000Z	1,288	19,980				
1280885431886733313	885	Ross	“Fear is the greatest censor of them all.” 	en	0	0	0		2020-07-08T15:24:19.000Z	1,288	19,980				
1280847792416665601	885	Ross	If U.S. states were countries, they would be 13 of the world's 20 worst covid outbreaks (per capita!), along with Bahrain, Qatar, Oman, Panama, Kazakhstan, Armenia and Kuwait. 	en	1267	104	1063	JustinWolfers	2020-07-08T12:54:45.000Z	1,288	19,980				https://pbs.twimg.com/media/EcZ8Ip_XQAY7y-v?format=jpg&amp;name=360x360
1280884517188669440	885	Ross	A needed move. The media business model inherently has a cap. 	en	0	0	0		2020-07-08T15:20:41.000Z	1,288	19,980				
1280650877691244544	885	Ross	Wow, this is one to watch 	en	2	0	0		2020-07-07T23:52:17.000Z	1,288	19,980				
1280582103525023744	885	Ross	Outdoor Dining expressly a go 	en	2	0	1		2020-07-07T19:19:00.000Z	1,288	19,980				
1280527501035364352	885	Ross	((🤦🏽‍♂️)) 1) Board meetings can be rough. So much potential to make them better, especially during COVID times with Zoom fatigue. CEOs, let's make board meetings delightful! 	en	80	1	18	jamesjoaquin	2020-07-07T15:42:01.000Z	1,288	19,980				
1280304791516663808	885	Ross	Very Thielogian. The Ayn Rand Institute bootstrapped its way to a PPP Loan of at least $350K. 	en	1	0	0		2020-07-07T00:57:03.000Z	1,288	19,980				
1280266614970044416	885	Ross	Outdoor transmission is 20x less likely than Indoor according to Japan study. 1/318 cases from Outdoor transmission according to China study. 	en	1	0	0		2020-07-06T22:25:21.000Z	1,288	19,980				
1280226888435154945	885	Ross	NEW: CA Gov. Newsom says there were 6,000 businesses/restaurants visited by state agents this weekend and only 52 citations for violations. “The overwhelming majority were doing the right thing.” 	en	70	4	25	NBCian	2020-07-06T19:47:30.000Z	1,288	19,980				
1280234083419779072	885	Ross	This is a win-win that extends the Open Streets (Summer Streets needs a rebrand) program broadly beyond Univ and Cal Ave. Negligable effect on parking. And I know Parklet permit holders that would invest immeadiately. @EdShikada @adrianfine @GregTanaka @electcormack @VoteDubois 	en	2	0	0		2020-07-06T20:16:05.000Z	1,288	19,980				
1280234081624571904	885	Ross	The solution is for the city to grant Parklet permits for 2 years, with rapid approval. This incentivizes restaurants to invest in a quality Parklet, with greater return, and time to amortize the capital expense... 	en	1	1	0		2020-07-06T20:16:05.000Z	1,288	19,980				
1280234079867133952	885	Ross	Also subsidizing them may mean picking winners. And losers, as nationally 50% of restaurants are projected to die. Investing in a Parklet which may have to be removed with 30 day notice is one way to die... 	en	0	1	0		2020-07-06T20:16:04.000Z	1,288	19,980				
1280234077929394176	885	Ross	Menlo Park subsidized permanent Parklets with up to $40k. While some restaurants are advocating and holding out for that, it’s not likely here. The city has funds available for crisis response like this, but major forces (esp second order effects) are causing a budget crisis... 	en	1	1	0		2020-07-06T20:16:04.000Z	1,288	19,980				
1280234076150968320	885	Ross	Parklets cost ~$10k or more. They are exploring a lower cost option per @VoteDubois urging like at the plastic barriers at Town and Country. But restaurants are at the brink of death, PPP about to run out, hard to make the investment... 	en	0	1	0		2020-07-06T20:16:04.000Z	1,288	19,980				
1280234072275468289	885	Ross	Parklets (converted parking spaces for outdoor dining) are a good solution for helping restaurants survive. Data shows how they have increased revenue in Palo Alto for those who invested in them. There’s a problem with the @cityofpaloalto program so far, and a good solution... 	en	0	1	0		2020-07-06T20:16:03.000Z	1,288	19,980				
1280202014694051840	885	Ross	Great thread on the second order effects of the shift to remote work 	en	1	0	2		2020-07-06T18:08:39.000Z	1,288	19,980				
1280189253637607424	885	Ross	How to mask 	en	434761	11104	121080	sarahcpr	2020-07-06T17:17:57.000Z	1,288	19,980		blob:https://twitter.com/bdf607b1-97c4-40ee-a474-c30213cf6e74	https://pbs.twimg.com/ext_tw_video_thumb/1280189170326126592/pu/img/V8Y19XaNyY309DFV.jpg	
1279837309295157248	885	Ross	Actions by some at ABC in Morgan Hill raised a major concern they are shutting outdoor dining across Santa Clara County. CA hasn’t clarified the mistake. 	en	5	0	0		2020-07-05T17:59:27.000Z	1,288	19,980				
1279528841539547136	885	Ross	Unless we vote to save ((Flag of United States)) democracy, perhaps save the world, and advance #USMNT ((Soccer ball)) to win the World ((Trophy)) Happy 4th of July! ((Party popper)) 	en	1	1	0		2020-07-04T21:33:42.000Z	1,288	19,980				
1279528838309965824	885	Ross	Back to ((Pile of poo)) . There are systemic dysfunctions for ((Flag of United States)) ((Soccer ball)) . But Davies shows the way for a competitive national team. Unfortunately with Trump trying to destroy the immigration that is our competitive advantage, it’s likely that ((Flag of Canada)) will win a ((Trophy)) before the ((Flag of United States)) ... 	en	0	1	0		2020-07-04T21:33:42.000Z	1,288	19,980				
1279528834698629120	885	Ross	If Kobe Bryant stayed in ((Flag of Italy)) he’d be a national team soccer player. If a youth system and functional pro league, DeRossi wouldn’t have gone from ((Flag of United States)) to ((Flag of Italy)) . But you have to applaud ((Flag of United States)) for the ((👩🏽)) #USWNT for having the best women’s youth and pro league, but with similar dysfunctions. 	en	0	1	0		2020-07-04T21:33:41.000Z	1,288	19,980				
1279528831489982465	885	Ross	Back to @AlphonsoDavies . Born in a ((Flag of Ghana)) refugee camp, immigrated to ((Flag of Canada)) , joined the @WhitecapsFC academy, record breaking transfer fee for MLS to Bayern Munich. Now one of the top left-backs in the world, today they won the German Cup. 	en	0	1	0		2020-07-04T21:33:40.000Z	1,288	19,980				
1279528828667232256	885	Ross	Think Barcelona and ((Flag of Spain)) . Consider how ((Flag of Germany)) overhauled their youth system to create a generation of players with a system of play, and Bayern Munich and ((Flag of Germany)) ((Trophy)) . Thank Klinsmann for trying. 	en	0	1	0		2020-07-04T21:33:39.000Z	1,288	19,980				
1279528824791633920	885	Ross	The result is MLS is so ((Thumbs down)) I can’t watch it. They do ok on TV rights because sports is tribal with our fragmented media market. Every pro league has to has a % of native players. National teams that win have cultivated native talent where some play together since youth, and Pro. 	en	0	2	0		2020-07-04T21:33:38.000Z	1,288	19,980				
1279528821415239680	885	Ross	Bordering on an antitrust violation, it’s a closed league. No promotion/relegation with lower leagues to spur competition. Entrepreneurial owners of lower teams like ((Hundred points symbol)) @dens don’t have that upside, so they aren’t going to be a academy solution for cultivating talent. 	en	2	1	1		2020-07-04T21:33:38.000Z	1,288	19,980				
1279528817632014337	885	Ross	((American football)) NFL City Envy is insane. But they put a collective salary cap to not have NFL problems. There’s an exception where a designated player or two doesn’t have to have that cap, so they get players at the end of their career like Beckham or Henry to sell jerseys. 	en	0	1	0		2020-07-04T21:33:37.000Z	1,288	19,980				
1279528814947659776	885	Ross	Main goal ((Heavy plus sign)) MLS franchises. Especially if the new investors bring a stadium deal. They disbanded the league champion @SJEarthquakes because they couldn’t get a deal done. When a new franchise is created, players are drafted from others, spreading talent like @landondonovan ... 	en	1	1	0		2020-07-04T21:33:36.000Z	1,288	19,980				
1279528811684491264	885	Ross	((Circus tent)) MLS is an oligopoly. Owners don’t just own teams, the have a share in the league. Soccer federations all have their share of corruption. Here it’s structural, where decisions are guided by expanding the value of the league franchise... 	en	1	1	0		2020-07-04T21:33:35.000Z	1,288	19,980				
1279528808584900608	885	Ross	Scouting is poor with either track. But there are ~3 Major League Soccer youth academies that are quality, like Real Salt Lake and Vancouver. But this is an oddity because of how MLS’ structure was sold to “develop the sport in ((Flag of United States)) ”... 	en	0	1	0		2020-07-04T21:33:35.000Z	1,288	19,980				
1279528803199356928	885	Ross	((Flag of United States)) ((Soccer ball)) doesn’t get better because ((1️⃣)) youth system and ((2️⃣)) MLS oligarchy. Between AYSO and Pro talent either goes on the college or academy track. College track for scholarship creates better people, but not top players. If Steve Young played soccer he would have just been a lawyer 	en	0	1	0		2020-07-04T21:33:33.000Z	1,288	19,980				
1279528799554531329	885	Ross	The best players in all Pro sports are from ((Credit card)) blue-collar backgrounds like my doppelgänger ((Flag of United Kingdom)) @GaryLineker , and likely face discrimination as a minority, like ((Flag of France)) Zidane Pro sports are a pathway out of poverty. In the ((Flag of United States)) that is ((American football)) ((Basketball)) ((Baseball)) In ((Flag of United States)) , ((Soccer ball)) is the most popular youth sport 	en	0	1	0		2020-07-04T21:33:32.000Z	1,288	19,980				
1279528794345271296	885	Ross	In Soccernomics ( ((Banknote with dollar sign)) ((Baseball)) for soccer), the model for national team success has 3 factors: ((Compass)) Football tradition ((Money with wings)) GDP ((Chart with upwards trend)) Population The ((Flag of United Kingdom)) has longest ((Compass)) high ((Money with wings)) , ((Trophy)) ((Flag of Germany)) has ((Compass)) ((Money with wings)) ((Chart with upwards trend)) , hence ((Trophy)) ((Trophy)) ((Trophy)) ((Trophy)) ((Flag of Brazil)) has ((Compass)) ((Chart with upwards trend)) , ((Trophy)) ((Trophy)) ((Trophy)) ((Trophy)) ((Trophy)) ((Flag of United States)) has ((Money with wings)) ((Chart with upwards trend)) , ((Third place medal)) in 1930 ... 	en	0	1	0		2020-07-04T21:33:31.000Z	1,288	19,980				
1279528788317966337	885	Ross	Watching the ((Flag of Germany)) German Cup, realizing the greatest hope for ((Flag of United States)) American ((Soccer ball)) Soccer is a ((Flag of Canada)) Canadian born in ((Flag of Ghana)) Ghana, but ((Pile of poo)) Trump is crushing that hope. His name is @AlphonsoDavies and here’s what he means for #USMNT ... 	en	2	1	0		2020-07-04T21:33:30.000Z	1,288	19,980				
1279482878720499712	885	Ross	On this day we celebrate our freedom from a despotic king. 	en	0	0	0		2020-07-04T18:31:04.000Z	1,288	19,980				
1279430651620421632	885	Ross	Happy Interdependence Day! ((Flag of United States)) 	en	7	1	0		2020-07-04T15:03:32.000Z	1,288	19,980				
1279087505518628864	885	Ross	Head to University or Cal Ave this weekend as both streets are temporarily closed to support outdoor dining and retail! Don't forget to wear a mask, wash your hands, and be mindful of your distance to others. See you out there! More info at http://cityofpaloalto.org/SummerStreets 	en	16	0	4	cityofpaloalto	2020-07-03T16:20:00.000Z	1,288	19,980				https://pbs.twimg.com/media/Eb97P8EUcAElsry?format=jpg&amp;name=360x360
1279116386514554880	885	Ross	Open Space event practices (eg Barcamp) for Zoom 	en	3	1	0		2020-07-03T18:14:46.000Z	1,288	19,980				
1267107442376110080	888	caroline	*i am not a threat* ((✨)) ((🖤)) ((✨)) #humanrights #GeorgeFloydProtests 	en	4	1	3		2020-05-31T14:55:30.000Z	1,108	224,581				
1292552188464705536	888	caroline	Sixty years ago this week, on August 12, 1960, #DrSeuss published what would become his best-selling book of all time. Written as the result of a $50 bet between Seuss and his publisher Bennett Cerf, it has since sold more than 8 million copies. The book? GREEN EGGS AND HAM. /1 	en	12712	256	4437	brianjayjones	2020-08-09T20:03:50.000Z	1,108	224,581				https://pbs.twimg.com/media/EfARHx7WAAQRFiU?format=jpg&amp;name=360x360
1288679124089757697	888	caroline	I’m about to finish up my time in the fields, and wanted everyone to know that we (farmworkers) are paid $7 for two gallons of blueberries. How much do you pay for your blueberries? 	en	236197	2179	65593	giannanino	2020-07-30T03:33:40.000Z	1,108	224,581				https://pbs.twimg.com/media/EeJO1DHUEAI7POy?format=jpg&amp;name=360x360
1288860270635311106	888	caroline	The most incredible aspect of the internet is that no one person or organization controls it: the people make it what it is every day. That ideal is constantly under threat, especially today. We commit as a company to fighting for an #OpenInternet . 	en	7724	1284	1547	jack	2020-07-30T15:33:29.000Z	1,108	224,581				
1288229597746733056	888	caroline	No better time to explore another planet. Join astronauts @maejemison and @AstroJaws for the launch of the @NASAPersevere Mars rover at 7AM ET on Thursday, July 30th. 	en	9559	568	2041	TwitterLive	2020-07-28T21:47:24.000Z	1,108	224,581				
1286669106175934464	888	caroline	“Having a daughter does not make a man decent. Having a wife does not make a decent man. Treating people with dignity and respect makes a decent man.” — Rep. Alexandria Ocasio-Cortez, July 23, 2020 	en	146100	10148	27642	Comey	2020-07-24T14:26:34.000Z	1,108	224,581				
1287724750383521792	888	caroline	((💸)) ((📉)) 	und	0	0	0		2020-07-27T12:21:19.000Z	1,108	224,581				
1287417455447552002	888	caroline	We're 100 days away from Election Day and there is too much at stake to sit this one out. Now's a good time to make sure you're registered to vote––and to make sure your friends and family are, too. 	en	218089	9811	60983	BarackObama	2020-07-26T16:00:15.000Z	1,108	224,581				
1283456503635214336	888	caroline	(*☻-☻*) #banksy #covidart 	und	0	0	0		2020-07-15T17:40:50.000Z	1,108	224,581				
1283192507665391616	888	caroline	((✨)) ((🙏🏼)) ((✨)) #rip @grantimahara 	und	2	0	0		2020-07-15T00:11:49.000Z	1,108	224,581				
1282653996923203584	888	caroline	Bezos net worth up $74B in 6.5 months this year. Musk up $43B. By making markets a liquidity circus the Fed has made the wealth gap larger than ever. Congrats. 	en	1885	65	646	NorthmanTrader	2020-07-13T12:31:58.000Z	1,108	224,581				
1280963534223007744	888	caroline	yay! looking forward to @yangszechoo book chat today! ((🥰)) ((📖)) 	en	2	1	2		2020-07-08T20:34:40.000Z	1,108	224,581				
1276787584841244672	888	caroline	Srinivasa Ramanujan was one of the greatest mathematical geniuses that world has seen in recent years -- despite having no formal education. 	en	358	7	131	DiscoverMag	2020-06-27T08:00:56.000Z	1,108	224,581				
1275198427815534592	888	caroline	((😷)) ((💗)) 	und	1	0	0		2020-06-22T22:46:11.000Z	1,108	224,581				
1275169648363868162	888	caroline	The tech mega-cap stocks (FANMAG) now account for a record 24% of the S&amp;P's market capitalization, via @SoberLook @yardeni 	en	537	39	222	lisaabramowicz1	2020-06-22T20:51:50.000Z	1,108	224,581				https://pbs.twimg.com/media/EbJPqAnWAAAObyI?format=jpg&amp;name=360x360
1275164943210254336	888	caroline	((💯)) @jack @square 	und	1	0	0		2020-06-22T20:33:08.000Z	1,108	224,581				
1274021940760641536	888	caroline	Juneteenth has never been a celebration of victory, or an acceptance of the way things are. It's a celebration of progress. It's an affirmation that despite the most painful parts of our history, change is possible––and there is still so much work to do. 	en	366417	7585	79562	BarackObama	2020-06-19T16:51:15.000Z	1,108	224,581				
1273637590013480961	888	caroline	Eight years ago this week, we protected young people who were raised as part of our American family from deportation. Today, I'm happy for them, their families, and all of us. We may look different and come from everywhere, but what makes us American are our shared ideals… 	en	577688	16204	92558	BarackObama	2020-06-18T15:23:59.000Z	1,108	224,581				
1273290982012968963	888	caroline	Meet this year's 35 Innovators Under 35. They're brilliant young entrepreneurs, inventors, visionaries, humanitarians and pioneers who are working to make the world a better place. https://www.technologyreview.com/2020/06/17/1003660/2020-35-innovators-under-35/?utm_medium=tr_social&amp;utm_campaign=site_visitor.unpaid.engagement&amp;utm_source=Twitter#Echobox=1592411166 	en	66	1	54	techreview	2020-06-17T16:26:41.000Z	1,108	224,581		blob:https://twitter.com/35919873-5a19-48aa-b546-2ed575edb13a	https://pbs.twimg.com/ext_tw_video_thumb/1273290928673951749/pu/img/eKhRIYE5bwVcQUHD.jpg	
1273290778736017409	888	caroline	((⚰️)) ((💯)) #ripfreemarkets 	und	4	0	0		2020-06-17T16:25:52.000Z	1,108	224,581				
1272985103405404160	888	caroline	so beautiful! what a great idea! ((😊)) ((💗)) ((💐)) #upcycling 	en	2	1	0		2020-06-16T20:11:14.000Z	1,108	224,581				
1271483265384198145	888	caroline	((✨)) ((🖤)) ((🖤)) ((🖤)) ((✨)) 	und	3	0	1		2020-06-12T16:43:28.000Z	1,108	224,581				
1270399281996783617	888	caroline	((💚)) #nature 	und	1	0	0		2020-06-09T16:56:06.000Z	1,108	224,581				
1267858513230954503	888	caroline	#GeorgeFloyd 	und	2	0	0		2020-06-02T16:39:59.000Z	1,108	224,581				
1267514560396824576	888	caroline	((🖤)) ((🖤)) ((🖤)) 	und	1	0	1		2020-06-01T17:53:15.000Z	1,108	224,581				
1266820517551411201	888	caroline	((✨)) ((🤩)) ((🚀)) ((🌌)) ((✨)) 	und	3	0	1		2020-05-30T19:55:22.000Z	1,108	224,581				
1266771724088950784	888	caroline	((✨)) ((🖤)) ((🙏🏼)) ((🖤)) ((✨)) 	und	1	0	0		2020-05-30T16:41:29.000Z	1,108	224,581				
1265837138114830336	888	caroline	Fact check: there is someone ultimately accountable for our actions as a company, and that’s me. Please leave our employees out of this. We’ll continue to point out incorrect or disputed information about elections globally. And we will admit to and own any mistakes we make. 	en	215330	29712	39371	jack	2020-05-28T02:47:46.000Z	1,108	224,581				
1265478732019650562	888	caroline	Together with @SpaceX , we will return human spaceflight to American soil after nearly a decade. Tomorrow is not only a big day for our teams – it’s a big day for our country. http://www.nasa.gov/launchamerica/ #LaunchAmerica 	en	51091	814	12994	NASA	2020-05-27T03:03:35.000Z	1,108	224,581		blob:https://twitter.com/b58b2662-a7fb-4a6a-b5e9-8ae0efa59e0c	https://pbs.twimg.com/media/EY_iMXuXkAEwZpn.jpg	
1265634139358629889	888	caroline	#cantilloneffect 	und	0	0	0		2020-05-27T13:21:07.000Z	1,108	224,581				
1264389834908426240	888	caroline	((😄)) ((🎶)) ((🍟)) ((🥤)) ((🥗)) ((🍗)) 	und	3	0	1		2020-05-24T02:56:42.000Z	1,108	224,581				
1264315640623493120	888	caroline	cute baby #mothra vibes ((🥰)) ((💕)) ((💛)) @bonniegrrl 	en	6	1	0		2020-05-23T22:01:53.000Z	1,108	224,581				
1263229043002015750	888	caroline	Emergency monetary policies produce an unintended consequence: rising food prices around the world. 	en	1	0	1	maybeawriter	2020-05-20T22:04:08.000Z	1,108	224,581				
1263246213450739714	888	caroline	Food prices soar to highest one-month increase since 1974; price of eggs up 16% in April https://www.usatoday.com/story/money/2020/05/20/food-prices-soar-coronavirus-covid-19/5226969002/ via @USATODAY 	en	1	0	1	mlhbionicearsab	2020-05-20T23:12:21.000Z	1,108	224,581				
1071416107603501056	888	caroline	The #CantillonEffect explains how #CentralBank money printing increases the gap between rich and poor. "Furthermore, he posited that the original recipients of new money enjoy higher standards of living at the expense of later recipients." https://en.wikipedia.org/wiki/Richard_Cantillon#Monetary_theory 	en	3	0	3	ct_alham	2018-12-08T14:48:00.000Z	1,108	224,581				
1263126195002105857	888	caroline	If you are a minority or woman owned, or any company that believes you are eligible for a PPP loan, but have not been approved, please post an overview of your status here and I will do my best to connect you to a bank. There is still more than $100B left. Let's get that money 	en	79228	2521	21175	mcuban	2020-05-20T15:15:27.000Z	1,108	224,581				
1261395635279785984	888	caroline	#startsmall is up to $87.8M in disbursements. Most are in the tracking sheet, some in process for next week. Interested in helping? All these are incredible and impactful orgs...find one that resonates with you. And now a thread on 6 new grants... 	en	1094	178	222	jack	2020-05-15T20:38:49.000Z	1,108	224,581				
1261332254753566725	888	caroline	((😍)) ((👏🏼)) ((👏🏼)) ((👏🏼)) 	und	0	0	0		2020-05-15T16:26:58.000Z	1,108	224,581				
1261188453703618562	888	caroline	((✨)) ((🐛)) ((✨)) 	und	5	0	0		2020-05-15T06:55:33.000Z	1,108	224,581				
1260544011195932677	888	caroline	((Red heart)) 	und	23	1	4	bznotes	2020-05-13T12:14:46.000Z	1,108	224,581				
1259566627563044869	888	caroline	happy mother’s day @Padmasree @yangszechoo @suzansong @sara @EcoToads @rashmi @elizabeth @melody @AmyJoMartin @mayka + all the beautiful mothers out there! ((Sparkles)) ((Smiling face with 3 hearts)) ((Two hearts)) ((Breastfeeding)) ((Two hearts)) ((Sparkles)) 	en	6	4	0		2020-05-10T19:31:00.000Z	1,108	224,581				
1258802523030224896	888	caroline	so true! @krupali and many healthcare workers know first hand. thank you @suzansong for helping health care workers ((Two hearts)) ((👩🏽‍⚕️)) ((🧑🏻‍⚕️)) ((👨🏼‍⚕️)) #MentalHealthMonth #MentalHealthAwarenessMonth #Mentalhealth #ThankYouCoronaWarriors 	en	1	0	1		2020-05-08T16:54:43.000Z	1,108	224,581				
1256627337778487296	888	caroline	30 min reading breaks is a great idea! thanks for the tip. looking forward to @GetFable ’s official launch! ((Smiling face with smiling eyes)) ((Rocket)) ((Books)) #MentalHealthAwarenessMonth #MentalHealthMonth #readinghabits #booklovers 	en	2	0	1		2020-05-02T16:51:18.000Z	1,108	224,581				
1255966446754004993	888	caroline	great podcast with @jeffbooth . so much #wisdom + insight! ((Nerd face)) 	en	7	0	3		2020-04-30T21:05:10.000Z	1,108	224,581				
1253045554138898432	888	caroline	: "We desperately need hope now," Dr. Jane Goodall says. I chat with Goodall about #COVID19 , animal rights, #environment , activism &amp; her new doc Jane Goodall: The Hope airing tonight on @NatGeo . Read my @CNET interview with Jane Goodall here: https://cnet.co/3eIzcjr 	en	29	1	10	bonniegrrl	2020-04-22T19:38:35.000Z	1,108	224,581				https://pbs.twimg.com/media/EWO2J-yUYAAgL5F?format=jpg&amp;name=360x360
1254407493415047170	888	caroline	pestilence on one side, famine on another. so far. https://www.politico.com/news/2020/04/26/food-banks-coronavirus-agriculture-usda-207215 open question: what type of polygon are we going to end up dealing with? 2020 is definitely shaping up to be some HoF bullshit. #foodsecurity #agtwitter 	en	1	1	1	EghosaO	2020-04-26T13:50:26.000Z	1,108	224,581				
1253760000016580610	888	caroline	CORE’s open source #COVID19 testing playbook for local and state governments, NGOs, and community orgs. All their learnings from administering tests in California. Also: Sean Penn is an incredible human and warrior. https://static1.squarespace.com/static/5c61c6ea01232c3fff66df40/t/5ea3030df506d755a7b174ad/1587741476158/SMALL_CORE_+COVID-19+Response+Manual+copy.pdf 	en	578	84	128	jack	2020-04-24T18:57:32.000Z	1,108	224,581				
1253736699714101248	888	caroline	((Thinking face)) ((Money with wings)) ((Chart with downwards trend)) 	und	0	0	0		2020-04-24T17:24:57.000Z	1,108	224,581				
1253400520334536704	888	caroline	((Face with tears of joy)) ((Face with tears of joy)) ((Face with tears of joy)) 	und	2	0	0		2020-04-23T19:09:05.000Z	1,108	224,581				
1253199484269387776	888	caroline	I used to think that anyone who had a puppy must be in a permanent state of delirious happiness. Now that I have a puppy of my own, I realize I was right. 	en	5519	233	177	tracyalloway	2020-04-23T05:50:15.000Z	1,108	224,581				https://pbs.twimg.com/media/EWRCHdsU0AAZBL8?format=jpg&amp;name=360x360
1253055512297590795	888	caroline	Amazing. Here's a whale giving us a beautiful rainbow. Let's ensure we make , everyday. Protect eachother and the planet. Time for a #GreenNewDeal . #ActOnClimate #climate #energy #nature 	en	1932	44	797	MikeHudema	2020-04-22T20:18:09.000Z	1,108	224,581		blob:https://twitter.com/f0b2bf70-4f04-4b89-8554-0c699d8b612b	https://pbs.twimg.com/ext_tw_video_thumb/1253055480609607681/pu/img/rlwZrXWOZ1reabQz.jpg	
1252918823784677376	888	caroline	This , be inspired by the home we all share https://on.natgeo.com/2XSnXPg 	en	4903	55	2632	NatGeo	2020-04-22T11:15:00.000Z	1,108	224,581		blob:https://twitter.com/908bdc10-112a-47a8-b7d6-6dd88ae21fa5	https://pbs.twimg.com/amplify_video_thumb/1252730371805978624/img/j8j8h5KjSAQC_cKi.jpg	
1252535212136955904	888	caroline	The oil and gas industry shed nearly 51,000 drilling and refining jobs in March, a 9% reduction in the total workforce that is likely to get worse. "We’re looking at anywhere between five and seven years of job growth wiped out in a month." 	en	166	12	92	lisaabramowicz1	2020-04-21T09:50:40.000Z	1,108	224,581				
1251585143908691968	888	caroline	Today we're launching http://rt.live/ See how quickly #COVID19 is growing in each US state. Rt is the metric we need to watch. 	en	2341	220	1010	kevin	2020-04-18T18:55:26.000Z	1,108	224,581				
1250855165202063361	888	caroline	#yayoikusama ((Purple heart)) 	und	0	0	0		2020-04-16T18:34:45.000Z	1,108	224,581				
1250494100974911489	888	caroline	$6.2mm of help for New Orleans, New York, Puerto Rico, and the Caribbean. Grateful for @Rihanna , @S_C_ , and all the incredible organizations providing cash, shelter, food, healthcare, and testing for those most in need! 	en	1984	82	534	jack	2020-04-15T18:40:01.000Z	1,108	224,581				
1250527517389189120	888	caroline	love #matcha ! so happy to see you’re enjoying it! ((Smiling face with 3 hearts)) ((Green heart)) ((Teacup without handle)) 	en	2	1	0		2020-04-15T20:52:48.000Z	1,108	224,581				
1249710938464432129	888	caroline	Wildlife is reclaiming Yosemite National Park: 'The bear population has quadrupled' 	en	10250	417	4896	latimes	2020-04-13T14:48:00.000Z	1,108	224,581				
1249744524236095489	888	caroline	lol the best part about getting daily promoted tweets from @blackrock is reading the replies! ((Face with tears of joy)) 	en	0	0	0		2020-04-13T17:01:28.000Z	1,108	224,581				https://pbs.twimg.com/media/EVf8BSsVAAYmt9E?format=jpg&amp;name=360x360
1249057146051821568	888	caroline	every single party in San Francisco ((Thumbs up)) 	en	82895	1571	15742	yayalexisgay	2020-04-11T19:30:04.000Z	1,108	224,581		blob:https://twitter.com/b8a53d7d-04cf-40f3-8818-f86ba1cbca90	https://pbs.twimg.com/ext_tw_video_thumb/1249055946799640576/pu/img/LwBu1IAvN4BnDKBu.jpg	
1248298770162302976	888	caroline	thanks @jack ! （╹◡╹）♡ 	en	2	0	0		2020-04-09T17:16:33.000Z	1,108	224,581				
1247729539905515520	888	caroline	((Frowning face)) 	und	2	0	0		2020-04-08T03:34:38.000Z	1,108	224,581				
1245745493357072384	888	caroline	children are resilient + our future ((Purple heart)) ((Earth globe americas)) ((Purple heart)) 	en	3	0	0		2020-04-02T16:10:45.000Z	1,108	224,581				
1245744333665550338	888	caroline	((Exploding head)) 	und	3	0	0		2020-04-02T16:06:08.000Z	1,108	224,581				
1245007713387544576	888	caroline	We've seen all too terribly the consequences of those who denied warnings of a pandemic. We can't afford any more consequences of climate denial. All of us, especially young people, have to demand better of our government at every level and vote this fall. 	en	339829	38401	99427	BarackObama	2020-03-31T15:19:04.000Z	1,108	224,581				
1245026520587841536	888	caroline	congrats @mattmiesnieks + @6d_ai team! #welldone ((Partying face)) ((👏🏼)) ((Bottle with popping cork)) 	en	1	0	0		2020-03-31T16:33:48.000Z	1,108	224,581				
1244302423033708544	888	caroline	Coronavirus anxiety is running high on Navajo Nation — a sprawling reservation of 175,000 residents, scarce supplies and resources, and only four inpatient hospitals. 	en	428	20	356	latimes	2020-03-29T16:36:30.000Z	1,108	224,581				
1230266880314748928	888	caroline	The hydrogen energy economy comes to suburban New York City. 	en	1056	53	396	business	2020-02-19T23:04:16.000Z	1,108	224,581				
1241868211236175872	888	caroline	#Hydroxychloroquine #cardiotoxicity presenting as a rapidly evolving biventricular cardiomyopathy: key diagnostic features and literature review #covid19 #HeartFailure 	en	1	0	0		2020-03-22T23:23:49.000Z	1,108	224,581				
1240835243789160448	888	caroline	2020 will vastly accelerate adoption of: 1 e-commerce 2 drone delivery 3 digital contactless payments 4 video conferencing 5 autonomous vehicles 6 wearable health monitors 7 3D manufacturing 8 voice mobile applications 9 online learning 10 smart robotics http://zd.net/3b93fOt 	en	5397	153	3045	ValaAfshar	2020-03-20T02:59:10.000Z	1,108	224,581				https://pbs.twimg.com/media/EThVE3bXYAEzUX8?format=jpg&amp;name=240x240 https://pbs.twimg.com/media/EThVE4SWkAA-O1W?format=jpg&amp;name=240x240 https://pbs.twimg.com/media/EThVE4FXQAUs5Qh?format=jpg&amp;name=240x240 https://pbs.twimg.com/media/EThVE6kWsAU1l2A?format=jpg&amp;name=240x240
1239957076211834881	888	caroline	We owe a profound debt of gratitude to all our health professionals and everybody who’ll be on the front lines of this pandemic for a long while. They’re giving everything. May we all model our own behavior on their selflessness and sacrifice as we help each other through this. 	en	519915	8270	96461	BarackObama	2020-03-17T16:49:38.000Z	1,108	224,581				
1240094502645157888	888	caroline	intermittent #fasting has never been so easy! ((Winking face)) ((No entry sign)) ((Microbe)) #coronavirus #diet 	en	7	1	0		2020-03-18T01:55:43.000Z	1,108	224,581				https://pbs.twimg.com/media/ETWzXebU8AMRtKj?format=jpg&amp;name=240x240 https://pbs.twimg.com/media/ETWzXeYU8AAmTyF?format=jpg&amp;name=240x240 https://pbs.twimg.com/media/ETWzXeXUYAEtBBn?format=jpg&amp;name=240x240
1239992147278888960	888	caroline	A few of us have gotten together to support ER/ICU staff on the frontlines of #COVID19 w hot dinners while also helping our local restaurants who are facing unprecedented times. Now we need people who can donate money for the meals. Learn more &amp; sign up: 	en	401	32	224	rsarver	2020-03-17T19:09:00.000Z	1,108	224,581				
1240003417134653440	888	caroline	Blue Apron, which was on the ropes is up 3x in the last week. It benefits from a short, flexible, and direct supply chain. 	en	2	2	1	robleclerc	2020-03-17T19:53:47.000Z	1,108	224,581				https://pbs.twimg.com/media/ETVgiM2WoAIhLDX?format=jpg&amp;name=360x360
1240003923311644673	888	caroline	love it! so cute + what a great idea! ((Smiling face with smiling eyes)) ((Growing heart)) ((Face with medical mask)) 	en	3	1	0		2020-03-17T19:55:48.000Z	1,108	224,581				
1239307313204178946	888	caroline	amazing @bznotes ! great to see your kids rise up to help the community. you must be a proud dad! ((Smiling face with heart-shaped eyes)) ((Growing heart)) ((Family (man, woman, girl, boy))) #CompassionThroughAction 	en	1	0	0		2020-03-15T21:47:43.000Z	1,108	224,581				
1292340841206263808	922	Holger	See why ‘The Falling Soldier’ made the list of #TIME100Photos 	en	0	0	0		2020-08-09T06:04:01.000Z	898	4,132				
1289328349286789122	922	Holger	Live now! Radio 1 Dance - Radio 1's Dance Weekend, @FourTet - @BBCR1 	en	0	0	0		2020-07-31T22:33:27.000Z	898	4,132				
1289286278492508160	922	Holger	Ok…. This shit is Spooky as F! I did it 5 times.. 	en	8665	855	2205	FINALLEVEL	2020-07-31T19:46:17.000Z	898	4,132				
1288522493435600896	922	Holger	Brandt's Cormorants and California Quail on our excursion yesterday. #birdwatching 	en	5	0	1		2020-07-29T17:11:16.000Z	898	4,132				https://pbs.twimg.com/media/EeHAXasU4AAGWHB?format=jpg&amp;name=240x240 https://pbs.twimg.com/media/EeHAYE_UEAAP-n9?format=jpg&amp;name=240x240
1287852889071710209	922	Holger	"If you think the election is gonna solve our problems then…you’re probably wealthy enough to be enduring this pandemic no problem." @Lefsetz Silently we are all thinking what Bob just wrote. 	en	21	0	3	om	2020-07-27T20:50:30.000Z	898	4,132				
1286604287158566913	922	Holger	Showing a new style of skateboarding. On Youtube ((⬇️)) https://youtu.be/x3ici7djACc #freestyle #newstyle #isamuyamamoto 	en	9743	287	3896	ISAMUism_sk8_fs	2020-07-24T10:09:00.000Z	898	4,132		blob:https://twitter.com/4e5af523-c5b4-45b6-93c6-9d994a86d76b	https://pbs.twimg.com/ext_tw_video_thumb/1286604109039058945/pu/img/NJVGmpC8ArqP_PjG.jpg	
1287402755397746690	922	Holger	Cover Your Face https://b3ta.com/board/11320087 	en	2106	20	909	ricomonkeon	2020-07-26T15:01:50.000Z	898	4,132				https://pbs.twimg.com/media/Ed3F9LOXYAYms-N?format=jpg&amp;name=360x360
1287508447290781696	922	Holger	Crowlers 	en	0	0	0		2020-07-26T22:01:49.000Z	898	4,132				https://pbs.twimg.com/media/Ed4mGJsUYAUZxJg?format=jpg&amp;name=360x360
1287254879098949632	922	Holger	I'm on Ep.3 of the new documentary Home Game on @netflix and loving it so far. #freediving #highlandgames #calciostorico 	en	1	0	0		2020-07-26T05:14:13.000Z	898	4,132				https://pbs.twimg.com/media/Ed0_fZvU0AAt3ty?format=jpg&amp;name=360x360
1287046694790725632	922	Holger	Berry Falls (@ Big Basin Redwoods State Park in Boulder Creek, CA w/ @stwilhelm ) https://www.swarmapp.com/holger/checkin/5f1b64ba0251e933173a98cb?s=zPMBe__llymRBb9x4znSmaq31uE&amp;ref=tw 	en	5	0	0		2020-07-25T15:26:58.000Z	898	4,132				https://pbs.twimg.com/media/EdyCJcXWAAAGPfU?format=jpg&amp;name=360x360
1286453818272575489	922	Holger	Morning Dove outside my home office today. #birdwatching 	en	1	0	0		2020-07-24T00:11:06.000Z	898	4,132				https://pbs.twimg.com/media/Edpm7g1U0AAy8ud?format=jpg&amp;name=360x360
1286392679232942080	922	Holger	Historic. 	en	56610	1694	25670	ProjectLincoln	2020-07-23T20:08:09.000Z	898	4,132		blob:https://twitter.com/9d242009-a4f9-4ded-9825-03a3d7abdccc	https://pbs.twimg.com/ext_tw_video_thumb/1286392558038519814/pu/img/HnPGsuv7zZru4uf_.jpg	
1284963519859879936	922	Holger	((📺)) NEW VIDEO Help Donald Trump humiliate himself by teaching Don how to count to 5,000 with 5,000 retweets in under an hour #UnpresidentedIdiot 	en	26766	802	23435	MeidasTouch	2020-07-19T21:29:11.000Z	898	4,132		blob:https://twitter.com/1f108e67-2599-4af3-82ec-64b2c84320c0	https://pbs.twimg.com/media/EdUZqvqUcAA2e26.png	
1285341387001442306	922	Holger	A white-crowned sparrow on our hike yesterday. Is this the John Smith of West Coast birds, @igb ? Trying to pick up #birdwatching as a new hobby. 	en	5	1	0		2020-07-20T22:30:41.000Z	898	4,132				https://pbs.twimg.com/media/EdZzLcSUYAA7ZVV?format=jpg&amp;name=360x360
1285339845158559745	922	Holger	"This mirror image of America under President Trump is Germany under Chancellor Angela Merkel." Which Country Will Triumph in the Post-Pandemic World? 	en	1	0	0		2020-07-20T22:24:34.000Z	898	4,132				
1284949299504259078	922	Holger	Sunday hike (@ Miwok Trail in Mill Valley, CA) https://www.swarmapp.com/c/aKDZSrIT8oT 	en	5	0	0		2020-07-19T20:32:40.000Z	898	4,132				https://pbs.twimg.com/media/EdUOlARWsAAaXEA?format=jpg&amp;name=360x360
1283517179598495745	922	Holger	This is amazing. @VP is a disgrace. 	en	3783	105	2150	MeidasTouch	2020-07-15T21:41:56.000Z	898	4,132		blob:https://twitter.com/3f656feb-4863-46f7-9357-a047d60c30ad	https://pbs.twimg.com/amplify_video_thumb/1283504478315065346/img/QPA9cE1CyQ1zWWhm.jpg	
1283427433828347904	922	Holger	The MPS release catalogue is such a treasure trove of incredible jazz releases. https://www.mps-music.com/releases/ . Lots of incredible music came out of this small label from the Black Forest of Germany. 	en	0	0	0		2020-07-15T15:45:19.000Z	898	4,132				
1280193732428492800	922	Holger	This footage is from Tokyo in 1913-1915. It features denoising/damage removal, colorization, facial restoration, and upscaling to 4K/60fps—all through a neural network. Denis Shiryaev again shows how AI and art will intertwine in the 2020s. Full link: https://www.youtube.com/watch?v=MQAmZ_kR8S8 	en	802	4	319	JesseDamiani	2020-07-06T17:35:45.000Z	898	4,132		blob:https://twitter.com/e6f7c6e3-9633-4bbf-85e5-35a65b3cf76c	https://pbs.twimg.com/ext_tw_video_thumb/1280191753543315461/pu/img/_D_PqMH_MBMfctiT.jpg	
1283046285919035394	922	Holger	Do you remember when you joined Twitter? I do! 	en	2	0	0		2020-07-14T14:30:47.000Z	898	4,132				https://pbs.twimg.com/media/Ec5Ly5QXsAQm7vR?format=jpg&amp;name=360x360
1282369803043270657	922	Holger	Really enjoyed this movie. 	en	0	0	0		2020-07-12T17:42:40.000Z	898	4,132				
1281631729409822722	922	Holger	How to cognitive 	en	479015	15139	133876	sarahcpr	2020-07-10T16:49:50.000Z	898	4,132		blob:https://twitter.com/3532af87-a826-4d37-8d0c-c98541946a19	https://pbs.twimg.com/ext_tw_video_thumb/1281631660753199106/pu/img/wJls09H_pp8dE4fr.jpg	
1281272202357141504	922	Holger	Happy 15th birthday to @GoogleEarth , still the world’s biggest publicly accessible repository of geographic imagery. It’s been inspiring to see how people have used it to explore, understand and contribute to our world. 	en	8010	202	863	sundarpichai	2020-07-09T17:01:12.000Z	898	4,132				
1281289591480295425	922	Holger	Why do American cities waste so much space on cars? @fmanjoo considers what the future could look like without them. https://nyti.ms/3fadd4G 	en	4009	313	1992	nytopinion	2020-07-09T18:10:18.000Z	898	4,132		blob:https://twitter.com/0eac8cc7-8b25-4117-aea2-fa9eed26a563	https://pbs.twimg.com/amplify_video_thumb/1281289327478177795/img/R5kOuJZ70IlKINp1.jpg	
1280812836067987456	922	Holger	Coming soon, from an ideology near you... ((🍿)) #COVID19 	en	1390	30	419	MassiveAttackUK	2020-07-08T10:35:51.000Z	898	4,132				https://pbs.twimg.com/media/EcZce6aWkAA8Qfc?format=jpg&amp;name=360x360
1280675758566854656	922	Holger	She's more conservative than I typically vote in Germany (which is Green), but she turned out to be an excellent leader, especially during this crisis. How Germany Fell Back in Love With Angela Merkel 	en	18	0	0		2020-07-08T01:31:09.000Z	898	4,132				
1279988539980054528	922	Holger	Great track (1979) by Tabby Cat Kelly 	en	0	0	0		2020-07-06T04:00:23.000Z	898	4,132				
1259870572969971717	922	Holger	The 43rd President of the United States listened to Trump’s inaugural and turned to the former Secretary of State and said, “well, that was some weird shit” Indeed it was. Trump, raged about “American carnage” and described a dystopic America that existed only in the fever (1) 	en	66351	1536	21070	SteveSchmidtSES	2020-05-11T15:38:46.000Z	898	4,132				
1278733238324932608	922	Holger	this is one of the most powerful ads i have ever watched 	en	168449	3283	92608	AdamParkhomenko	2020-07-02T16:52:16.000Z	898	4,132		blob:https://twitter.com/8ea1912a-57f3-4edb-b787-73e329e1dfcf	https://pbs.twimg.com/media/Eb74nPPUwAEXmqi.jpg	
1278833894255722496	922	Holger	2 hrs 45 min uphill (@ Cinnamon Mountain Peak in Gallatin Gateway, MT) https://www.swarmapp.com/c/evEtZhobdqr 	en	4	1	0		2020-07-02T23:32:14.000Z	898	4,132				https://pbs.twimg.com/media/Eb9UpkAWkAIO7P9?format=jpg&amp;name=360x360
1274936320499089408	922	Holger	Count the deaths. 122,000 and climbing as your thumbs punched out this tweet. More than any other nation by far. More than 25% of the global total, and we are less than 5% of the world population. Thousands have needlessly died alone and in pain due to your incompetence. 	en	739	17	115	BeauWillimon	2020-06-22T05:24:40.000Z	898	4,132				
1274843454997176322	922	Holger	Father's Day hike (@ Mt. Barnabe Summit in Lagunitas, CA) https://www.swarmapp.com/c/bSXixYMLl6v 	en	2	1	0		2020-06-21T23:15:39.000Z	898	4,132				https://pbs.twimg.com/media/EbEnXcOWoAMJmrU?format=jpg&amp;name=360x360
1274452676479078400	922	Holger	Urgent request: Does anyone know where I can acquire a new or lightly used PS4? The one I ordered just got delayed again and someone is going to be very unhappy on his 12th birthday if he is not getting what has been the talk of this house for weeks. ((😟)) Any tips welcome! 	en	1	2	0		2020-06-20T21:22:50.000Z	898	4,132		https://video.twimg.com/tweet_video/Ea_D8qAVAAEVqWt.mp4	https://pbs.twimg.com/tweet_video_thumb/Ea_D8qAVAAEVqWt.jpg	
1273297756291862528	922	Holger	My new Google Nest WiFi with two Points has been a complete game changer for the internet connection across our house. Best purchase of 2020 so far. 	en	10	5	1		2020-06-17T16:53:36.000Z	898	4,132				https://pbs.twimg.com/media/EaupjzJU0AAHNIt?format=jpg&amp;name=small
1273024770045440001	922	Holger	Last weekend, an incredible number of blue whales were seen feeding off the California coast in what appears to be a highly productive year for the ocean ecosystem. ((🌊)) A “Possible Record” Number of Blue Whales Visit the Farallon Islands: 	en	27	0	10	BayNature	2020-06-16T22:48:51.000Z	898	4,132				
1272899064858849280	922	Holger	This is wonderful. Via @usainbolt 	en	12818	95	2439	MeredithFrost	2020-06-16T14:29:21.000Z	898	4,132		blob:https://twitter.com/e5805a59-871e-4e0f-821f-651be2cf19f9	https://pbs.twimg.com/ext_tw_video_thumb/1272899016951554048/pu/img/rfM5L3Qj_Ijl-1Ra.jpg	
1271711138913402890	922	Holger	My parents are bee keepers. They sent me this photo from a fellow French bee keeper who didn’t put the frames in his hive. This is the magic the bees created by themselves ((🐝)) #bees #nature 	en	60503	757	9992	sarahgalerie	2020-06-13T07:48:57.000Z	898	4,132				https://pbs.twimg.com/media/EaYGigaXkAEBMDO?format=jpg&amp;name=360x360
1271174646696677376	922	Holger	On our street, we accept all, we love all, and we respect all. Happy #PrideMonth ! 	en	65649	523	19302	sesamestreet	2020-06-11T20:17:07.000Z	898	4,132				https://pbs.twimg.com/media/EaQelSZWkAo7dfI?format=jpg&amp;name=360x360
1271870906940272640	922	Holger	Was in parts hard to watch for my 11-year old boy, but he was clearly moved and it led to a meaningful conversation. 	en	2	0	0		2020-06-13T18:23:49.000Z	898	4,132				
1271870258907734016	922	Holger	Support the cause @Change 	en	0	0	0		2020-06-13T18:21:14.000Z	898	4,132				
1271868797318606848	922	Holger	Required watching! 	en	0	1	0		2020-06-13T18:15:26.000Z	898	4,132				
1271317000313167872	922	Holger	A masterpiece was created in the Capitol Hill Autonomous Zone today #CHAZ 	en	213975	1269	68700	kylekotajarvi	2020-06-12T05:42:47.000Z	898	4,132		blob:https://twitter.com/41ec8379-7917-4448-bc91-a2c64f11ed73	https://pbs.twimg.com/ext_tw_video_thumb/1271316886219714564/pu/img/QmaYRsKYGIpof9dY.jpg	
1268134132262989824	922	Holger	I'm a writer from Central Florida and I live in Tokyo, Japan. Here's an article I wrote about my child, "I’m Raising A Biracial Daughter In Japan, Where She’s Surrounded By Blackface" https://www.huffpost.com/entry/raising-biracial-daughter-japan-blackface_n_5a999d12e4b089ec3539fc3f Here's some of my other work. #amplifymelanatedvoices 	en	23	2	21	themicrogiant	2020-06-03T10:55:12.000Z	898	4,132				
1270521921856126976	922	Holger	Not often you see Anderson Cooper shed a tear on air. Leave it to Cornell West to eloquently and emotionally get to the heart of what's happening. This was powerful! 	en	35025	764	12980	bern_identity	2020-06-10T01:03:25.000Z	898	4,132		blob:https://twitter.com/0f6e9d08-1201-4ac0-b3a0-9d0321b81d88	https://pbs.twimg.com/amplify_video_thumb/1270512112352333825/img/nu9CXaXIElJh6t-l.jpg	
1268528760036438019	922	Holger	this is so sad ((Pleading face)) it made me cry 	en	881952	2549	329948	darealtishaaa	2020-06-04T13:03:19.000Z	898	4,132				https://pbs.twimg.com/media/EZq4LtjXkAAs9Lk?format=jpg&amp;name=small
1268960820043579395	922	Holger	I'm ok with that. Trump Directs U.S. Troop Reduction in Germany 	en	1	2	0		2020-06-05T17:40:10.000Z	898	4,132				
1268079843004026880	922	Holger	Know the difference. 	en	1356829	1966	587811	Levance_	2020-06-03T07:19:29.000Z	898	4,132				https://pbs.twimg.com/media/EZkf5RWWkAA3a4B?format=jpg&amp;name=240x240 https://pbs.twimg.com/media/EZkf5RVXkAAv_yl?format=jpg&amp;name=240x240 https://pbs.twimg.com/media/EZkf5RUXsAE0_ai?format=jpg&amp;name=240x240 https://pbs.twimg.com/media/EZkf5RVX0AgKTOg?format=jpg&amp;name=240x240
1268719449890107393	922	Holger	The police make everyone unsafe. 	en	21	1	5	igb	2020-06-05T01:41:03.000Z	898	4,132				
1268570125088616449	922	Holger	Funk You (RATM, The Meters, John Lennon, Lily Allen, Cee Lo, Lou Reed, ... https://youtu.be/lWmZxig74wk via @YouTube thx for the mash-up @hagemeister 	en	0	0	0		2020-06-04T15:47:41.000Z	898	4,132				
1268024364756340738	922	Holger	The thing about Trump is that deep down he surely knows that this is what he craves: the adoration and adulation that Barack Obama gets everywhere he goes. It’s why he casually punishes America with brute force and hate. He’s burning the village because he cannot feel its warmth. 	en	34037	3782	10101	JoyAnnReid	2020-06-03T03:39:01.000Z	898	4,132				
1267890519574745098	922	Holger	It’s called a spine @realDonaldTrump , it will be completely unfamiliar to you. 	en	9352	119	1487	INESROBERTS	2020-06-02T18:47:10.000Z	898	4,132				https://pbs.twimg.com/media/EZhzs7sXkAUkFB-?format=jpg&amp;name=360x360
1266861577942102018	922	Holger	They are actually protesting in BERLIN GERMANY… Our Police behavior has become a Global embarrassment.. wow. 	en	697728	3576	205267	FINALLEVEL	2020-05-30T22:38:31.000Z	898	4,132				
1265449852370108416	922	Holger	Should I take insulin 	en	144905	2991	27841	sarahcpr	2020-05-27T01:08:50.000Z	898	4,132		blob:https://twitter.com/e07cff1b-dcdc-4efe-854a-4c35b5b08e12	https://pbs.twimg.com/ext_tw_video_thumb/1265449733969117184/pu/img/_jcu4IPd9kJhGEYW.jpg	
1258098791137198080	922	Holger	RIP Florian Schneider-Esleben Autobahn - 2009 Remaster by Kraftwerk 	de	3	1	0		2020-05-06T18:18:20.000Z	898	4,132				
1258057212334936068	922	Holger	Kraftwerk changed my life. Sticking on the live album recorded at the last two shows I saw Florian might not have been the wisest move, but I was privileged to experience that band with my own eyes several times. Florian Schneider-Esleben, 1947-2020. 	en	25	0	3	iamjurassicmark	2020-05-06T15:33:07.000Z	898	4,132				https://pbs.twimg.com/media/EXWEVvGU8AEzmgN?format=jpg&amp;name=360x360 https://pbs.twimg.com/media/EXWEWnaUEAA5_vh?format=jpg&amp;name=240x240
825156181379330048	929	justin	No, you cannot have my account. No, I will not sell you my account. Yes, Donald Trump is trash. 	en	158	17	22		2017-01-28T01:38:58.000Z	0	12,421				
1292969816761008130	929	justin	BTFU https://app.mobilecause.com/e/v-45lQ?vid=aeh0a #EDSBSCharityBowl 	en	3	0	1		2020-08-10T23:43:21.000Z	0	12,421				
1283549921392697346	929	justin	Unverified twitter, represent. 	en	12	1	3		2020-07-15T23:52:03.000Z	0	12,421				
1283187917398171649	929	justin	My twitter account is actually a cake. 	en	10	0	2		2020-07-14T23:53:34.000Z	0	12,421				
1283185479815495680	929	justin	I’ve been on this hell site for 14 years. What is wrong with me? 	en	16	5	0		2020-07-14T23:43:53.000Z	0	12,421				
1281587251848400900	929	justin	Hate to see it. 	en	3	1	0		2020-07-10T13:53:06.000Z	0	12,421				
1278437643311812608	929	justin			4	0	0		2020-07-01T21:17:41.000Z	0	12,421				
1276698261668024320	929	justin	I got no desire to go to another in person WWDC. Run this new incarnation back in 2021. 	en	19	0	2		2020-06-27T02:06:00.000Z	0	12,421				
1273796265709408256	929	justin	Y’all been arguing about the same shit for twelve years. 	en	22	2	3		2020-06-19T01:54:30.000Z	0	12,421				
1271880371789918208	929	justin	Paired debugging 	en	8	0	2		2020-06-13T19:01:25.000Z	0	12,421				
1270726619049517058	929	justin	I picked up a 12.9” iPad Pro + Magic Keyboard a few weeks ago and I honestly think it might be my favorite computer ever. 	en	47	5	2		2020-06-10T14:36:49.000Z	0	12,421				
1266512529615810560	929	justin			10	2	2		2020-05-29T23:31:32.000Z	0	12,421				
1266476962832211968	929	justin	If you are still actively collecting a paycheck from Facebook, you are complicit in the destruction of society that has gotten us to this point. Shame on you. 	en	14	0	3		2020-05-29T21:10:12.000Z	0	12,421				
1261671395265613827	929	justin	Test-driven economic development, amirite? 	ro	19	2	6		2020-05-16T14:54:36.000Z	0	12,421				
1258393303931858945	929	justin			7	0	0		2020-05-07T13:48:38.000Z	0	12,421				
1247576513521713154	929	justin	People quarantining during RonaMania can be easily grouped into three cohorts: 1. Sourdough Starter People 2. Tiger King People 3. Animal Crossing People 	en	20	1	5		2020-04-07T17:26:34.000Z	0	12,421				
1234640377908359169	929	justin			5	0	1		2020-03-03T00:42:59.000Z	0	12,421				
1009291321356382208	929	justin	Be wary of the person who tries to sell you on a language or framework that allows you to “write once and run everywhere” for they are selling you a lie. This tweet was relevant a decade ago and it will be in the next decade when this comes around again. 	en	207	10	96	justin	2018-06-20T04:26:17.000Z	0	12,421				
1224853160239362050	929	justin	No, this is not my new job. I actually know what I’m doing. 	en	14	1	0		2020-02-05T00:32:04.000Z	0	12,421				
1223365188960702470	929	justin	Different job, same GIF use for pushing releases to the App Store. 	en	3	0	0		2020-01-31T21:59:24.000Z	0	12,421				
1221129573821120512	929	justin	1. Endgame 2. Hustlers 3. Long shot 	en	2	0	0		2020-01-25T17:55:52.000Z	0	12,421				
1221087247841161218	929	justin	I watch a lot of movies. This was easily top 3 for me last year. 	en	4	1	0		2020-01-25T15:07:41.000Z	0	12,421				
1219032142639845376	929	justin	Either all these apps are really bad at iMessage extensions or . . . 	en	10	3	1		2020-01-19T23:01:25.000Z	0	12,421				https://pbs.twimg.com/media/EOrfRaVUYAAaASg?format=jpg&amp;name=360x360
1203074526923280384	929	justin	After a few weeks I can’t say enough good things about the new 16” MacBook Pro. I don’t think I’ve ever disliked a machine more than the previous generation. This new revision solves all of my major complaints. 	en	20	0	1		2019-12-06T22:11:33.000Z	0	12,421				
1193565547855638529	929	justin	This time I was at least across the street from where WWDC is. 	en	1	0	0		2019-11-10T16:26:16.000Z	0	12,421				https://pbs.twimg.com/media/EJBlgNnUUAQ29Dd?format=jpg&amp;name=360x360
1157676030812753922	929	justin	If you don’t respect user data, you don’t respect your users. 	en	9	1	3		2019-08-03T15:34:08.000Z	0	12,421				
1156672055183474688	929	justin	Funemployment is a lot like working from home. The only difference is I’m actually paying attention to all these Law &amp; Order episodes now. 	en	11	0	0		2019-07-31T21:04:42.000Z	0	12,421				
1156612496255438848	929	justin	((🤦🏻‍♂️)) 	und	9	2	1		2019-07-31T17:08:02.000Z	0	12,421				https://pbs.twimg.com/media/EA0c7tKUIAEZObQ?format=jpg&amp;name=360x360
1154032757552508930	929	justin	After nearly 7 (!) years, yesterday was my last day at @TEDTalks . What's next? Some much needed time off to recharge and learn some new things. After that? Call me. 	en	39	6	9		2019-07-24T14:17:04.000Z	0	12,421				
1151130519133802496	929	justin	I made a huge mistake. 	en	9	2	0		2019-07-16T14:04:37.000Z	0	12,421				https://pbs.twimg.com/media/D_mjGtGUYAA8IAl?format=jpg&amp;name=360x360
1147970917437493248	929	justin	Seeing @rainmakerXokada was more exciting than SwiftUI. His English is way better than my Japanese. 	en	3	1	0		2019-07-07T20:49:29.000Z	0	12,421				https://pbs.twimg.com/media/D-5pc4qX4AAhsdW?format=jpg&amp;name=360x360
1147624449098813442	929	justin	Coulda gone to WWDC. Went to this instead. 	en	7	3	0		2019-07-06T21:52:45.000Z	0	12,421				https://pbs.twimg.com/media/D-0uWKvWsAEhEz2?format=jpg&amp;name=360x360
1146884043054571520	929	justin	Independence Day wouldn’t be possible without the PowerBook 5300. Happy 4th. 	en	18	0	5		2019-07-04T20:50:38.000Z	0	12,421		https://video.twimg.com/tweet_video/D-qM8zBUYAAnxqq.mp4	https://pbs.twimg.com/tweet_video_thumb/D-qM8zBUYAAnxqq.jpg	
1047853255475130375	929	justin	iOS native to Xamarin = Chanel to Old Navy. Same outcome, different fidelity. 	en	16	0	4	thaniya	2018-10-04T14:17:38.000Z	0	12,421				
1141799243209822208	929	justin	How I know an SDK vendor doesn’t give a shit: it’s the year of our lord 2019 and you still don’t support Swift nullability annotations. 	en	19	1	7		2019-06-20T20:05:27.000Z	0	12,421				
1139607508975153152	929	justin	Happy Friday. I open sourced the repository for my old Auto Layout book. It may or may not be super out of date after last week. I haven't had time to look at WWDC much yet. 	en	18	1	4		2019-06-14T18:56:17.000Z	0	12,421				
1121508613430763520	929	justin	I am a professional software developer. 	en	10	0	0		2019-04-25T20:17:44.000Z	0	12,421				https://pbs.twimg.com/media/D5BmI33UYAA6GqI?format=png&amp;name=360x360
1116440934101553152	929	justin	The best part of putting out a new @TEDTalks release is getting to write the release notes. It’s the only writing I get to do anymore it feels like. 	en	16	0	0		2019-04-11T20:40:35.000Z	0	12,421				https://pbs.twimg.com/media/D35lG-mUwAApJqi?format=jpg&amp;name=small
1115064778005729280	929	justin	When React Native is suggested. 	en	72	0	13		2019-04-08T01:32:14.000Z	0	12,421				https://pbs.twimg.com/media/D3mBgNSUcAA0A3i?format=jpg&amp;name=360x360
1090665683900260352	929	justin	Building a content downloading system on mobile is one of those sneaky hard problems. Sharp edges and concurrency hell everywhere. 	en	14	2	0		2019-01-30T17:38:57.000Z	0	12,421				
1086025288062984192	929	justin	When you reach the komono stage of your new @konmari_co lifestyle, remember that the tops of all those Apple product boxes you saved for whatever reason make good organizers. 	en	158	4	30		2019-01-17T22:19:40.000Z	0	12,421				https://pbs.twimg.com/media/DxJVxMPUYAAbmmY?format=jpg&amp;name=360x360
1076490210903449600	929	justin	Done for the year. See y'all in 2019. 	en	15	0	1		2018-12-22T14:50:41.000Z	0	12,421				https://pbs.twimg.com/media/DvB2GjMVAAAm7x6?format=jpg&amp;name=360x360
1076202791281016834	929	justin	Reader, I wasn’t wrong. Hoo boy that was some shit. 	en	15	0	0		2018-12-21T19:48:34.000Z	0	12,421				
1076148635669168128	929	justin	When you're keeping it real. 	en	23	1	2		2018-12-21T16:13:23.000Z	0	12,421				https://pbs.twimg.com/media/Du8_drlUYAAselQ?format=jpg&amp;name=small
1070344328885633024	929	justin	Dumb trick I picked up a few years ago (from @drance ?): when you leave a expository comment in code, initial and date it. The date context can be helpful to determine if a workaround or assumption is still valid today vs in the past. This probably won't scale to a larger team. 	en	7	3	2		2018-12-05T15:49:08.000Z	0	12,421				https://pbs.twimg.com/media/Dtqf90MUwAUZeqH?format=jpg&amp;name=360x360
1065270583196188672	929	justin	If ever there was a movie I'd overpay to have in HD and available on iTunes . . . 	en	46	8	12		2018-11-21T15:47:53.000Z	0	12,421				
1062544972912545792	929	justin	Me after five minutes on this hell web site. 	en	6	2	1		2018-11-14T03:17:17.000Z	0	12,421				https://pbs.twimg.com/media/Dr7rBNYUUAAFRI4?format=jpg&amp;name=360x360
1059180667848679424	929	justin	If you’re not spending at least 30% of your release cycle on code hygiene and paying down technical debt, your software development process is broken. 	en	120	2	53		2018-11-04T20:28:44.000Z	0	12,421				
1040293297925709825	929	justin	Burt Reynolds with an essential lesson for anyone who manages people. 	en	16	0	3		2018-09-13T17:37:04.000Z	0	12,421				
1030127157786238976	929	justin	Nested stack views are a code smell. 	en	6	5	0		2018-08-16T16:20:27.000Z	0	12,421				
1027001390726430720	929	justin	The world doesn’t need social media. It’s ok to admit it was a mistake. 	en	33	1	7		2018-08-08T01:19:46.000Z	0	12,421				
1025096724556144640	929	justin	I deleted all my tweets a year or so ago. Turns out that is probably what everyone on earth should do. ((✌🏻)) 	en	13	3	0		2018-08-02T19:11:19.000Z	0	12,421				
1012799598119669760	929	justin	It's still exciting to see your work in the featured lists on the @AppStore , even after a decade. Not 100% jaded yet! 	en	18	1	1		2018-06-29T20:46:55.000Z	0	12,421				
1012066793572069377	929	justin	Proud/embarrassed of this: Multiple roofers couldn’t find source of leak. I finally climbed into the attic and put a salad bowl onto the spot where the water would drip on the inside. Water evaporates before the bowl fills up. Been 5 yrs. git commit -m “Ugly hack, but fixed bug” 	en	14	3	2	_aijaz_	2018-06-27T20:15:01.000Z	0	12,421				
1012014312376844289	929	justin	Software development and owning a home aren't much different. Ignore regular maintenance and upkeep for long enough and you'll pay for it exponentially when it rears its head. 	en	121	3	29		2018-06-27T16:46:29.000Z	0	12,421				
1011370936744853505	929	justin	The new @TEDTalks for iOS is out today. It's the biggest release we've done since 2012 and the culmination of about 3 years of progressively rewriting an app that first shipped on iOS 3.2. I had a lot less grey hairs back then. Hope you like it. 	en	444	23	86		2018-06-25T22:09:56.000Z	0	12,421				https://pbs.twimg.com/media/DgkbLclVMAAN63W?format=png&amp;name=360x360 https://pbs.twimg.com/media/DgkbMGVU8AAIcx0?format=png&amp;name=360x360 https://pbs.twimg.com/media/DgkbMjbUEAAhUai?format=png&amp;name=360x360
998712847860289536	929	justin	All of my professional scars have been caused by third-party SDKs. Grey hair too. 	en	10	2	2		2018-05-21T23:51:12.000Z	0	12,421				
982333845226819584	929	justin	Me too tbh 	en	4	0	0		2018-04-06T19:06:54.000Z	0	12,421				
982277001674305538	929	justin	If Apple isn’t going to ship me a computer that is exactly like my 2004 setup I am going to write negative tweets and blog posts about it! 	en	37	8	4		2018-04-06T15:21:01.000Z	0	12,421				https://pbs.twimg.com/media/DaG_sbJVAAEbe7b?format=jpg&amp;name=360x360
974746317577572352	929	justin	I need to print this out and frame it on my wall. -- Sent from my Remote Office. 	en	7	0	3		2018-03-16T20:36:46.000Z	0	12,421				
965640772685934592	929	justin	This is true. This whole CO story is a whole new level of cursed. Hope you have low level carbon monoxide detectors! Fml 	en	0	0	1		2018-02-19T17:34:35.000Z	0	12,421				
965599715302686724	929	justin	My house has been filled with carbon monoxide because of a non-functional flue vent. Replacing the pipe would have required a lot of drywall being knocked out, so I am just replacing my entire HVAC system to re-route that pipe. A true programmer: rewriting over refactoring. 	en	18	1	2		2018-02-19T14:51:26.000Z	0	12,421				
961720836771098625	929	justin	Keeping track of all the different margin variants has replaced keeping track of the status bar as the biggest iOS pain in the ass. 	en	4	0	0		2018-02-08T21:58:10.000Z	0	12,421				
954831030455685121	929	justin	At least once a week I consider quitting software and going back to school for a degree in turf management. Managing a golf course for a living sounds downright peaceful. 	en	33	9	5		2018-01-20T21:40:32.000Z	0	12,421				
943862461333229569	929	justin	I’ve learned way to much about iOS Data Protection this week. Pro tip: it’s best to assume your app will always have its container locked with NSFileProtectionComplete. MDM policies can seemingly overrride your defaults from my research/headaches. 	en	12	0	1		2017-12-21T15:15:21.000Z	0	12,421				
940749319266816001	929	justin	Modern iOS development is 25% parsing JSON into table views and 75% debugging analytics SDKs. 	en	193	11	63		2017-12-13T01:04:50.000Z	0	12,421				
938844316948054016	929	justin	When your day starts with using atos to symbolicate a crash report line by line, it’s likely not going to be a good day. 	en	5	0	1		2017-12-07T18:55:02.000Z	0	12,421				
938593499179466752	929	justin	Well, I guess I wasn’t totally insane. 	en	7	2	1		2017-12-07T02:18:23.000Z	0	12,421				
938521329526902784	929	justin	I’m half convinced that Apple granted Amazon an entitlement to access a tvOS web view to get Prime Video on the Apple TV. It looks and behaves nearly identical to the HTML5 / Smart TV app that is deployed everywhere. I have zero evidence of this. Just my dumb conspiracy theory. 	en	41	6	8		2017-12-06T21:31:36.000Z	0	12,421				
938504985184108545	929	justin	It actually takes effort to make a bad tvOS app. 	en	32	1	7		2017-12-06T20:26:39.000Z	0	12,421				
937841913352376320	929	justin	Sometimes Ruby makes me pull my hair out, but most of the time I can’t imagine doing iOS deployments and app management without @FastlaneTools . 	en	2	1	1		2017-12-05T00:31:51.000Z	0	12,421				
937790553382567936	929	justin	Shipped a semi-bad bug with our release today. Is the meetup at Apple Park or 1 Infinite Loop? 	en	9	1	0		2017-12-04T21:07:45.000Z	0	12,421				
936378689872203776	929	justin	I’ve been trying to follow this advice from @johngreen the last few months: have less useless opinions. Probably why I tweet less than I used to. 	en	14	2	0		2017-11-30T23:37:31.000Z	0	12,421				
936377375461220352	929	justin	Armchair quarterbacking* Big Fruit’s (or any other company for that matter) SWE practices from the outside is tacky and unhelpful. * the “quarterback” is the player who throws or hands off the ball in football. He’s what agile developers would call the “Scrum Lord.” 	en	9	1	1		2017-11-30T23:32:18.000Z	0	12,421				
935179795561775104	929	justin	Find you someone who looks at you the way these marketers in my inbox look at Black Friday and Cyber Monday. 	en	5	0	0		2017-11-27T16:13:32.000Z	0	12,421				
932640742568325120	929	justin	Love hearing about people who still keep their notes and whatnot in the “Elements” folder. My tiniest dent in the universe. 	en	15	3	0		2017-11-20T16:04:15.000Z	0	12,421				
929116985627160576	929	justin	You don’t join Apple to change the world. You do it to never have to deal with vendor SDKs again. 	en	50	1	3		2017-11-10T22:42:06.000Z	0	12,421				
925442245704130560	929	justin	How to get your friends and family to update to iOS 11. 	en	26	2	8		2017-10-31T19:19:59.000Z	0	12,421				https://pbs.twimg.com/media/DNfU0G0UMAEbGlG?format=jpg&amp;name=360x360
919917995710758913	929	justin	I said I wanted a cake when this eventually shipped. I was not disappointed. &lt;/fin&gt; 	en	17	4	1		2017-10-16T13:28:36.000Z	0	12,421				https://pbs.twimg.com/media/DMQ0idtUQAAsQTy?format=jpg&amp;name=240x240 https://pbs.twimg.com/media/DMQ0haBVoAASXuj?format=jpg&amp;name=240x240
919917534459002882	929	justin	With support from the TED organization via @thaniya , @whtrue , @ydocody , and others whose twitter accounts I can’t think of right now. 	en	2	1	0		2017-10-16T13:26:46.000Z	0	12,421				
919916911105732613	929	justin	It’s been a collaborative development effort over the years between myself, @drance , @shanev , @dh_thomas , and even @schwa . 	en	2	1	1		2017-10-16T13:24:17.000Z	0	12,421				
919916248527335424	929	justin	I have five years of stories and scars about the work it took to get to this point, but TED for iOS now lets you sign into your TED account. 	en	34	6	3		2017-10-16T13:21:39.000Z	0	12,421				https://pbs.twimg.com/media/DMQy8sGV4AAkgie?format=jpg&amp;name=360x360
917096349782499328	929	justin	LaGuardia is such trash. I’ve never once not regretted flying in there. Hope they name it after POTUS someday. 	en	13	1	2		2017-10-08T18:36:23.000Z	0	12,421				
916042627618807808	929	justin	That’s not inspired by anything specific. Just something I’ve noticed after 10 years in this rat race. 	en	0	1	0		2017-10-05T20:49:16.000Z	0	12,421				
916042543099293696	929	justin	Justin’s Third Theorem: The more expensive the vendor, the more expensive and time consuming integrating their SDK will be. 	en	4	1	2		2017-10-05T20:48:56.000Z	0	12,421				
905450408352641025	929	justin	And to round it out, present day setup with iMac 5k. Made the stand a few months ago because neck and shoulder tension is real. 	en	5	3	0		2017-09-06T15:19:34.000Z	0	12,421				https://pbs.twimg.com/media/DJDOV0rVoAA4r9A?format=jpg&amp;name=360x360
905229192916221952	929	justin	This was my setup in 2013. That iMac was the best computer I ever owned. Also, lol my attempts at being a podcaster. 	en	13	7	0		2017-09-06T00:40:32.000Z	0	12,421				https://pbs.twimg.com/media/DJAFJolVwAEbLMd?format=jpg&amp;name=360x360
905185999235551233	929	justin	This was my setup in 2008. I had a thing for cheese graters obviously. 	en	11	6	0		2017-09-05T21:48:54.000Z	0	12,421				https://pbs.twimg.com/media/DI_dkP3UQAAdM7V?format=jpg&amp;name=360x360
905166166368321537	929	justin	This was my computer setup in college (2004). I don’t think I can ever top this. 	en	31	9	0		2017-09-05T20:30:05.000Z	0	12,421				https://pbs.twimg.com/media/DI_L1EZUwAALaqx?format=jpg&amp;name=360x360
891040465822167040	929	justin	When little fingers sees what I’ve spent the last five years of my life on. 	en	8	1	1		2017-07-28T20:59:36.000Z	0	12,421				https://pbs.twimg.com/media/DF2clIwUIAAuTt4?format=jpg&amp;name=360x360
886962640735436800	929	justin	Verifying myself: I am justinwme on Keybase.io. zGP0yxaBpOFeuIa5Q2GVEwQz75UgPFAopl2l / https://keybase.io/justinwme/sigs/zGP0yxaBpOFeuIa5Q2GVEwQz75UgPFAopl2l 	en	1	0	0		2017-07-17T14:55:47.000Z	0	12,421				
526483182129250306	929	justin	NFL, you can't have her! Looks like Rebecca Lowe has been "kidnapped" by the throwball @SNFonNBC crew #BPLonNBC 	en	15	3	12	worldsoccertalk	2014-10-26T21:19:06.000Z	0	12,421				https://pbs.twimg.com/media/B05xqeyCEAA34IQ?format=jpg&amp;name=360x360
488548276548145152	929	justin	Luiz Scolari Resigns As Manager Of Brazilian National Team After World Cup Embarrassment http://ift.tt/WbGqna 	en	8	1	35	worldsoccertalk	2014-07-14T04:59:20.000Z	0	12,421				https://pbs.twimg.com/media/BsesEaSIMAAmwXg?format=jpg&amp;name=360x360
477137651191934977	929	justin	CNN &amp; Sky Sports have been broadcasting footage of protests in Brazil w/ riot police. Haven't seen 1 second of it on ABC/ESPN yet #worldcup 	en	5	2	13	worldsoccertalk	2014-06-12T17:17:35.000Z	0	12,421				
